
serial.elf:     file format elf32-littlearm

Sections:
Idx Name          Size      VMA       LMA       File off  Algn
  0 .isr_vector   0000010c  08000000  08000000  00001000  2**0
                  CONTENTS, ALLOC, LOAD, READONLY, DATA
  1 .text         0000661c  0800010c  0800010c  0000110c  2**2
                  CONTENTS, ALLOC, LOAD, READONLY, CODE
  2 .rodata       00000ab0  08006728  08006728  00007728  2**2
                  CONTENTS, ALLOC, LOAD, READONLY, DATA
  3 .ARM.extab    00000000  080071d8  080071d8  0000905c  2**0
                  CONTENTS, READONLY
  4 .ARM          00000008  080071d8  080071d8  000081d8  2**2
                  CONTENTS, ALLOC, LOAD, READONLY, DATA
  5 .preinit_array 00000000  080071e0  080071e0  0000905c  2**0
                  CONTENTS, ALLOC, LOAD, DATA
  6 .init_array   00000004  080071e0  080071e0  000081e0  2**2
                  CONTENTS, ALLOC, LOAD, READONLY, DATA
  7 .fini_array   00000004  080071e4  080071e4  000081e4  2**2
                  CONTENTS, ALLOC, LOAD, READONLY, DATA
  8 .data         0000005c  20000000  080071e8  00009000  2**2
                  CONTENTS, ALLOC, LOAD, DATA
  9 .bss          00000dd4  2000005c  08007244  0000905c  2**2
                  ALLOC
 10 ._user_heap_stack 00001200  20000e30  08007244  00009e30  2**0
                  ALLOC
 11 .ARM.attributes 00000029  00000000  00000000  0000905c  2**0
                  CONTENTS, READONLY
 12 .debug_info   0000cbe7  00000000  00000000  00009085  2**0
                  CONTENTS, READONLY, DEBUGGING, OCTETS
 13 .debug_abbrev 00001d72  00000000  00000000  00015c6c  2**0
                  CONTENTS, READONLY, DEBUGGING, OCTETS
 14 .debug_aranges 00000c20  00000000  00000000  000179e0  2**3
                  CONTENTS, READONLY, DEBUGGING, OCTETS
 15 .debug_rnglists 00000997  00000000  00000000  00018600  2**0
                  CONTENTS, READONLY, DEBUGGING, OCTETS
 16 .debug_macro  000186bf  00000000  00000000  00018f97  2**0
                  CONTENTS, READONLY, DEBUGGING, OCTETS
 17 .debug_line   0000d094  00000000  00000000  00031656  2**0
                  CONTENTS, READONLY, DEBUGGING, OCTETS
 18 .debug_str    0008733e  00000000  00000000  0003e6ea  2**0
                  CONTENTS, READONLY, DEBUGGING, OCTETS
 19 .comment      00000043  00000000  00000000  000c5a28  2**0
                  CONTENTS, READONLY
 20 .debug_frame  00003648  00000000  00000000  000c5a6c  2**2
                  CONTENTS, READONLY, DEBUGGING, OCTETS
 21 .debug_line_str 0000006b  00000000  00000000  000c90b4  2**0
                  CONTENTS, READONLY, DEBUGGING, OCTETS

Disassembly of section .text:

0800010c <__do_global_dtors_aux>:
 800010c:	b510      	push	{r4, lr}
 800010e:	4c05      	ldr	r4, [pc, #20]	@ (8000124 <__do_global_dtors_aux+0x18>)
 8000110:	7823      	ldrb	r3, [r4, #0]
 8000112:	b933      	cbnz	r3, 8000122 <__do_global_dtors_aux+0x16>
 8000114:	4b04      	ldr	r3, [pc, #16]	@ (8000128 <__do_global_dtors_aux+0x1c>)
 8000116:	b113      	cbz	r3, 800011e <__do_global_dtors_aux+0x12>
 8000118:	4804      	ldr	r0, [pc, #16]	@ (800012c <__do_global_dtors_aux+0x20>)
 800011a:	f3af 8000 	nop.w
 800011e:	2301      	movs	r3, #1
 8000120:	7023      	strb	r3, [r4, #0]
 8000122:	bd10      	pop	{r4, pc}
 8000124:	2000005c 	.word	0x2000005c
 8000128:	00000000 	.word	0x00000000
 800012c:	08006710 	.word	0x08006710

08000130 <frame_dummy>:
 8000130:	b508      	push	{r3, lr}
 8000132:	4b03      	ldr	r3, [pc, #12]	@ (8000140 <frame_dummy+0x10>)
 8000134:	b11b      	cbz	r3, 800013e <frame_dummy+0xe>
 8000136:	4903      	ldr	r1, [pc, #12]	@ (8000144 <frame_dummy+0x14>)
 8000138:	4803      	ldr	r0, [pc, #12]	@ (8000148 <frame_dummy+0x18>)
 800013a:	f3af 8000 	nop.w
 800013e:	bd08      	pop	{r3, pc}
 8000140:	00000000 	.word	0x00000000
 8000144:	20000060 	.word	0x20000060
 8000148:	08006710 	.word	0x08006710

0800014c <strcmp>:
 800014c:	f810 2b01 	ldrb.w	r2, [r0], #1
 8000150:	f811 3b01 	ldrb.w	r3, [r1], #1
 8000154:	2a01      	cmp	r2, #1
 8000156:	bf28      	it	cs
 8000158:	429a      	cmpcs	r2, r3
 800015a:	d0f7      	beq.n	800014c <strcmp>
 800015c:	1ad0      	subs	r0, r2, r3
 800015e:	4770      	bx	lr

08000160 <strlen>:
 8000160:	4603      	mov	r3, r0
 8000162:	f813 2b01 	ldrb.w	r2, [r3], #1
 8000166:	2a00      	cmp	r2, #0
 8000168:	d1fb      	bne.n	8000162 <strlen+0x2>
 800016a:	1a18      	subs	r0, r3, r0
 800016c:	3801      	subs	r0, #1
 800016e:	4770      	bx	lr

08000170 <__aeabi_uldivmod>:
 8000170:	b953      	cbnz	r3, 8000188 <__aeabi_uldivmod+0x18>
 8000172:	b94a      	cbnz	r2, 8000188 <__aeabi_uldivmod+0x18>
 8000174:	2900      	cmp	r1, #0
 8000176:	bf08      	it	eq
 8000178:	2800      	cmpeq	r0, #0
 800017a:	bf1c      	itt	ne
 800017c:	f04f 31ff 	movne.w	r1, #4294967295
 8000180:	f04f 30ff 	movne.w	r0, #4294967295
 8000184:	f000 b986 	b.w	8000494 <__aeabi_idiv0>
 8000188:	f1ad 0c08 	sub.w	ip, sp, #8
 800018c:	e96d ce04 	strd	ip, lr, [sp, #-16]!
 8000190:	f000 f806 	bl	80001a0 <__udivmoddi4>
 8000194:	f8dd e004 	ldr.w	lr, [sp, #4]
 8000198:	e9dd 2302 	ldrd	r2, r3, [sp, #8]
 800019c:	b004      	add	sp, #16
 800019e:	4770      	bx	lr

080001a0 <__udivmoddi4>:
 80001a0:	e92d 47f0 	stmdb	sp!, {r4, r5, r6, r7, r8, r9, sl, lr}
 80001a4:	9d08      	ldr	r5, [sp, #32]
 80001a6:	460f      	mov	r7, r1
 80001a8:	4604      	mov	r4, r0
 80001aa:	468e      	mov	lr, r1
 80001ac:	2b00      	cmp	r3, #0
 80001ae:	d148      	bne.n	8000242 <__udivmoddi4+0xa2>
 80001b0:	428a      	cmp	r2, r1
 80001b2:	4616      	mov	r6, r2
 80001b4:	d961      	bls.n	800027a <__udivmoddi4+0xda>
 80001b6:	fab2 f282 	clz	r2, r2
 80001ba:	b14a      	cbz	r2, 80001d0 <__udivmoddi4+0x30>
 80001bc:	f1c2 0320 	rsb	r3, r2, #32
 80001c0:	fa01 fe02 	lsl.w	lr, r1, r2
 80001c4:	fa20 f303 	lsr.w	r3, r0, r3
 80001c8:	4096      	lsls	r6, r2
 80001ca:	ea43 0e0e 	orr.w	lr, r3, lr
 80001ce:	4094      	lsls	r4, r2
 80001d0:	ea4f 4c16 	mov.w	ip, r6, lsr #16
 80001d4:	fbbe f1fc 	udiv	r1, lr, ip
 80001d8:	b2b7      	uxth	r7, r6
 80001da:	fb0c ee11 	mls	lr, ip, r1, lr
 80001de:	fb01 f007 	mul.w	r0, r1, r7
 80001e2:	0c23      	lsrs	r3, r4, #16
 80001e4:	ea43 430e 	orr.w	r3, r3, lr, lsl #16
 80001e8:	4298      	cmp	r0, r3
 80001ea:	d909      	bls.n	8000200 <__udivmoddi4+0x60>
 80001ec:	18f3      	adds	r3, r6, r3
 80001ee:	f101 3eff 	add.w	lr, r1, #4294967295
 80001f2:	f080 80ed 	bcs.w	80003d0 <__udivmoddi4+0x230>
 80001f6:	4298      	cmp	r0, r3
 80001f8:	f240 80ea 	bls.w	80003d0 <__udivmoddi4+0x230>
 80001fc:	3902      	subs	r1, #2
 80001fe:	4433      	add	r3, r6
 8000200:	1a1b      	subs	r3, r3, r0
 8000202:	fbb3 f0fc 	udiv	r0, r3, ip
 8000206:	fb0c 3310 	mls	r3, ip, r0, r3
 800020a:	fb00 f707 	mul.w	r7, r0, r7
 800020e:	b2a4      	uxth	r4, r4
 8000210:	ea44 4403 	orr.w	r4, r4, r3, lsl #16
 8000214:	42a7      	cmp	r7, r4
 8000216:	d909      	bls.n	800022c <__udivmoddi4+0x8c>
 8000218:	1934      	adds	r4, r6, r4
 800021a:	f100 33ff 	add.w	r3, r0, #4294967295
 800021e:	f080 80d9 	bcs.w	80003d4 <__udivmoddi4+0x234>
 8000222:	42a7      	cmp	r7, r4
 8000224:	f240 80d6 	bls.w	80003d4 <__udivmoddi4+0x234>
 8000228:	4434      	add	r4, r6
 800022a:	3802      	subs	r0, #2
 800022c:	ea40 4001 	orr.w	r0, r0, r1, lsl #16
 8000230:	2100      	movs	r1, #0
 8000232:	1be4      	subs	r4, r4, r7
 8000234:	b11d      	cbz	r5, 800023e <__udivmoddi4+0x9e>
 8000236:	2300      	movs	r3, #0
 8000238:	40d4      	lsrs	r4, r2
 800023a:	e9c5 4300 	strd	r4, r3, [r5]
 800023e:	e8bd 87f0 	ldmia.w	sp!, {r4, r5, r6, r7, r8, r9, sl, pc}
 8000242:	428b      	cmp	r3, r1
 8000244:	d906      	bls.n	8000254 <__udivmoddi4+0xb4>
 8000246:	b10d      	cbz	r5, 800024c <__udivmoddi4+0xac>
 8000248:	e9c5 0100 	strd	r0, r1, [r5]
 800024c:	2100      	movs	r1, #0
 800024e:	4608      	mov	r0, r1
 8000250:	e8bd 87f0 	ldmia.w	sp!, {r4, r5, r6, r7, r8, r9, sl, pc}
 8000254:	fab3 f183 	clz	r1, r3
 8000258:	2900      	cmp	r1, #0
 800025a:	d147      	bne.n	80002ec <__udivmoddi4+0x14c>
 800025c:	42bb      	cmp	r3, r7
 800025e:	d302      	bcc.n	8000266 <__udivmoddi4+0xc6>
 8000260:	4282      	cmp	r2, r0
 8000262:	f200 8104 	bhi.w	800046e <__udivmoddi4+0x2ce>
 8000266:	1a84      	subs	r4, r0, r2
 8000268:	eb67 0203 	sbc.w	r2, r7, r3
 800026c:	2001      	movs	r0, #1
 800026e:	4696      	mov	lr, r2
 8000270:	2d00      	cmp	r5, #0
 8000272:	d0e4      	beq.n	800023e <__udivmoddi4+0x9e>
 8000274:	e9c5 4e00 	strd	r4, lr, [r5]
 8000278:	e7e1      	b.n	800023e <__udivmoddi4+0x9e>
 800027a:	2a00      	cmp	r2, #0
 800027c:	f000 8090 	beq.w	80003a0 <__udivmoddi4+0x200>
 8000280:	fab2 f282 	clz	r2, r2
 8000284:	2a00      	cmp	r2, #0
 8000286:	f040 80a7 	bne.w	80003d8 <__udivmoddi4+0x238>
 800028a:	1b88      	subs	r0, r1, r6
 800028c:	2101      	movs	r1, #1
 800028e:	0c37      	lsrs	r7, r6, #16
 8000290:	fa1f fe86 	uxth.w	lr, r6
 8000294:	fbb0 fcf7 	udiv	ip, r0, r7
 8000298:	fb07 001c 	mls	r0, r7, ip, r0
 800029c:	0c23      	lsrs	r3, r4, #16
 800029e:	ea43 4300 	orr.w	r3, r3, r0, lsl #16
 80002a2:	fb0e f00c 	mul.w	r0, lr, ip
 80002a6:	4298      	cmp	r0, r3
 80002a8:	d907      	bls.n	80002ba <__udivmoddi4+0x11a>
 80002aa:	18f3      	adds	r3, r6, r3
 80002ac:	f10c 38ff 	add.w	r8, ip, #4294967295
 80002b0:	d202      	bcs.n	80002b8 <__udivmoddi4+0x118>
 80002b2:	4298      	cmp	r0, r3
 80002b4:	f200 80e0 	bhi.w	8000478 <__udivmoddi4+0x2d8>
 80002b8:	46c4      	mov	ip, r8
 80002ba:	1a1b      	subs	r3, r3, r0
 80002bc:	fbb3 f0f7 	udiv	r0, r3, r7
 80002c0:	fb07 3310 	mls	r3, r7, r0, r3
 80002c4:	fb0e fe00 	mul.w	lr, lr, r0
 80002c8:	b2a4      	uxth	r4, r4
 80002ca:	ea44 4403 	orr.w	r4, r4, r3, lsl #16
 80002ce:	45a6      	cmp	lr, r4
 80002d0:	d907      	bls.n	80002e2 <__udivmoddi4+0x142>
 80002d2:	1934      	adds	r4, r6, r4
 80002d4:	f100 33ff 	add.w	r3, r0, #4294967295
 80002d8:	d202      	bcs.n	80002e0 <__udivmoddi4+0x140>
 80002da:	45a6      	cmp	lr, r4
 80002dc:	f200 80c9 	bhi.w	8000472 <__udivmoddi4+0x2d2>
 80002e0:	4618      	mov	r0, r3
 80002e2:	eba4 040e 	sub.w	r4, r4, lr
 80002e6:	ea40 400c 	orr.w	r0, r0, ip, lsl #16
 80002ea:	e7a3      	b.n	8000234 <__udivmoddi4+0x94>
 80002ec:	f1c1 0620 	rsb	r6, r1, #32
 80002f0:	408b      	lsls	r3, r1
 80002f2:	fa22 fc06 	lsr.w	ip, r2, r6
 80002f6:	ea4c 0c03 	orr.w	ip, ip, r3
 80002fa:	fa27 fa06 	lsr.w	sl, r7, r6
 80002fe:	ea4f 491c 	mov.w	r9, ip, lsr #16
 8000302:	fbba f8f9 	udiv	r8, sl, r9
 8000306:	408f      	lsls	r7, r1
 8000308:	fa20 f306 	lsr.w	r3, r0, r6
 800030c:	fb09 aa18 	mls	sl, r9, r8, sl
 8000310:	fa1f fe8c 	uxth.w	lr, ip
 8000314:	433b      	orrs	r3, r7
 8000316:	fa00 f701 	lsl.w	r7, r0, r1
 800031a:	fb08 f00e 	mul.w	r0, r8, lr
 800031e:	0c1c      	lsrs	r4, r3, #16
 8000320:	ea44 440a 	orr.w	r4, r4, sl, lsl #16
 8000324:	42a0      	cmp	r0, r4
 8000326:	fa02 f201 	lsl.w	r2, r2, r1
 800032a:	d90b      	bls.n	8000344 <__udivmoddi4+0x1a4>
 800032c:	eb1c 0404 	adds.w	r4, ip, r4
 8000330:	f108 3aff 	add.w	sl, r8, #4294967295
 8000334:	f080 8099 	bcs.w	800046a <__udivmoddi4+0x2ca>
 8000338:	42a0      	cmp	r0, r4
 800033a:	f240 8096 	bls.w	800046a <__udivmoddi4+0x2ca>
 800033e:	f1a8 0802 	sub.w	r8, r8, #2
 8000342:	4464      	add	r4, ip
 8000344:	1a24      	subs	r4, r4, r0
 8000346:	b298      	uxth	r0, r3
 8000348:	fbb4 f3f9 	udiv	r3, r4, r9
 800034c:	fb09 4413 	mls	r4, r9, r3, r4
 8000350:	fb03 fe0e 	mul.w	lr, r3, lr
 8000354:	ea40 4404 	orr.w	r4, r0, r4, lsl #16
 8000358:	45a6      	cmp	lr, r4
 800035a:	d908      	bls.n	800036e <__udivmoddi4+0x1ce>
 800035c:	eb1c 0404 	adds.w	r4, ip, r4
 8000360:	f103 30ff 	add.w	r0, r3, #4294967295
 8000364:	d27f      	bcs.n	8000466 <__udivmoddi4+0x2c6>
 8000366:	45a6      	cmp	lr, r4
 8000368:	d97d      	bls.n	8000466 <__udivmoddi4+0x2c6>
 800036a:	3b02      	subs	r3, #2
 800036c:	4464      	add	r4, ip
 800036e:	ea43 4008 	orr.w	r0, r3, r8, lsl #16
 8000372:	eba4 040e 	sub.w	r4, r4, lr
 8000376:	fba0 8e02 	umull	r8, lr, r0, r2
 800037a:	4574      	cmp	r4, lr
 800037c:	4643      	mov	r3, r8
 800037e:	46f1      	mov	r9, lr
 8000380:	d361      	bcc.n	8000446 <__udivmoddi4+0x2a6>
 8000382:	d05e      	beq.n	8000442 <__udivmoddi4+0x2a2>
 8000384:	b155      	cbz	r5, 800039c <__udivmoddi4+0x1fc>
 8000386:	1afa      	subs	r2, r7, r3
 8000388:	eb64 0409 	sbc.w	r4, r4, r9
 800038c:	fa04 f606 	lsl.w	r6, r4, r6
 8000390:	fa22 f301 	lsr.w	r3, r2, r1
 8000394:	431e      	orrs	r6, r3
 8000396:	40cc      	lsrs	r4, r1
 8000398:	e9c5 6400 	strd	r6, r4, [r5]
 800039c:	2100      	movs	r1, #0
 800039e:	e74e      	b.n	800023e <__udivmoddi4+0x9e>
 80003a0:	0843      	lsrs	r3, r0, #1
 80003a2:	ea4f 0c51 	mov.w	ip, r1, lsr #1
 80003a6:	ea43 71c1 	orr.w	r1, r3, r1, lsl #31
 80003aa:	0c0a      	lsrs	r2, r1, #16
 80003ac:	ea42 420c 	orr.w	r2, r2, ip, lsl #16
 80003b0:	b28b      	uxth	r3, r1
 80003b2:	07c4      	lsls	r4, r0, #31
 80003b4:	fbb2 f1f6 	udiv	r1, r2, r6
 80003b8:	ea43 4302 	orr.w	r3, r3, r2, lsl #16
 80003bc:	fbbc fcf6 	udiv	ip, ip, r6
 80003c0:	46b6      	mov	lr, r6
 80003c2:	4630      	mov	r0, r6
 80003c4:	4637      	mov	r7, r6
 80003c6:	221f      	movs	r2, #31
 80003c8:	1a18      	subs	r0, r3, r0
 80003ca:	ea41 410c 	orr.w	r1, r1, ip, lsl #16
 80003ce:	e761      	b.n	8000294 <__udivmoddi4+0xf4>
 80003d0:	4671      	mov	r1, lr
 80003d2:	e715      	b.n	8000200 <__udivmoddi4+0x60>
 80003d4:	4618      	mov	r0, r3
 80003d6:	e729      	b.n	800022c <__udivmoddi4+0x8c>
 80003d8:	f1c2 0320 	rsb	r3, r2, #32
 80003dc:	fa21 f003 	lsr.w	r0, r1, r3
 80003e0:	4096      	lsls	r6, r2
 80003e2:	fa24 f303 	lsr.w	r3, r4, r3
 80003e6:	4097      	lsls	r7, r2
 80003e8:	433b      	orrs	r3, r7
 80003ea:	0c37      	lsrs	r7, r6, #16
 80003ec:	fbb0 f8f7 	udiv	r8, r0, r7
 80003f0:	fb07 0018 	mls	r0, r7, r8, r0
 80003f4:	fa1f fe86 	uxth.w	lr, r6
 80003f8:	0c19      	lsrs	r1, r3, #16
 80003fa:	ea41 4100 	orr.w	r1, r1, r0, lsl #16
 80003fe:	fb08 f00e 	mul.w	r0, r8, lr
 8000402:	4288      	cmp	r0, r1
 8000404:	fa04 f402 	lsl.w	r4, r4, r2
 8000408:	d93a      	bls.n	8000480 <__udivmoddi4+0x2e0>
 800040a:	1871      	adds	r1, r6, r1
 800040c:	f108 3cff 	add.w	ip, r8, #4294967295
 8000410:	d201      	bcs.n	8000416 <__udivmoddi4+0x276>
 8000412:	4288      	cmp	r0, r1
 8000414:	d81e      	bhi.n	8000454 <__udivmoddi4+0x2b4>
 8000416:	1a09      	subs	r1, r1, r0
 8000418:	fbb1 f8f7 	udiv	r8, r1, r7
 800041c:	fb08 f00e 	mul.w	r0, r8, lr
 8000420:	fb07 1118 	mls	r1, r7, r8, r1
 8000424:	b29b      	uxth	r3, r3
 8000426:	ea43 4301 	orr.w	r3, r3, r1, lsl #16
 800042a:	4283      	cmp	r3, r0
 800042c:	d22f      	bcs.n	800048e <__udivmoddi4+0x2ee>
 800042e:	18f3      	adds	r3, r6, r3
 8000430:	f108 31ff 	add.w	r1, r8, #4294967295
 8000434:	d2c8      	bcs.n	80003c8 <__udivmoddi4+0x228>
 8000436:	4283      	cmp	r3, r0
 8000438:	d2c6      	bcs.n	80003c8 <__udivmoddi4+0x228>
 800043a:	f1a8 0102 	sub.w	r1, r8, #2
 800043e:	4433      	add	r3, r6
 8000440:	e7c2      	b.n	80003c8 <__udivmoddi4+0x228>
 8000442:	4547      	cmp	r7, r8
 8000444:	d29e      	bcs.n	8000384 <__udivmoddi4+0x1e4>
 8000446:	ebb8 0302 	subs.w	r3, r8, r2
 800044a:	eb6e 0e0c 	sbc.w	lr, lr, ip
 800044e:	3801      	subs	r0, #1
 8000450:	46f1      	mov	r9, lr
 8000452:	e797      	b.n	8000384 <__udivmoddi4+0x1e4>
 8000454:	1a30      	subs	r0, r6, r0
 8000456:	4401      	add	r1, r0
 8000458:	f1a8 0c02 	sub.w	ip, r8, #2
 800045c:	fbb1 f8f7 	udiv	r8, r1, r7
 8000460:	fb08 f00e 	mul.w	r0, r8, lr
 8000464:	e7dc      	b.n	8000420 <__udivmoddi4+0x280>
 8000466:	4603      	mov	r3, r0
 8000468:	e781      	b.n	800036e <__udivmoddi4+0x1ce>
 800046a:	46d0      	mov	r8, sl
 800046c:	e76a      	b.n	8000344 <__udivmoddi4+0x1a4>
 800046e:	4608      	mov	r0, r1
 8000470:	e6fe      	b.n	8000270 <__udivmoddi4+0xd0>
 8000472:	4434      	add	r4, r6
 8000474:	3802      	subs	r0, #2
 8000476:	e734      	b.n	80002e2 <__udivmoddi4+0x142>
 8000478:	f1ac 0c02 	sub.w	ip, ip, #2
 800047c:	4433      	add	r3, r6
 800047e:	e71c      	b.n	80002ba <__udivmoddi4+0x11a>
 8000480:	1a09      	subs	r1, r1, r0
 8000482:	46c4      	mov	ip, r8
 8000484:	fbb1 f8f7 	udiv	r8, r1, r7
 8000488:	fb08 f00e 	mul.w	r0, r8, lr
 800048c:	e7c8      	b.n	8000420 <__udivmoddi4+0x280>
 800048e:	4641      	mov	r1, r8
 8000490:	e79a      	b.n	80003c8 <__udivmoddi4+0x228>
 8000492:	bf00      	nop

08000494 <__aeabi_idiv0>:
 8000494:	4770      	bx	lr
 8000496:	bf00      	nop

08000498 <cli_cmd_builtin_exit>:
  (void)cli_add_command(cli, h_usage, CLI_STR("keys"), cli_cmd_builtin_usage_keys, CLI_PRIV_USER,
                        CLI_MODE_ANY, CLI_STR("Usage Keys"));
}

OPENLIBCLI_API int8_t cli_cmd_builtin_exit(cli_struct_t *cli, const char *cmd, cli_argc_t argc,
                                           const char *argv[]) {
 8000498:	b580      	push	{r7, lr}
 800049a:	b086      	sub	sp, #24
 800049c:	af00      	add	r7, sp, #0
 800049e:	60f8      	str	r0, [r7, #12]
 80004a0:	60b9      	str	r1, [r7, #8]
 80004a2:	607a      	str	r2, [r7, #4]
 80004a4:	603b      	str	r3, [r7, #0]
  int8_t rc = CLI_OK;
 80004a6:	2300      	movs	r3, #0
 80004a8:	75fb      	strb	r3, [r7, #23]

  (void)cmd;
  (void)argc;
  (void)argv;

  if (cli->on_exit_cmd != NULL) {
 80004aa:	68fb      	ldr	r3, [r7, #12]
 80004ac:	f8d3 327c 	ldr.w	r3, [r3, #636]	@ 0x27c
 80004b0:	2b00      	cmp	r3, #0
 80004b2:	d00c      	beq.n	80004ce <cli_cmd_builtin_exit+0x36>
    int8_t hook_rc = cli->on_exit_cmd(cli);
 80004b4:	68fb      	ldr	r3, [r7, #12]
 80004b6:	f8d3 327c 	ldr.w	r3, [r3, #636]	@ 0x27c
 80004ba:	68f8      	ldr	r0, [r7, #12]
 80004bc:	4798      	blx	r3
 80004be:	4603      	mov	r3, r0
 80004c0:	75bb      	strb	r3, [r7, #22]
    if (hook_rc != CLI_OK) {
 80004c2:	f997 3016 	ldrsb.w	r3, [r7, #22]
 80004c6:	2b00      	cmp	r3, #0
 80004c8:	d001      	beq.n	80004ce <cli_cmd_builtin_exit+0x36>
      rc = hook_rc;
 80004ca:	7dbb      	ldrb	r3, [r7, #22]
 80004cc:	75fb      	strb	r3, [r7, #23]
    }
  }

  if (rc != CLI_OK) {
 80004ce:	f997 3017 	ldrsb.w	r3, [r7, #23]
 80004d2:	2b00      	cmp	r3, #0
 80004d4:	d15e      	bne.n	8000594 <cli_cmd_builtin_exit+0xfc>
    /* Hook result takes precedence. */
  } else if (cli->context != CLI_CMD_ROOT) {
 80004d6:	68fb      	ldr	r3, [r7, #12]
 80004d8:	6a5b      	ldr	r3, [r3, #36]	@ 0x24
 80004da:	f113 0f02 	cmn.w	r3, #2
 80004de:	d01a      	beq.n	8000516 <cli_cmd_builtin_exit+0x7e>
    cli->context = cli->cmd_pool[cli->context].parent;
 80004e0:	68fb      	ldr	r3, [r7, #12]
 80004e2:	699a      	ldr	r2, [r3, #24]
 80004e4:	68fb      	ldr	r3, [r7, #12]
 80004e6:	6a5b      	ldr	r3, [r3, #36]	@ 0x24
 80004e8:	4619      	mov	r1, r3
 80004ea:	2364      	movs	r3, #100	@ 0x64
 80004ec:	fb01 f303 	mul.w	r3, r1, r3
 80004f0:	4413      	add	r3, r2
 80004f2:	6d9a      	ldr	r2, [r3, #88]	@ 0x58
 80004f4:	68fb      	ldr	r3, [r7, #12]
 80004f6:	625a      	str	r2, [r3, #36]	@ 0x24
    if (cli->context == CLI_CMD_ROOT && cli->mode >= CLI_MODE_USER_BASE) {
 80004f8:	68fb      	ldr	r3, [r7, #12]
 80004fa:	6a5b      	ldr	r3, [r3, #36]	@ 0x24
 80004fc:	f113 0f02 	cmn.w	r3, #2
 8000500:	d148      	bne.n	8000594 <cli_cmd_builtin_exit+0xfc>
 8000502:	68fb      	ldr	r3, [r7, #12]
 8000504:	f8d3 31a8 	ldr.w	r3, [r3, #424]	@ 0x1a8
 8000508:	2b13      	cmp	r3, #19
 800050a:	dd43      	ble.n	8000594 <cli_cmd_builtin_exit+0xfc>
      cli_set_mode(cli, CLI_MODE_EXEC);
 800050c:	2101      	movs	r1, #1
 800050e:	68f8      	ldr	r0, [r7, #12]
 8000510:	f000 fd38 	bl	8000f84 <cli_set_mode>
 8000514:	e03e      	b.n	8000594 <cli_cmd_builtin_exit+0xfc>
    }
  } else if (cli->mode == cli->mode_login) {
 8000516:	68fb      	ldr	r3, [r7, #12]
 8000518:	f8d3 21a8 	ldr.w	r2, [r3, #424]	@ 0x1a8
 800051c:	68fb      	ldr	r3, [r7, #12]
 800051e:	f8d3 31b0 	ldr.w	r3, [r3, #432]	@ 0x1b0
 8000522:	429a      	cmp	r2, r3
 8000524:	d117      	bne.n	8000556 <cli_cmd_builtin_exit+0xbe>
    switch (cli->exit_root_policy) {
 8000526:	68fb      	ldr	r3, [r7, #12]
 8000528:	f893 3276 	ldrb.w	r3, [r3, #630]	@ 0x276
 800052c:	2b01      	cmp	r3, #1
 800052e:	d002      	beq.n	8000536 <cli_cmd_builtin_exit+0x9e>
 8000530:	2b02      	cmp	r3, #2
 8000532:	d006      	beq.n	8000542 <cli_cmd_builtin_exit+0xaa>
 8000534:	e008      	b.n	8000548 <cli_cmd_builtin_exit+0xb0>
    case CLI_EXIT_ROOT_POLICY_RESET_SESSION:
      cli_restart_session(cli);
 8000536:	68f8      	ldr	r0, [r7, #12]
 8000538:	f000 fb3d 	bl	8000bb6 <cli_restart_session>
      rc = CLI_OK;
 800053c:	2300      	movs	r3, #0
 800053e:	75fb      	strb	r3, [r7, #23]
      break;
 8000540:	e028      	b.n	8000594 <cli_cmd_builtin_exit+0xfc>

    case CLI_EXIT_ROOT_POLICY_IGNORE:
      rc = CLI_OK;
 8000542:	2300      	movs	r3, #0
 8000544:	75fb      	strb	r3, [r7, #23]
      break;
 8000546:	e025      	b.n	8000594 <cli_cmd_builtin_exit+0xfc>

    case CLI_EXIT_ROOT_POLICY_CLOSE_SESSION:
    default:
      cli->session_state = CLI_SESSION_STOP;
 8000548:	68fb      	ldr	r3, [r7, #12]
 800054a:	2203      	movs	r2, #3
 800054c:	f883 2275 	strb.w	r2, [r3, #629]	@ 0x275
      rc = CLI_ERR_QUIT;
 8000550:	23fe      	movs	r3, #254	@ 0xfe
 8000552:	75fb      	strb	r3, [r7, #23]
      break;
 8000554:	e01e      	b.n	8000594 <cli_cmd_builtin_exit+0xfc>
    }
  } else {
    /* Leaving enable mode also drops privilege (mirrors cmd_disable) */
    if (cli->mode == CLI_MODE_ENABLE) {
 8000556:	68fb      	ldr	r3, [r7, #12]
 8000558:	f8d3 31a8 	ldr.w	r3, [r3, #424]	@ 0x1a8
 800055c:	2b02      	cmp	r3, #2
 800055e:	d103      	bne.n	8000568 <cli_cmd_builtin_exit+0xd0>
      cli_set_privilege(cli, CLI_PRIV_USER);
 8000560:	2100      	movs	r1, #0
 8000562:	68f8      	ldr	r0, [r7, #12]
 8000564:	f000 fd34 	bl	8000fd0 <cli_set_privilege>
    }

    /* Drop one mode level */
    cli->mode = cli->mode_prev;
 8000568:	68fb      	ldr	r3, [r7, #12]
 800056a:	f8d3 21ac 	ldr.w	r2, [r3, #428]	@ 0x1ac
 800056e:	68fb      	ldr	r3, [r7, #12]
 8000570:	f8c3 21a8 	str.w	r2, [r3, #424]	@ 0x1a8
    if (cli->on_mode_change != NULL) {
 8000574:	68fb      	ldr	r3, [r7, #12]
 8000576:	f8d3 3278 	ldr.w	r3, [r3, #632]	@ 0x278
 800057a:	2b00      	cmp	r3, #0
 800057c:	d00a      	beq.n	8000594 <cli_cmd_builtin_exit+0xfc>
      cli->on_mode_change(cli, cli->mode, cli->privilege);
 800057e:	68fb      	ldr	r3, [r7, #12]
 8000580:	f8d3 3278 	ldr.w	r3, [r3, #632]	@ 0x278
 8000584:	68fa      	ldr	r2, [r7, #12]
 8000586:	f8d2 11a8 	ldr.w	r1, [r2, #424]	@ 0x1a8
 800058a:	68fa      	ldr	r2, [r7, #12]
 800058c:	f892 2274 	ldrb.w	r2, [r2, #628]	@ 0x274
 8000590:	68f8      	ldr	r0, [r7, #12]
 8000592:	4798      	blx	r3
    }
  }

  return rc;
 8000594:	f997 3017 	ldrsb.w	r3, [r7, #23]
}
 8000598:	4618      	mov	r0, r3
 800059a:	3718      	adds	r7, #24
 800059c:	46bd      	mov	sp, r7
 800059e:	bd80      	pop	{r7, pc}

080005a0 <cli_cmd_builtin_history>:
  return rc;
}

#if CLI_ENABLE_HISTORY
OPENLIBCLI_API int8_t cli_cmd_builtin_history(cli_struct_t *cli, const char *cmd, cli_argc_t argc,
                                              const char *argv[]) {
 80005a0:	b580      	push	{r7, lr}
 80005a2:	b0a4      	sub	sp, #144	@ 0x90
 80005a4:	af02      	add	r7, sp, #8
 80005a6:	60f8      	str	r0, [r7, #12]
 80005a8:	60b9      	str	r1, [r7, #8]
 80005aa:	607a      	str	r2, [r7, #4]
 80005ac:	603b      	str	r3, [r7, #0]
  (void)cmd;
#if !CLI_HISTORY_INDEX_SELECTION
  (void)argv;
  (void)argc;
#endif
  int8_t rc = CLI_OK;
 80005ae:	2300      	movs	r3, #0
 80005b0:	f887 3085 	strb.w	r3, [r7, #133]	@ 0x85

  if (cli->history_count == 0) {
 80005b4:	68fb      	ldr	r3, [r7, #12]
 80005b6:	f9b3 3398 	ldrsh.w	r3, [r3, #920]	@ 0x398
 80005ba:	2b00      	cmp	r3, #0
 80005bc:	d105      	bne.n	80005ca <cli_cmd_builtin_history+0x2a>
    (void)cli_println(cli, "%s", "History is empty.");
 80005be:	4a25      	ldr	r2, [pc, #148]	@ (8000654 <cli_cmd_builtin_history+0xb4>)
 80005c0:	4925      	ldr	r1, [pc, #148]	@ (8000658 <cli_cmd_builtin_history+0xb8>)
 80005c2:	68f8      	ldr	r0, [r7, #12]
 80005c4:	f000 fd66 	bl	8001094 <cli_println_p>
 80005c8:	e03e      	b.n	8000648 <cli_cmd_builtin_history+0xa8>
        rc = CLI_EXEC_REPLAY_INPUT;
      }
    } else
#endif
    {
      for (cli_history_idx_t i = cli->history_count; i > 0; i--) {
 80005ca:	68fb      	ldr	r3, [r7, #12]
 80005cc:	f8b3 3398 	ldrh.w	r3, [r3, #920]	@ 0x398
 80005d0:	f8a7 3086 	strh.w	r3, [r7, #134]	@ 0x86
 80005d4:	e034      	b.n	8000640 <cli_cmd_builtin_history+0xa0>
        cli_history_idx_t idx = cli_history_index(cli, i);
 80005d6:	f9b7 3086 	ldrsh.w	r3, [r7, #134]	@ 0x86
 80005da:	4619      	mov	r1, r3
 80005dc:	68f8      	ldr	r0, [r7, #12]
 80005de:	f001 fbcd 	bl	8001d7c <cli_history_index>
 80005e2:	4603      	mov	r3, r0
 80005e4:	f8a7 3082 	strh.w	r3, [r7, #130]	@ 0x82
        char line[16 + CLI_MAX_INPUT_LEN];
        (void)cli_snprintf(line, sizeof(line), "  %3d  %s", cli->history_count - i + 1,
 80005e8:	68fb      	ldr	r3, [r7, #12]
 80005ea:	f9b3 3398 	ldrsh.w	r3, [r3, #920]	@ 0x398
 80005ee:	461a      	mov	r2, r3
 80005f0:	f9b7 3086 	ldrsh.w	r3, [r7, #134]	@ 0x86
 80005f4:	1ad3      	subs	r3, r2, r3
 80005f6:	1c59      	adds	r1, r3, #1
                           &cli->history_buf[cli->history_off[idx]]);
 80005f8:	f9b7 3082 	ldrsh.w	r3, [r7, #130]	@ 0x82
 80005fc:	68fa      	ldr	r2, [r7, #12]
 80005fe:	f503 73e2 	add.w	r3, r3, #452	@ 0x1c4
 8000602:	005b      	lsls	r3, r3, #1
 8000604:	4413      	add	r3, r2
 8000606:	f9b3 3004 	ldrsh.w	r3, [r3, #4]
        (void)cli_snprintf(line, sizeof(line), "  %3d  %s", cli->history_count - i + 1,
 800060a:	f503 7342 	add.w	r3, r3, #776	@ 0x308
 800060e:	68fa      	ldr	r2, [r7, #12]
 8000610:	4413      	add	r3, r2
 8000612:	3304      	adds	r3, #4
 8000614:	f107 0010 	add.w	r0, r7, #16
 8000618:	9300      	str	r3, [sp, #0]
 800061a:	460b      	mov	r3, r1
 800061c:	4a0f      	ldr	r2, [pc, #60]	@ (800065c <cli_cmd_builtin_history+0xbc>)
 800061e:	2170      	movs	r1, #112	@ 0x70
 8000620:	f000 fe0e 	bl	8001240 <cli_snprintf>
        (void)cli_println(cli, "%s", line);
 8000624:	f107 0310 	add.w	r3, r7, #16
 8000628:	461a      	mov	r2, r3
 800062a:	490b      	ldr	r1, [pc, #44]	@ (8000658 <cli_cmd_builtin_history+0xb8>)
 800062c:	68f8      	ldr	r0, [r7, #12]
 800062e:	f000 fd31 	bl	8001094 <cli_println_p>
      for (cli_history_idx_t i = cli->history_count; i > 0; i--) {
 8000632:	f9b7 3086 	ldrsh.w	r3, [r7, #134]	@ 0x86
 8000636:	b29b      	uxth	r3, r3
 8000638:	3b01      	subs	r3, #1
 800063a:	b29b      	uxth	r3, r3
 800063c:	f8a7 3086 	strh.w	r3, [r7, #134]	@ 0x86
 8000640:	f9b7 3086 	ldrsh.w	r3, [r7, #134]	@ 0x86
 8000644:	2b00      	cmp	r3, #0
 8000646:	dcc6      	bgt.n	80005d6 <cli_cmd_builtin_history+0x36>
      }
    }
  }

  return rc;
 8000648:	f997 3085 	ldrsb.w	r3, [r7, #133]	@ 0x85
}
 800064c:	4618      	mov	r0, r3
 800064e:	3788      	adds	r7, #136	@ 0x88
 8000650:	46bd      	mov	sp, r7
 8000652:	bd80      	pop	{r7, pc}
 8000654:	08006868 	.word	0x08006868
 8000658:	0800687c 	.word	0x0800687c
 800065c:	08006880 	.word	0x08006880

08000660 <cli_cmd_builtin_help>:
#endif /* CLI_ENABLE_HISTORY */

OPENLIBCLI_API int8_t cli_cmd_builtin_help(cli_struct_t *cli, const char *cmd, cli_argc_t argc,
                                           const char *argv[]) {
 8000660:	b580      	push	{r7, lr}
 8000662:	b08c      	sub	sp, #48	@ 0x30
 8000664:	af02      	add	r7, sp, #8
 8000666:	60f8      	str	r0, [r7, #12]
 8000668:	60b9      	str	r1, [r7, #8]
 800066a:	607a      	str	r2, [r7, #4]
 800066c:	603b      	str	r3, [r7, #0]
  (void)cmd;

  int8_t rc = CLI_OK;
 800066e:	2300      	movs	r3, #0
 8000670:	f887 3027 	strb.w	r3, [r7, #39]	@ 0x27

  cli_cmd_handle_t parent = cli_menu_context_parent(cli);
 8000674:	68f8      	ldr	r0, [r7, #12]
 8000676:	f001 feee 	bl	8002456 <cli_menu_context_parent>
 800067a:	6238      	str	r0, [r7, #32]

  if (argc > 1) {
 800067c:	687b      	ldr	r3, [r7, #4]
 800067e:	2b01      	cmp	r3, #1
 8000680:	dd31      	ble.n	80006e6 <cli_cmd_builtin_help+0x86>
    cli_cmd_handle_t h;
    for (cli_argc_t i = 1; i < argc; i++) {
 8000682:	2301      	movs	r3, #1
 8000684:	61fb      	str	r3, [r7, #28]
 8000686:	e02a      	b.n	80006de <cli_cmd_builtin_help+0x7e>
      int8_t r = cli_resolve_one(cli, argv[i], parent, &h);
 8000688:	69fb      	ldr	r3, [r7, #28]
 800068a:	009b      	lsls	r3, r3, #2
 800068c:	683a      	ldr	r2, [r7, #0]
 800068e:	4413      	add	r3, r2
 8000690:	6819      	ldr	r1, [r3, #0]
 8000692:	f107 0314 	add.w	r3, r7, #20
 8000696:	6a3a      	ldr	r2, [r7, #32]
 8000698:	68f8      	ldr	r0, [r7, #12]
 800069a:	f001 fd97 	bl	80021cc <cli_resolve_one>
 800069e:	4603      	mov	r3, r0
 80006a0:	76fb      	strb	r3, [r7, #27]
      if (r != CLI_OK) {
 80006a2:	f997 301b 	ldrsb.w	r3, [r7, #27]
 80006a6:	2b00      	cmp	r3, #0
 80006a8:	d014      	beq.n	80006d4 <cli_cmd_builtin_help+0x74>
        if (r == CLI_ERR) {
 80006aa:	f997 301b 	ldrsb.w	r3, [r7, #27]
 80006ae:	f1b3 3fff 	cmp.w	r3, #4294967295
 80006b2:	d107      	bne.n	80006c4 <cli_cmd_builtin_help+0x64>
          CLI_WSTR(cli, "% Unknown command.\r\n");
 80006b4:	491b      	ldr	r1, [pc, #108]	@ (8000724 <cli_cmd_builtin_help+0xc4>)
 80006b6:	68f8      	ldr	r0, [r7, #12]
 80006b8:	f000 fe77 	bl	80013aa <cli_write_str>
          rc = CLI_ERR;
 80006bc:	23ff      	movs	r3, #255	@ 0xff
 80006be:	f887 3027 	strb.w	r3, [r7, #39]	@ 0x27
        } else {
          CLI_WSTR(cli, "% Ambiguous command.\r\n");
          rc = CLI_ERR_AMBIG;
        }
        break;
 80006c2:	e010      	b.n	80006e6 <cli_cmd_builtin_help+0x86>
          CLI_WSTR(cli, "% Ambiguous command.\r\n");
 80006c4:	4918      	ldr	r1, [pc, #96]	@ (8000728 <cli_cmd_builtin_help+0xc8>)
 80006c6:	68f8      	ldr	r0, [r7, #12]
 80006c8:	f000 fe6f 	bl	80013aa <cli_write_str>
          rc = CLI_ERR_AMBIG;
 80006cc:	23fb      	movs	r3, #251	@ 0xfb
 80006ce:	f887 3027 	strb.w	r3, [r7, #39]	@ 0x27
        break;
 80006d2:	e008      	b.n	80006e6 <cli_cmd_builtin_help+0x86>
      }
      parent = h;
 80006d4:	697b      	ldr	r3, [r7, #20]
 80006d6:	623b      	str	r3, [r7, #32]
    for (cli_argc_t i = 1; i < argc; i++) {
 80006d8:	69fb      	ldr	r3, [r7, #28]
 80006da:	3301      	adds	r3, #1
 80006dc:	61fb      	str	r3, [r7, #28]
 80006de:	69fa      	ldr	r2, [r7, #28]
 80006e0:	687b      	ldr	r3, [r7, #4]
 80006e2:	429a      	cmp	r2, r3
 80006e4:	dbd0      	blt.n	8000688 <cli_cmd_builtin_help+0x28>
    }
  }

  if (rc == CLI_OK) {
 80006e6:	f997 3027 	ldrsb.w	r3, [r7, #39]	@ 0x27
 80006ea:	2b00      	cmp	r3, #0
 80006ec:	d114      	bne.n	8000718 <cli_cmd_builtin_help+0xb8>
    bool any = (bool)false;
 80006ee:	2300      	movs	r3, #0
 80006f0:	74fb      	strb	r3, [r7, #19]
    cli_foreach_match(cli, "", parent, cli_print_help_cb, &any);
 80006f2:	f107 0313 	add.w	r3, r7, #19
 80006f6:	9300      	str	r3, [sp, #0]
 80006f8:	4b0c      	ldr	r3, [pc, #48]	@ (800072c <cli_cmd_builtin_help+0xcc>)
 80006fa:	6a3a      	ldr	r2, [r7, #32]
 80006fc:	490c      	ldr	r1, [pc, #48]	@ (8000730 <cli_cmd_builtin_help+0xd0>)
 80006fe:	68f8      	ldr	r0, [r7, #12]
 8000700:	f001 fcf6 	bl	80020f0 <cli_foreach_match>
    if (!any) {
 8000704:	7cfb      	ldrb	r3, [r7, #19]
 8000706:	f083 0301 	eor.w	r3, r3, #1
 800070a:	b2db      	uxtb	r3, r3
 800070c:	2b00      	cmp	r3, #0
 800070e:	d003      	beq.n	8000718 <cli_cmd_builtin_help+0xb8>
      CLI_WSTR(cli, "  <cr>\r\n");
 8000710:	4908      	ldr	r1, [pc, #32]	@ (8000734 <cli_cmd_builtin_help+0xd4>)
 8000712:	68f8      	ldr	r0, [r7, #12]
 8000714:	f000 fe49 	bl	80013aa <cli_write_str>
    }
  }

  return rc;
 8000718:	f997 3027 	ldrsb.w	r3, [r7, #39]	@ 0x27
}
 800071c:	4618      	mov	r0, r3
 800071e:	3728      	adds	r7, #40	@ 0x28
 8000720:	46bd      	mov	sp, r7
 8000722:	bd80      	pop	{r7, pc}
 8000724:	0800688c 	.word	0x0800688c
 8000728:	080068a4 	.word	0x080068a4
 800072c:	08002029 	.word	0x08002029
 8000730:	080068bc 	.word	0x080068bc
 8000734:	080068c0 	.word	0x080068c0

08000738 <cli_cmd_builtin_clear_screen>:

OPENLIBCLI_API int8_t cli_cmd_builtin_clear_screen(cli_struct_t *cli, const char *cmd,
                                                   cli_argc_t argc, const char *argv[]) {
 8000738:	b580      	push	{r7, lr}
 800073a:	b086      	sub	sp, #24
 800073c:	af00      	add	r7, sp, #0
 800073e:	60f8      	str	r0, [r7, #12]
 8000740:	60b9      	str	r1, [r7, #8]
 8000742:	607a      	str	r2, [r7, #4]
 8000744:	603b      	str	r3, [r7, #0]
  (void)cmd;
  (void)argc;
  (void)argv;

  int8_t rc = CLI_OK;
 8000746:	2300      	movs	r3, #0
 8000748:	75fb      	strb	r3, [r7, #23]

  /* ANSI clear screen + cursor home */
  if (cli->ansi_supported) {
 800074a:	68fb      	ldr	r3, [r7, #12]
 800074c:	f893 3429 	ldrb.w	r3, [r3, #1065]	@ 0x429
 8000750:	2b00      	cmp	r3, #0
 8000752:	d004      	beq.n	800075e <cli_cmd_builtin_clear_screen+0x26>
    CLI_WSTR(cli, "\x1b"
 8000754:	4907      	ldr	r1, [pc, #28]	@ (8000774 <cli_cmd_builtin_clear_screen+0x3c>)
 8000756:	68f8      	ldr	r0, [r7, #12]
 8000758:	f000 fe27 	bl	80013aa <cli_write_str>
 800075c:	e004      	b.n	8000768 <cli_cmd_builtin_clear_screen+0x30>
                  "[2J\x1b"
                  "[H");
  } else {
    (void)cli_println(cli, "%s", "Clear not supported on Non-ANSI/VT100 Terminals");
 800075e:	4a06      	ldr	r2, [pc, #24]	@ (8000778 <cli_cmd_builtin_clear_screen+0x40>)
 8000760:	4906      	ldr	r1, [pc, #24]	@ (800077c <cli_cmd_builtin_clear_screen+0x44>)
 8000762:	68f8      	ldr	r0, [r7, #12]
 8000764:	f000 fc96 	bl	8001094 <cli_println_p>
  }

  return rc;
 8000768:	f997 3017 	ldrsb.w	r3, [r7, #23]
}
 800076c:	4618      	mov	r0, r3
 800076e:	3718      	adds	r7, #24
 8000770:	46bd      	mov	sp, r7
 8000772:	bd80      	pop	{r7, pc}
 8000774:	080068cc 	.word	0x080068cc
 8000778:	080068d4 	.word	0x080068d4
 800077c:	0800687c 	.word	0x0800687c

08000780 <cli_start>:
  return rc;
}

/* Session State Machine ----------------------------------------------------------------*/

OPENLIBCLI_API void cli_start(cli_struct_t *cli) {
 8000780:	b580      	push	{r7, lr}
 8000782:	b082      	sub	sp, #8
 8000784:	af00      	add	r7, sp, #0
 8000786:	6078      	str	r0, [r7, #4]
  if (cli != NULL) {
 8000788:	687b      	ldr	r3, [r7, #4]
 800078a:	2b00      	cmp	r3, #0
 800078c:	d006      	beq.n	800079c <cli_start+0x1c>
    cli->session_state = CLI_SESSION_INIT;
 800078e:	687b      	ldr	r3, [r7, #4]
 8000790:	2200      	movs	r2, #0
 8000792:	f883 2275 	strb.w	r2, [r3, #629]	@ 0x275

    cli_flush(cli);
 8000796:	6878      	ldr	r0, [r7, #4]
 8000798:	f000 fe2c 	bl	80013f4 <cli_flush>
  }
}
 800079c:	bf00      	nop
 800079e:	3708      	adds	r7, #8
 80007a0:	46bd      	mov	sp, r7
 80007a2:	bd80      	pop	{r7, pc}

080007a4 <cli_session_engine>:

OPENLIBCLI_API int8_t cli_session_engine(cli_struct_t *cli) {
 80007a4:	b580      	push	{r7, lr}
 80007a6:	b08a      	sub	sp, #40	@ 0x28
 80007a8:	af00      	add	r7, sp, #0
 80007aa:	6078      	str	r0, [r7, #4]
#if CLI_ENABLE_TIMMING_STATS
  uint32_t t0 = cli->micros_source ? cli->micros_source(cli->micros_source_ctx) : 0U;
#endif
  int8_t result = CLI_OK;
 80007ac:	2300      	movs	r3, #0
 80007ae:	f887 3027 	strb.w	r3, [r7, #39]	@ 0x27
  bool active = (bool)true;
 80007b2:	2301      	movs	r3, #1
 80007b4:	f887 3026 	strb.w	r3, [r7, #38]	@ 0x26

  // cli_println(cli, "DEBUG::%d %d\n", active, cli->session_state);

  if (cli->session_state == CLI_SESSION_STOP) {
 80007b8:	687b      	ldr	r3, [r7, #4]
 80007ba:	f893 3275 	ldrb.w	r3, [r3, #629]	@ 0x275
 80007be:	2b03      	cmp	r3, #3
 80007c0:	d106      	bne.n	80007d0 <cli_session_engine+0x2c>
    result = CLI_ERR_QUIT;
 80007c2:	23fe      	movs	r3, #254	@ 0xfe
 80007c4:	f887 3027 	strb.w	r3, [r7, #39]	@ 0x27
    active = (bool)false;
 80007c8:	2300      	movs	r3, #0
 80007ca:	f887 3026 	strb.w	r3, [r7, #38]	@ 0x26
 80007ce:	e11f      	b.n	8000a10 <cli_session_engine+0x26c>
  } else if (cli->session_state == CLI_SESSION_INIT) {
 80007d0:	687b      	ldr	r3, [r7, #4]
 80007d2:	f893 3275 	ldrb.w	r3, [r3, #629]	@ 0x275
 80007d6:	2b00      	cmp	r3, #0
 80007d8:	d104      	bne.n	80007e4 <cli_session_engine+0x40>
    cli->session_state = CLI_SESSION_SHOW_BANNER;
 80007da:	687b      	ldr	r3, [r7, #4]
 80007dc:	2201      	movs	r2, #1
 80007de:	f883 2275 	strb.w	r2, [r3, #629]	@ 0x275
 80007e2:	e115      	b.n	8000a10 <cli_session_engine+0x26c>
  } else if (cli->session_state == CLI_SESSION_SHOW_BANNER) {
 80007e4:	687b      	ldr	r3, [r7, #4]
 80007e6:	f893 3275 	ldrb.w	r3, [r3, #629]	@ 0x275
 80007ea:	2b01      	cmp	r3, #1
 80007ec:	d12f      	bne.n	800084e <cli_session_engine+0xaa>
#if CLI_ENABLE_BANNER
    if (cli->banner[0] != '\0') {
 80007ee:	687b      	ldr	r3, [r7, #4]
 80007f0:	f893 3040 	ldrb.w	r3, [r3, #64]	@ 0x40
 80007f4:	2b00      	cmp	r3, #0
 80007f6:	d00d      	beq.n	8000814 <cli_session_engine+0x70>
      CLI_WSTR(cli, "\r\n");
 80007f8:	4988      	ldr	r1, [pc, #544]	@ (8000a1c <cli_session_engine+0x278>)
 80007fa:	6878      	ldr	r0, [r7, #4]
 80007fc:	f000 fdd5 	bl	80013aa <cli_write_str>
      cli_write_str(cli, cli->banner);
 8000800:	687b      	ldr	r3, [r7, #4]
 8000802:	3340      	adds	r3, #64	@ 0x40
 8000804:	4619      	mov	r1, r3
 8000806:	6878      	ldr	r0, [r7, #4]
 8000808:	f000 fdcf 	bl	80013aa <cli_write_str>
      CLI_WSTR(cli, "\r\n");
 800080c:	4983      	ldr	r1, [pc, #524]	@ (8000a1c <cli_session_engine+0x278>)
 800080e:	6878      	ldr	r0, [r7, #4]
 8000810:	f000 fdcb 	bl	80013aa <cli_write_str>
    }
#endif

#if CLI_ENABLE_AUTH
    if (cli->require_auth) {
 8000814:	687b      	ldr	r3, [r7, #4]
 8000816:	f893 32ec 	ldrb.w	r3, [r3, #748]	@ 0x2ec
 800081a:	2b00      	cmp	r3, #0
 800081c:	d00f      	beq.n	800083e <cli_session_engine+0x9a>
      cli->auth_attempts = 0;
 800081e:	687b      	ldr	r3, [r7, #4]
 8000820:	2200      	movs	r2, #0
 8000822:	f8c3 22dc 	str.w	r2, [r3, #732]	@ 0x2dc
      cli->auth_lockout_started_ts = 0UL;
 8000826:	687b      	ldr	r3, [r7, #4]
 8000828:	2200      	movs	r2, #0
 800082a:	f8c3 22e8 	str.w	r2, [r3, #744]	@ 0x2e8
      cli_auth_prompt_username(cli);
 800082e:	6878      	ldr	r0, [r7, #4]
 8000830:	f002 fd62 	bl	80032f8 <cli_auth_prompt_username>
      cli->session_state = CLI_SESSION_RUN;
 8000834:	687b      	ldr	r3, [r7, #4]
 8000836:	2202      	movs	r2, #2
 8000838:	f883 2275 	strb.w	r2, [r3, #629]	@ 0x275
 800083c:	e0e8      	b.n	8000a10 <cli_session_engine+0x26c>
    } else {
      cli->session_state = CLI_SESSION_RUN;
 800083e:	687b      	ldr	r3, [r7, #4]
 8000840:	2202      	movs	r2, #2
 8000842:	f883 2275 	strb.w	r2, [r3, #629]	@ 0x275
      cli_show_prompt(cli);
 8000846:	6878      	ldr	r0, [r7, #4]
 8000848:	f001 f8cf 	bl	80019ea <cli_show_prompt>
 800084c:	e0e0      	b.n	8000a10 <cli_session_engine+0x26c>
    }
#else
    cli->session_state = CLI_SESSION_RUN;
    cli_show_prompt(cli);
#endif
  } else if (cli->session_state == CLI_SESSION_RUN && active) {
 800084e:	687b      	ldr	r3, [r7, #4]
 8000850:	f893 3275 	ldrb.w	r3, [r3, #629]	@ 0x275
 8000854:	2b02      	cmp	r3, #2
 8000856:	f040 80db 	bne.w	8000a10 <cli_session_engine+0x26c>
 800085a:	f897 3026 	ldrb.w	r3, [r7, #38]	@ 0x26
 800085e:	2b00      	cmp	r3, #0
 8000860:	f000 80d6 	beq.w	8000a10 <cli_session_engine+0x26c>
#if CLI_ENABLE_PERIODIC_CALLBACK
    if (cli->periodic_cb != NULL && cli->periodic_interval > 0UL && cli->time_source != NULL) {
 8000864:	687b      	ldr	r3, [r7, #4]
 8000866:	f8d3 3414 	ldr.w	r3, [r3, #1044]	@ 0x414
 800086a:	2b00      	cmp	r3, #0
 800086c:	d037      	beq.n	80008de <cli_session_engine+0x13a>
 800086e:	687b      	ldr	r3, [r7, #4]
 8000870:	f8d3 340c 	ldr.w	r3, [r3, #1036]	@ 0x40c
 8000874:	2b00      	cmp	r3, #0
 8000876:	d032      	beq.n	80008de <cli_session_engine+0x13a>
 8000878:	687b      	ldr	r3, [r7, #4]
 800087a:	f8d3 3418 	ldr.w	r3, [r3, #1048]	@ 0x418
 800087e:	2b00      	cmp	r3, #0
 8000880:	d02d      	beq.n	80008de <cli_session_engine+0x13a>
      uint32_t now = cli->time_source(cli->time_source_ctx);
 8000882:	687b      	ldr	r3, [r7, #4]
 8000884:	f8d3 3418 	ldr.w	r3, [r3, #1048]	@ 0x418
 8000888:	687a      	ldr	r2, [r7, #4]
 800088a:	f8d2 241c 	ldr.w	r2, [r2, #1052]	@ 0x41c
 800088e:	4610      	mov	r0, r2
 8000890:	4798      	blx	r3
 8000892:	61b8      	str	r0, [r7, #24]
      uint32_t elapsed = (now - cli->last_periodic_ts);
 8000894:	687b      	ldr	r3, [r7, #4]
 8000896:	f8d3 3410 	ldr.w	r3, [r3, #1040]	@ 0x410
 800089a:	69ba      	ldr	r2, [r7, #24]
 800089c:	1ad3      	subs	r3, r2, r3
 800089e:	617b      	str	r3, [r7, #20]
      if (elapsed >= cli->periodic_interval) {
 80008a0:	687b      	ldr	r3, [r7, #4]
 80008a2:	f8d3 340c 	ldr.w	r3, [r3, #1036]	@ 0x40c
 80008a6:	697a      	ldr	r2, [r7, #20]
 80008a8:	429a      	cmp	r2, r3
 80008aa:	d318      	bcc.n	80008de <cli_session_engine+0x13a>
        cli->last_periodic_ts = now;
 80008ac:	687b      	ldr	r3, [r7, #4]
 80008ae:	69ba      	ldr	r2, [r7, #24]
 80008b0:	f8c3 2410 	str.w	r2, [r3, #1040]	@ 0x410
        int8_t rr = cli->periodic_cb(cli);
 80008b4:	687b      	ldr	r3, [r7, #4]
 80008b6:	f8d3 3414 	ldr.w	r3, [r3, #1044]	@ 0x414
 80008ba:	6878      	ldr	r0, [r7, #4]
 80008bc:	4798      	blx	r3
 80008be:	4603      	mov	r3, r0
 80008c0:	74fb      	strb	r3, [r7, #19]
        if (rr != CLI_OK) {
 80008c2:	f997 3013 	ldrsb.w	r3, [r7, #19]
 80008c6:	2b00      	cmp	r3, #0
 80008c8:	d009      	beq.n	80008de <cli_session_engine+0x13a>
          cli->session_state = CLI_SESSION_STOP;
 80008ca:	687b      	ldr	r3, [r7, #4]
 80008cc:	2203      	movs	r2, #3
 80008ce:	f883 2275 	strb.w	r2, [r3, #629]	@ 0x275
          result = rr;
 80008d2:	7cfb      	ldrb	r3, [r7, #19]
 80008d4:	f887 3027 	strb.w	r3, [r7, #39]	@ 0x27
          active = (bool)false;
 80008d8:	2300      	movs	r3, #0
 80008da:	f887 3026 	strb.w	r3, [r7, #38]	@ 0x26
      }
    }
#endif

#if CLI_ENABLE_IDLE_TIMEOUT
    if (active) {
 80008de:	f897 3026 	ldrb.w	r3, [r7, #38]	@ 0x26
 80008e2:	2b00      	cmp	r3, #0
 80008e4:	d012      	beq.n	800090c <cli_session_engine+0x168>
      int8_t timeout_rc = cli_check_idle_timeout(cli);
 80008e6:	6878      	ldr	r0, [r7, #4]
 80008e8:	f000 f9f9 	bl	8000cde <cli_check_idle_timeout>
 80008ec:	4603      	mov	r3, r0
 80008ee:	74bb      	strb	r3, [r7, #18]
      if (timeout_rc != CLI_OK) {
 80008f0:	f997 3012 	ldrsb.w	r3, [r7, #18]
 80008f4:	2b00      	cmp	r3, #0
 80008f6:	d009      	beq.n	800090c <cli_session_engine+0x168>
        cli->session_state = CLI_SESSION_STOP;
 80008f8:	687b      	ldr	r3, [r7, #4]
 80008fa:	2203      	movs	r2, #3
 80008fc:	f883 2275 	strb.w	r2, [r3, #629]	@ 0x275
        result = timeout_rc;
 8000900:	7cbb      	ldrb	r3, [r7, #18]
 8000902:	f887 3027 	strb.w	r3, [r7, #39]	@ 0x27
        active = (bool)false;
 8000906:	2300      	movs	r3, #0
 8000908:	f887 3026 	strb.w	r3, [r7, #38]	@ 0x26
      }
    }
#endif

#if CLI_ENABLE_AUTH
    if (active && cli->auth_state == CLI_AUTH_LOCKOUT) {
 800090c:	f897 3026 	ldrb.w	r3, [r7, #38]	@ 0x26
 8000910:	2b00      	cmp	r3, #0
 8000912:	d01c      	beq.n	800094e <cli_session_engine+0x1aa>
 8000914:	687b      	ldr	r3, [r7, #4]
 8000916:	f893 3284 	ldrb.w	r3, [r3, #644]	@ 0x284
 800091a:	2b04      	cmp	r3, #4
 800091c:	d117      	bne.n	800094e <cli_session_engine+0x1aa>
      if (cli_auth_lockout_expired(cli)) {
 800091e:	6878      	ldr	r0, [r7, #4]
 8000920:	f002 fd02 	bl	8003328 <cli_auth_lockout_expired>
 8000924:	4603      	mov	r3, r0
 8000926:	2b00      	cmp	r3, #0
 8000928:	d00e      	beq.n	8000948 <cli_session_engine+0x1a4>
        cli->auth_attempts = 0;
 800092a:	687b      	ldr	r3, [r7, #4]
 800092c:	2200      	movs	r2, #0
 800092e:	f8c3 22dc 	str.w	r2, [r3, #732]	@ 0x2dc
        cli->auth_lockout_started_ts = 0UL;
 8000932:	687b      	ldr	r3, [r7, #4]
 8000934:	2200      	movs	r2, #0
 8000936:	f8c3 22e8 	str.w	r2, [r3, #744]	@ 0x2e8
        cli_auth_reset_work(cli);
 800093a:	6878      	ldr	r0, [r7, #4]
 800093c:	f002 fccc 	bl	80032d8 <cli_auth_reset_work>
        cli_auth_prompt_username(cli);
 8000940:	6878      	ldr	r0, [r7, #4]
 8000942:	f002 fcd9 	bl	80032f8 <cli_auth_prompt_username>
 8000946:	e002      	b.n	800094e <cli_session_engine+0x1aa>
      } else {
        active = (bool)false;
 8000948:	2300      	movs	r3, #0
 800094a:	f887 3026 	strb.w	r3, [r7, #38]	@ 0x26
      }
    }
#endif

    if (active) {
 800094e:	f897 3026 	ldrb.w	r3, [r7, #38]	@ 0x26
 8000952:	2b00      	cmp	r3, #0
 8000954:	d05c      	beq.n	8000a10 <cli_session_engine+0x26c>
      cli_transport_ret_t b;
      cli_transport_ret_t available_rc = CLI_ERR;
 8000956:	f04f 33ff 	mov.w	r3, #4294967295
 800095a:	623b      	str	r3, [r7, #32]
      int8_t rc;
      bool keep_going = (bool)true;
 800095c:	2301      	movs	r3, #1
 800095e:	77bb      	strb	r3, [r7, #30]

      // cli_println(cli, "DEBUG: I am running...");
      while (keep_going) {
 8000960:	e049      	b.n	80009f6 <cli_session_engine+0x252>
        available_rc = cli->transport.available(cli->transport.ctx);
 8000962:	687b      	ldr	r3, [r7, #4]
 8000964:	685b      	ldr	r3, [r3, #4]
 8000966:	687a      	ldr	r2, [r7, #4]
 8000968:	6952      	ldr	r2, [r2, #20]
 800096a:	4610      	mov	r0, r2
 800096c:	4798      	blx	r3
 800096e:	6238      	str	r0, [r7, #32]
        if (available_rc <= 0) {
 8000970:	6a3b      	ldr	r3, [r7, #32]
 8000972:	2b00      	cmp	r3, #0
 8000974:	dc02      	bgt.n	800097c <cli_session_engine+0x1d8>
          keep_going = (bool)false;
 8000976:	2300      	movs	r3, #0
 8000978:	77bb      	strb	r3, [r7, #30]
 800097a:	e03c      	b.n	80009f6 <cli_session_engine+0x252>
        } else {
          b = cli->transport.read(cli->transport.ctx);
 800097c:	687b      	ldr	r3, [r7, #4]
 800097e:	689b      	ldr	r3, [r3, #8]
 8000980:	687a      	ldr	r2, [r7, #4]
 8000982:	6952      	ldr	r2, [r2, #20]
 8000984:	4610      	mov	r0, r2
 8000986:	4798      	blx	r3
 8000988:	60f8      	str	r0, [r7, #12]
          if (b < 0) {
 800098a:	68fb      	ldr	r3, [r7, #12]
 800098c:	2b00      	cmp	r3, #0
 800098e:	da0c      	bge.n	80009aa <cli_session_engine+0x206>
            cli->session_state = CLI_SESSION_STOP;
 8000990:	687b      	ldr	r3, [r7, #4]
 8000992:	2203      	movs	r2, #3
 8000994:	f883 2275 	strb.w	r2, [r3, #629]	@ 0x275
            result = CLI_ERR;
 8000998:	23ff      	movs	r3, #255	@ 0xff
 800099a:	f887 3027 	strb.w	r3, [r7, #39]	@ 0x27
            active = (bool)false;
 800099e:	2300      	movs	r3, #0
 80009a0:	f887 3026 	strb.w	r3, [r7, #38]	@ 0x26
            keep_going = (bool)false;
 80009a4:	2300      	movs	r3, #0
 80009a6:	77bb      	strb	r3, [r7, #30]
 80009a8:	e025      	b.n	80009f6 <cli_session_engine+0x252>
          } else {
            // cli_println(cli, "DEBUG: T bytes read:%d", read_rc);
            cli_touch_activity_internal(cli);
 80009aa:	6878      	ldr	r0, [r7, #4]
 80009ac:	f000 fd34 	bl	8001418 <cli_touch_activity_internal>

#if CLI_ENABLE_AUTH
            if (cli_state_is_auth_input(cli)) {
 80009b0:	6878      	ldr	r0, [r7, #4]
 80009b2:	f002 fcee 	bl	8003392 <cli_state_is_auth_input>
 80009b6:	4603      	mov	r3, r0
 80009b8:	2b00      	cmp	r3, #0
 80009ba:	d006      	beq.n	80009ca <cli_session_engine+0x226>
              rc = cli_auth_handle(cli, b);
 80009bc:	68f9      	ldr	r1, [r7, #12]
 80009be:	6878      	ldr	r0, [r7, #4]
 80009c0:	f002 fe9c 	bl	80036fc <cli_auth_handle>
 80009c4:	4603      	mov	r3, r0
 80009c6:	77fb      	strb	r3, [r7, #31]
 80009c8:	e005      	b.n	80009d6 <cli_session_engine+0x232>
            } else
#endif
            {
              rc = cli_feed(cli, b);
 80009ca:	68f9      	ldr	r1, [r7, #12]
 80009cc:	6878      	ldr	r0, [r7, #4]
 80009ce:	f002 f8d9 	bl	8002b84 <cli_feed>
 80009d2:	4603      	mov	r3, r0
 80009d4:	77fb      	strb	r3, [r7, #31]
            }
            if (rc != CLI_OK) {
 80009d6:	f997 301f 	ldrsb.w	r3, [r7, #31]
 80009da:	2b00      	cmp	r3, #0
 80009dc:	d00b      	beq.n	80009f6 <cli_session_engine+0x252>
              cli->session_state = CLI_SESSION_STOP;
 80009de:	687b      	ldr	r3, [r7, #4]
 80009e0:	2203      	movs	r2, #3
 80009e2:	f883 2275 	strb.w	r2, [r3, #629]	@ 0x275
              result = rc;
 80009e6:	7ffb      	ldrb	r3, [r7, #31]
 80009e8:	f887 3027 	strb.w	r3, [r7, #39]	@ 0x27
              active = (bool)false;
 80009ec:	2300      	movs	r3, #0
 80009ee:	f887 3026 	strb.w	r3, [r7, #38]	@ 0x26
              keep_going = (bool)false;
 80009f2:	2300      	movs	r3, #0
 80009f4:	77bb      	strb	r3, [r7, #30]
      while (keep_going) {
 80009f6:	7fbb      	ldrb	r3, [r7, #30]
 80009f8:	2b00      	cmp	r3, #0
 80009fa:	d1b2      	bne.n	8000962 <cli_session_engine+0x1be>
            }
          }
        }
      }

      if (available_rc < 0) {
 80009fc:	6a3b      	ldr	r3, [r7, #32]
 80009fe:	2b00      	cmp	r3, #0
 8000a00:	da06      	bge.n	8000a10 <cli_session_engine+0x26c>
        cli->session_state = CLI_SESSION_STOP;
 8000a02:	687b      	ldr	r3, [r7, #4]
 8000a04:	2203      	movs	r2, #3
 8000a06:	f883 2275 	strb.w	r2, [r3, #629]	@ 0x275
        result = CLI_ERR;
 8000a0a:	23ff      	movs	r3, #255	@ 0xff
 8000a0c:	f887 3027 	strb.w	r3, [r7, #39]	@ 0x27
    int32_t new_avg = (int32_t)s->avg_us + avg_delta;
    s->avg_us = (uint32_t)new_avg;
  }
#endif /* CLI_ENABLE_TIMMING_STATS */

  return result;
 8000a10:	f997 3027 	ldrsb.w	r3, [r7, #39]	@ 0x27
}
 8000a14:	4618      	mov	r0, r3
 8000a16:	3728      	adds	r7, #40	@ 0x28
 8000a18:	46bd      	mov	sp, r7
 8000a1a:	bd80      	pop	{r7, pc}
 8000a1c:	08006b24 	.word	0x08006b24

08000a20 <cli_init>:
}

OPENLIBCLI_API void cli_init(cli_struct_t *cli, const char *hostname,
                             const cli_transport_struct_t *transport,
                             const cli_platform_struct_t *platform, cli_cmd_struct_t *cmd_pool,
                             cli_poolsize_t cmd_pool_size) {
 8000a20:	b5b0      	push	{r4, r5, r7, lr}
 8000a22:	b084      	sub	sp, #16
 8000a24:	af00      	add	r7, sp, #0
 8000a26:	60f8      	str	r0, [r7, #12]
 8000a28:	60b9      	str	r1, [r7, #8]
 8000a2a:	607a      	str	r2, [r7, #4]
 8000a2c:	603b      	str	r3, [r7, #0]
  (void)memset(cli, 0, sizeof(*cli));
 8000a2e:	f240 423c 	movw	r2, #1084	@ 0x43c
 8000a32:	2100      	movs	r1, #0
 8000a34:	68f8      	ldr	r0, [r7, #12]
 8000a36:	f005 f9ee 	bl	8005e16 <memset>
  cli->context = CLI_CMD_ROOT;
 8000a3a:	68fb      	ldr	r3, [r7, #12]
 8000a3c:	f06f 0201 	mvn.w	r2, #1
 8000a40:	625a      	str	r2, [r3, #36]	@ 0x24
  cli->cmd_pool = cmd_pool;
 8000a42:	68fb      	ldr	r3, [r7, #12]
 8000a44:	6a3a      	ldr	r2, [r7, #32]
 8000a46:	619a      	str	r2, [r3, #24]
  cli->cmd_pool_size = cmd_pool_size;
 8000a48:	68fb      	ldr	r3, [r7, #12]
 8000a4a:	6a7a      	ldr	r2, [r7, #36]	@ 0x24
 8000a4c:	61da      	str	r2, [r3, #28]
  cli->cmd_pool_count = 0;
 8000a4e:	68fb      	ldr	r3, [r7, #12]
 8000a50:	2200      	movs	r2, #0
 8000a52:	621a      	str	r2, [r3, #32]
  cli->session_state = CLI_SESSION_STOP;
 8000a54:	68fb      	ldr	r3, [r7, #12]
 8000a56:	2203      	movs	r2, #3
 8000a58:	f883 2275 	strb.w	r2, [r3, #629]	@ 0x275
  cli->mode = CLI_MODE_EXEC;
 8000a5c:	68fb      	ldr	r3, [r7, #12]
 8000a5e:	2201      	movs	r2, #1
 8000a60:	f8c3 21a8 	str.w	r2, [r3, #424]	@ 0x1a8
  cli->mode_prev = CLI_MODE_EXEC;
 8000a64:	68fb      	ldr	r3, [r7, #12]
 8000a66:	2201      	movs	r2, #1
 8000a68:	f8c3 21ac 	str.w	r2, [r3, #428]	@ 0x1ac
  cli->mode_login = CLI_MODE_EXEC;
 8000a6c:	68fb      	ldr	r3, [r7, #12]
 8000a6e:	2201      	movs	r2, #1
 8000a70:	f8c3 21b0 	str.w	r2, [r3, #432]	@ 0x1b0
  cli->privilege = CLI_PRIV_USER;
 8000a74:	68fb      	ldr	r3, [r7, #12]
 8000a76:	2200      	movs	r2, #0
 8000a78:	f883 2274 	strb.w	r2, [r3, #628]	@ 0x274
  cli->ansi_supported = (bool)true;
 8000a7c:	68fb      	ldr	r3, [r7, #12]
 8000a7e:	2201      	movs	r2, #1
 8000a80:	f883 2429 	strb.w	r2, [r3, #1065]	@ 0x429
  cli->transport = *transport;
 8000a84:	68fa      	ldr	r2, [r7, #12]
 8000a86:	687b      	ldr	r3, [r7, #4]
 8000a88:	4614      	mov	r4, r2
 8000a8a:	461d      	mov	r5, r3
 8000a8c:	cd0f      	ldmia	r5!, {r0, r1, r2, r3}
 8000a8e:	c40f      	stmia	r4!, {r0, r1, r2, r3}
 8000a90:	e895 0003 	ldmia.w	r5, {r0, r1}
 8000a94:	e884 0003 	stmia.w	r4, {r0, r1}
#if CLI_ENABLE_TIME_SOURCE
  if (platform && platform->now_sec) {
 8000a98:	683b      	ldr	r3, [r7, #0]
 8000a9a:	2b00      	cmp	r3, #0
 8000a9c:	d00e      	beq.n	8000abc <cli_init+0x9c>
 8000a9e:	683b      	ldr	r3, [r7, #0]
 8000aa0:	681b      	ldr	r3, [r3, #0]
 8000aa2:	2b00      	cmp	r3, #0
 8000aa4:	d00a      	beq.n	8000abc <cli_init+0x9c>
    cli->time_source = platform->now_sec;
 8000aa6:	683b      	ldr	r3, [r7, #0]
 8000aa8:	681a      	ldr	r2, [r3, #0]
 8000aaa:	68fb      	ldr	r3, [r7, #12]
 8000aac:	f8c3 2418 	str.w	r2, [r3, #1048]	@ 0x418
    cli->time_source_ctx = platform->now_sec_ctx;
 8000ab0:	683b      	ldr	r3, [r7, #0]
 8000ab2:	685a      	ldr	r2, [r3, #4]
 8000ab4:	68fb      	ldr	r3, [r7, #12]
 8000ab6:	f8c3 241c 	str.w	r2, [r3, #1052]	@ 0x41c
 8000aba:	e007      	b.n	8000acc <cli_init+0xac>
  } else {
    cli->time_source = cli_default_time_source;
    cli->time_source_ctx = NULL;
#else
  } else {
    cli->time_source = NULL;
 8000abc:	68fb      	ldr	r3, [r7, #12]
 8000abe:	2200      	movs	r2, #0
 8000ac0:	f8c3 2418 	str.w	r2, [r3, #1048]	@ 0x418
    cli->time_source_ctx = NULL;
 8000ac4:	68fb      	ldr	r3, [r7, #12]
 8000ac6:	2200      	movs	r2, #0
 8000ac8:	f8c3 241c 	str.w	r2, [r3, #1052]	@ 0x41c
    cli->micros_source = platform->micros;
    cli->micros_source_ctx = platform->micros_ctx;
  }
#endif
#if CLI_ENABLE_IDLE_TIMEOUT
  cli->idle_timeout = (cli_time_t)CLI_DEFAULT_IDLE_TIMEOUT_SEC;
 8000acc:	68fb      	ldr	r3, [r7, #12]
 8000ace:	2200      	movs	r2, #0
 8000ad0:	f8c3 23fc 	str.w	r2, [r3, #1020]	@ 0x3fc
  cli->idle_timeout_policy = CLI_IDLE_TIMEOUT_POLICY_RESET_SESSION;
 8000ad4:	68fb      	ldr	r3, [r7, #12]
 8000ad6:	2201      	movs	r2, #1
 8000ad8:	f883 2404 	strb.w	r2, [r3, #1028]	@ 0x404
#endif
  cli->exit_root_policy = CLI_EXIT_ROOT_POLICY_CLOSE_SESSION;
 8000adc:	68fb      	ldr	r3, [r7, #12]
 8000ade:	2200      	movs	r2, #0
 8000ae0:	f883 2276 	strb.w	r2, [r3, #630]	@ 0x276
  cli->quit_policy = CLI_QUIT_POLICY_CLOSE_SESSION;
 8000ae4:	68fb      	ldr	r3, [r7, #12]
 8000ae6:	2200      	movs	r2, #0
 8000ae8:	f883 2277 	strb.w	r2, [r3, #631]	@ 0x277
#if CLI_ENABLE_PERIODIC_CALLBACK
  cli->periodic_interval = 1UL;
 8000aec:	68fb      	ldr	r3, [r7, #12]
 8000aee:	2201      	movs	r2, #1
 8000af0:	f8c3 240c 	str.w	r2, [r3, #1036]	@ 0x40c
#endif
#if CLI_ENABLE_AUTH
  cli->auth_attempts = 0;
 8000af4:	68fb      	ldr	r3, [r7, #12]
 8000af6:	2200      	movs	r2, #0
 8000af8:	f8c3 22dc 	str.w	r2, [r3, #732]	@ 0x2dc
  cli->auth_failure_mode = CLI_AUTH_FAILURE_MODE_CLOSE;
 8000afc:	68fb      	ldr	r3, [r7, #12]
 8000afe:	2200      	movs	r2, #0
 8000b00:	f883 22e0 	strb.w	r2, [r3, #736]	@ 0x2e0
  cli->auth_lockout_seconds = 30UL;
 8000b04:	68fb      	ldr	r3, [r7, #12]
 8000b06:	221e      	movs	r2, #30
 8000b08:	f8c3 22e4 	str.w	r2, [r3, #740]	@ 0x2e4
  cli->auth_lockout_started_ts = 0UL;
 8000b0c:	68fb      	ldr	r3, [r7, #12]
 8000b0e:	2200      	movs	r2, #0
 8000b10:	f8c3 22e8 	str.w	r2, [r3, #744]	@ 0x2e8
  cli->auth_username[0] = '\0';
 8000b14:	68fb      	ldr	r3, [r7, #12]
 8000b16:	2200      	movs	r2, #0
 8000b18:	f883 22c5 	strb.w	r2, [r3, #709]	@ 0x2c5
#endif

  (void)cli_strlcpy(cli->hostname, hostname ? hostname : "cli", CLI_MAX_PROMPT_LEN);
 8000b1c:	68fb      	ldr	r3, [r7, #12]
 8000b1e:	f103 0028 	add.w	r0, r3, #40	@ 0x28
 8000b22:	68bb      	ldr	r3, [r7, #8]
 8000b24:	2b00      	cmp	r3, #0
 8000b26:	d001      	beq.n	8000b2c <cli_init+0x10c>
 8000b28:	68bb      	ldr	r3, [r7, #8]
 8000b2a:	e000      	b.n	8000b2e <cli_init+0x10e>
 8000b2c:	4b14      	ldr	r3, [pc, #80]	@ (8000b80 <cli_init+0x160>)
 8000b2e:	2218      	movs	r2, #24
 8000b30:	4619      	mov	r1, r3
 8000b32:	f000 fbaf 	bl	8001294 <cli_strlcpy>

#if CLI_ENABLE_MODE_NAMES
  (void)cli_strlcpy(cli->mode_names[CLI_MODE_EXEC], "", CLI_MAX_MODE_NAME_LEN);
 8000b36:	68fb      	ldr	r3, [r7, #12]
 8000b38:	f503 73e2 	add.w	r3, r3, #452	@ 0x1c4
 8000b3c:	2210      	movs	r2, #16
 8000b3e:	4911      	ldr	r1, [pc, #68]	@ (8000b84 <cli_init+0x164>)
 8000b40:	4618      	mov	r0, r3
 8000b42:	f000 fba7 	bl	8001294 <cli_strlcpy>
  (void)cli_strlcpy(cli->mode_names[CLI_MODE_ENABLE], "", CLI_MAX_MODE_NAME_LEN);
 8000b46:	68fb      	ldr	r3, [r7, #12]
 8000b48:	f503 73ea 	add.w	r3, r3, #468	@ 0x1d4
 8000b4c:	2210      	movs	r2, #16
 8000b4e:	490d      	ldr	r1, [pc, #52]	@ (8000b84 <cli_init+0x164>)
 8000b50:	4618      	mov	r0, r3
 8000b52:	f000 fb9f 	bl	8001294 <cli_strlcpy>
  (void)cli_strlcpy(cli->mode_names[CLI_MODE_CONFIG], "config", CLI_MAX_MODE_NAME_LEN);
 8000b56:	68fb      	ldr	r3, [r7, #12]
 8000b58:	f503 73f2 	add.w	r3, r3, #484	@ 0x1e4
 8000b5c:	2210      	movs	r2, #16
 8000b5e:	490a      	ldr	r1, [pc, #40]	@ (8000b88 <cli_init+0x168>)
 8000b60:	4618      	mov	r0, r3
 8000b62:	f000 fb97 	bl	8001294 <cli_strlcpy>
#endif
  cli_touch_activity_internal(cli);
 8000b66:	68f8      	ldr	r0, [r7, #12]
 8000b68:	f000 fc56 	bl	8001418 <cli_touch_activity_internal>
#if CLI_ENABLE_PERIODIC_CALLBACK && CLI_ENABLE_IDLE_TIMEOUT
  cli->last_periodic_ts = cli->last_action_ts;
 8000b6c:	68fb      	ldr	r3, [r7, #12]
 8000b6e:	f8d3 2400 	ldr.w	r2, [r3, #1024]	@ 0x400
 8000b72:	68fb      	ldr	r3, [r7, #12]
 8000b74:	f8c3 2410 	str.w	r2, [r3, #1040]	@ 0x410
#elif CLI_ENABLE_PERIODIC_CALLBACK && CLI_ENABLE_TIME_SOURCE
  if (cli->time_source != NULL) {
    cli->last_periodic_ts = cli->time_source(cli->time_source_ctx);
  }
#endif
}
 8000b78:	bf00      	nop
 8000b7a:	3710      	adds	r7, #16
 8000b7c:	46bd      	mov	sp, r7
 8000b7e:	bdb0      	pop	{r4, r5, r7, pc}
 8000b80:	08006b28 	.word	0x08006b28
 8000b84:	080068bc 	.word	0x080068bc
 8000b88:	08006b2c 	.word	0x08006b2c

08000b8c <cli_done>:

OPENLIBCLI_API void cli_done(cli_struct_t *cli) {
 8000b8c:	b580      	push	{r7, lr}
 8000b8e:	b082      	sub	sp, #8
 8000b90:	af00      	add	r7, sp, #0
 8000b92:	6078      	str	r0, [r7, #4]
  if (cli != NULL) {
 8000b94:	687b      	ldr	r3, [r7, #4]
 8000b96:	2b00      	cmp	r3, #0
 8000b98:	d009      	beq.n	8000bae <cli_done+0x22>
      (void)cli_println(cli, "  Min (us): %u", (unsigned)cli->tick_stats.min_us);
      (void)cli_println(cli, "  Avg (us): %u", (unsigned)cli->tick_stats.avg_us);
      (void)cli_println(cli, "  Max (us): %u", (unsigned)cli->tick_stats.max_us);
    }
#endif
    cli->session_state = CLI_SESSION_STOP;
 8000b9a:	687b      	ldr	r3, [r7, #4]
 8000b9c:	2203      	movs	r2, #3
 8000b9e:	f883 2275 	strb.w	r2, [r3, #629]	@ 0x275
    (void)memset(cli, 0, sizeof(*cli));
 8000ba2:	f240 423c 	movw	r2, #1084	@ 0x43c
 8000ba6:	2100      	movs	r1, #0
 8000ba8:	6878      	ldr	r0, [r7, #4]
 8000baa:	f005 f934 	bl	8005e16 <memset>
  }
}
 8000bae:	bf00      	nop
 8000bb0:	3708      	adds	r7, #8
 8000bb2:	46bd      	mov	sp, r7
 8000bb4:	bd80      	pop	{r7, pc}

08000bb6 <cli_restart_session>:

OPENLIBCLI_API cli_session_state_enum_t cli_get_session_state(const cli_struct_t *cli) {
  return cli ? cli->session_state : CLI_SESSION_STOP;
}

OPENLIBCLI_API void cli_restart_session(cli_struct_t *cli) {
 8000bb6:	b580      	push	{r7, lr}
 8000bb8:	b082      	sub	sp, #8
 8000bba:	af00      	add	r7, sp, #0
 8000bbc:	6078      	str	r0, [r7, #4]
  if (cli != NULL) {
 8000bbe:	687b      	ldr	r3, [r7, #4]
 8000bc0:	2b00      	cmp	r3, #0
 8000bc2:	d035      	beq.n	8000c30 <cli_restart_session+0x7a>
    cli->mode = CLI_MODE_EXEC;
 8000bc4:	687b      	ldr	r3, [r7, #4]
 8000bc6:	2201      	movs	r2, #1
 8000bc8:	f8c3 21a8 	str.w	r2, [r3, #424]	@ 0x1a8
    cli->mode_login = CLI_MODE_EXEC;
 8000bcc:	687b      	ldr	r3, [r7, #4]
 8000bce:	2201      	movs	r2, #1
 8000bd0:	f8c3 21b0 	str.w	r2, [r3, #432]	@ 0x1b0
    cli->mode_prev = CLI_MODE_EXEC;
 8000bd4:	687b      	ldr	r3, [r7, #4]
 8000bd6:	2201      	movs	r2, #1
 8000bd8:	f8c3 21ac 	str.w	r2, [r3, #428]	@ 0x1ac
    cli->privilege = CLI_PRIV_USER;
 8000bdc:	687b      	ldr	r3, [r7, #4]
 8000bde:	2200      	movs	r2, #0
 8000be0:	f883 2274 	strb.w	r2, [r3, #628]	@ 0x274
    cli->context = CLI_CMD_ROOT;
 8000be4:	687b      	ldr	r3, [r7, #4]
 8000be6:	f06f 0201 	mvn.w	r2, #1
 8000bea:	625a      	str	r2, [r3, #36]	@ 0x24
    cli->esc_state = ESC_STATE_NORMAL;
 8000bec:	687b      	ldr	r3, [r7, #4]
 8000bee:	2200      	movs	r2, #0
 8000bf0:	f883 2420 	strb.w	r2, [r3, #1056]	@ 0x420
    cli->esc_param = 0;
 8000bf4:	687b      	ldr	r3, [r7, #4]
 8000bf6:	2200      	movs	r2, #0
 8000bf8:	f8c3 2424 	str.w	r2, [r3, #1060]	@ 0x424
    cli->saw_cr = (bool)false;
 8000bfc:	687b      	ldr	r3, [r7, #4]
 8000bfe:	2200      	movs	r2, #0
 8000c00:	f883 2428 	strb.w	r2, [r3, #1064]	@ 0x428
    cli_reset_input(cli);
 8000c04:	6878      	ldr	r0, [r7, #4]
 8000c06:	f002 fe1f 	bl	8003848 <cli_reset_input>
#if CLI_ENABLE_AUTH
    cli->auth_state = CLI_AUTH_NONE;
 8000c0a:	687b      	ldr	r3, [r7, #4]
 8000c0c:	2200      	movs	r2, #0
 8000c0e:	f883 2284 	strb.w	r2, [r3, #644]	@ 0x284
    cli->auth_attempts = 0;
 8000c12:	687b      	ldr	r3, [r7, #4]
 8000c14:	2200      	movs	r2, #0
 8000c16:	f8c3 22dc 	str.w	r2, [r3, #732]	@ 0x2dc
    cli->auth_lockout_started_ts = 0UL;
 8000c1a:	687b      	ldr	r3, [r7, #4]
 8000c1c:	2200      	movs	r2, #0
 8000c1e:	f8c3 22e8 	str.w	r2, [r3, #744]	@ 0x2e8
    cli_auth_reset_work(cli);
 8000c22:	6878      	ldr	r0, [r7, #4]
 8000c24:	f002 fb58 	bl	80032d8 <cli_auth_reset_work>
#endif
    cli->session_state = CLI_SESSION_SHOW_BANNER;
 8000c28:	687b      	ldr	r3, [r7, #4]
 8000c2a:	2201      	movs	r2, #1
 8000c2c:	f883 2275 	strb.w	r2, [r3, #629]	@ 0x275
  }
}
 8000c30:	bf00      	nop
 8000c32:	3708      	adds	r7, #8
 8000c34:	46bd      	mov	sp, r7
 8000c36:	bd80      	pop	{r7, pc}

08000c38 <cli_set_banner>:
  if (cli != NULL) {
    (void)cli_strlcpy(cli->hostname, hostname, CLI_MAX_PROMPT_LEN);
  }
}

OPENLIBCLI_API void cli_set_banner(cli_struct_t *cli, const char *banner) {
 8000c38:	b580      	push	{r7, lr}
 8000c3a:	b082      	sub	sp, #8
 8000c3c:	af00      	add	r7, sp, #0
 8000c3e:	6078      	str	r0, [r7, #4]
 8000c40:	6039      	str	r1, [r7, #0]
#if CLI_ENABLE_BANNER
  if (cli != NULL) {
 8000c42:	687b      	ldr	r3, [r7, #4]
 8000c44:	2b00      	cmp	r3, #0
 8000c46:	d007      	beq.n	8000c58 <cli_set_banner+0x20>
    (void)cli_strlcpy(cli->banner, banner, CLI_MAX_BANNER_LEN);
 8000c48:	687b      	ldr	r3, [r7, #4]
 8000c4a:	3340      	adds	r3, #64	@ 0x40
 8000c4c:	f44f 7280 	mov.w	r2, #256	@ 0x100
 8000c50:	6839      	ldr	r1, [r7, #0]
 8000c52:	4618      	mov	r0, r3
 8000c54:	f000 fb1e 	bl	8001294 <cli_strlcpy>
  }
#else
  (void)cli;
  (void)banner;
#endif
}
 8000c58:	bf00      	nop
 8000c5a:	3708      	adds	r7, #8
 8000c5c:	46bd      	mov	sp, r7
 8000c5e:	bd80      	pop	{r7, pc}

08000c60 <cli_set_userdata>:

OPENLIBCLI_API void cli_set_userdata(cli_struct_t *cli, void *data) {
 8000c60:	b480      	push	{r7}
 8000c62:	b083      	sub	sp, #12
 8000c64:	af00      	add	r7, sp, #0
 8000c66:	6078      	str	r0, [r7, #4]
 8000c68:	6039      	str	r1, [r7, #0]
  if (cli != NULL) {
 8000c6a:	687b      	ldr	r3, [r7, #4]
 8000c6c:	2b00      	cmp	r3, #0
 8000c6e:	d003      	beq.n	8000c78 <cli_set_userdata+0x18>
    cli->user_data = data;
 8000c70:	687b      	ldr	r3, [r7, #4]
 8000c72:	683a      	ldr	r2, [r7, #0]
 8000c74:	f8c3 242c 	str.w	r2, [r3, #1068]	@ 0x42c
  }
}
 8000c78:	bf00      	nop
 8000c7a:	370c      	adds	r7, #12
 8000c7c:	46bd      	mov	sp, r7
 8000c7e:	bc80      	pop	{r7}
 8000c80:	4770      	bx	lr

08000c82 <cli_set_mode_name>:
    cli->on_mode_change = fn;
  }
}

#if CLI_ENABLE_MODE_NAMES
OPENLIBCLI_API void cli_set_mode_name(cli_struct_t *cli, cli_mode_t mode, const char *name) {
 8000c82:	b580      	push	{r7, lr}
 8000c84:	b084      	sub	sp, #16
 8000c86:	af00      	add	r7, sp, #0
 8000c88:	60f8      	str	r0, [r7, #12]
 8000c8a:	60b9      	str	r1, [r7, #8]
 8000c8c:	607a      	str	r2, [r7, #4]
  if (cli != NULL && mode < (int)CLI_MAX_MODES) {
 8000c8e:	68fb      	ldr	r3, [r7, #12]
 8000c90:	2b00      	cmp	r3, #0
 8000c92:	d00d      	beq.n	8000cb0 <cli_set_mode_name+0x2e>
 8000c94:	68bb      	ldr	r3, [r7, #8]
 8000c96:	2b0b      	cmp	r3, #11
 8000c98:	dc0a      	bgt.n	8000cb0 <cli_set_mode_name+0x2e>
    (void)cli_strlcpy(cli->mode_names[mode], name, CLI_MAX_MODE_NAME_LEN);
 8000c9a:	68bb      	ldr	r3, [r7, #8]
 8000c9c:	331b      	adds	r3, #27
 8000c9e:	011b      	lsls	r3, r3, #4
 8000ca0:	68fa      	ldr	r2, [r7, #12]
 8000ca2:	4413      	add	r3, r2
 8000ca4:	3304      	adds	r3, #4
 8000ca6:	2210      	movs	r2, #16
 8000ca8:	6879      	ldr	r1, [r7, #4]
 8000caa:	4618      	mov	r0, r3
 8000cac:	f000 faf2 	bl	8001294 <cli_strlcpy>
  }
}
 8000cb0:	bf00      	nop
 8000cb2:	3710      	adds	r7, #16
 8000cb4:	46bd      	mov	sp, r7
 8000cb6:	bd80      	pop	{r7, pc}

08000cb8 <cli_set_idle_timeout>:
  (void)fn;
  (void)ctx;
#endif
}

OPENLIBCLI_API void cli_set_idle_timeout(cli_struct_t *cli, uint32_t seconds) {
 8000cb8:	b580      	push	{r7, lr}
 8000cba:	b082      	sub	sp, #8
 8000cbc:	af00      	add	r7, sp, #0
 8000cbe:	6078      	str	r0, [r7, #4]
 8000cc0:	6039      	str	r1, [r7, #0]
#if CLI_ENABLE_IDLE_TIMEOUT
  if (cli != NULL) {
 8000cc2:	687b      	ldr	r3, [r7, #4]
 8000cc4:	2b00      	cmp	r3, #0
 8000cc6:	d006      	beq.n	8000cd6 <cli_set_idle_timeout+0x1e>
    cli->idle_timeout = seconds;
 8000cc8:	687b      	ldr	r3, [r7, #4]
 8000cca:	683a      	ldr	r2, [r7, #0]
 8000ccc:	f8c3 23fc 	str.w	r2, [r3, #1020]	@ 0x3fc
    cli_touch_activity_internal(cli);
 8000cd0:	6878      	ldr	r0, [r7, #4]
 8000cd2:	f000 fba1 	bl	8001418 <cli_touch_activity_internal>
  }
#else
  (void)cli;
  (void)seconds;
#endif
}
 8000cd6:	bf00      	nop
 8000cd8:	3708      	adds	r7, #8
 8000cda:	46bd      	mov	sp, r7
 8000cdc:	bd80      	pop	{r7, pc}

08000cde <cli_check_idle_timeout>:

  return rc;
}
#endif /* CLI_ENABLE_HISTORY */

OPENLIBCLI_API int8_t cli_check_idle_timeout(cli_struct_t *cli) {
 8000cde:	b580      	push	{r7, lr}
 8000ce0:	b086      	sub	sp, #24
 8000ce2:	af00      	add	r7, sp, #0
 8000ce4:	6078      	str	r0, [r7, #4]
  bool check_timeout = (bool)false;
 8000ce6:	2300      	movs	r3, #0
 8000ce8:	75fb      	strb	r3, [r7, #23]
  int8_t rc = CLI_OK;
 8000cea:	2300      	movs	r3, #0
 8000cec:	75bb      	strb	r3, [r7, #22]

#if CLI_ENABLE_IDLE_TIMEOUT
  if (cli != NULL && cli->idle_timeout != 0UL && cli->time_source != NULL) {
 8000cee:	687b      	ldr	r3, [r7, #4]
 8000cf0:	2b00      	cmp	r3, #0
 8000cf2:	d057      	beq.n	8000da4 <cli_check_idle_timeout+0xc6>
 8000cf4:	687b      	ldr	r3, [r7, #4]
 8000cf6:	f8d3 33fc 	ldr.w	r3, [r3, #1020]	@ 0x3fc
 8000cfa:	2b00      	cmp	r3, #0
 8000cfc:	d052      	beq.n	8000da4 <cli_check_idle_timeout+0xc6>
 8000cfe:	687b      	ldr	r3, [r7, #4]
 8000d00:	f8d3 3418 	ldr.w	r3, [r3, #1048]	@ 0x418
 8000d04:	2b00      	cmp	r3, #0
 8000d06:	d04d      	beq.n	8000da4 <cli_check_idle_timeout+0xc6>
    check_timeout = (bool)true;
 8000d08:	2301      	movs	r3, #1
 8000d0a:	75fb      	strb	r3, [r7, #23]

    if (cli->idle_timeout_policy == CLI_IDLE_TIMEOUT_POLICY_IGNORE) {
 8000d0c:	687b      	ldr	r3, [r7, #4]
 8000d0e:	f893 3404 	ldrb.w	r3, [r3, #1028]	@ 0x404
 8000d12:	2b02      	cmp	r3, #2
 8000d14:	d101      	bne.n	8000d1a <cli_check_idle_timeout+0x3c>
      check_timeout = (bool)false;
 8000d16:	2300      	movs	r3, #0
 8000d18:	75fb      	strb	r3, [r7, #23]
    }

#if CLI_ENABLE_AUTH
    /* In no-auth flow, RESET_SESSION behaves as IGNORE. */
    if (check_timeout && cli->idle_timeout_policy == CLI_IDLE_TIMEOUT_POLICY_RESET_SESSION &&
 8000d1a:	7dfb      	ldrb	r3, [r7, #23]
 8000d1c:	2b00      	cmp	r3, #0
 8000d1e:	d00e      	beq.n	8000d3e <cli_check_idle_timeout+0x60>
 8000d20:	687b      	ldr	r3, [r7, #4]
 8000d22:	f893 3404 	ldrb.w	r3, [r3, #1028]	@ 0x404
 8000d26:	2b01      	cmp	r3, #1
 8000d28:	d109      	bne.n	8000d3e <cli_check_idle_timeout+0x60>
        !cli->require_auth) {
 8000d2a:	687b      	ldr	r3, [r7, #4]
 8000d2c:	f893 32ec 	ldrb.w	r3, [r3, #748]	@ 0x2ec
 8000d30:	f083 0301 	eor.w	r3, r3, #1
 8000d34:	b2db      	uxtb	r3, r3
    if (check_timeout && cli->idle_timeout_policy == CLI_IDLE_TIMEOUT_POLICY_RESET_SESSION &&
 8000d36:	2b00      	cmp	r3, #0
 8000d38:	d001      	beq.n	8000d3e <cli_check_idle_timeout+0x60>
      check_timeout = (bool)false;
 8000d3a:	2300      	movs	r3, #0
 8000d3c:	75fb      	strb	r3, [r7, #23]
    }

    /* In auth flow, avoid repeated reset while waiting at login prompts. */
    if (check_timeout && cli->idle_timeout_policy == CLI_IDLE_TIMEOUT_POLICY_RESET_SESSION &&
 8000d3e:	7dfb      	ldrb	r3, [r7, #23]
 8000d40:	2b00      	cmp	r3, #0
 8000d42:	d00b      	beq.n	8000d5c <cli_check_idle_timeout+0x7e>
 8000d44:	687b      	ldr	r3, [r7, #4]
 8000d46:	f893 3404 	ldrb.w	r3, [r3, #1028]	@ 0x404
 8000d4a:	2b01      	cmp	r3, #1
 8000d4c:	d106      	bne.n	8000d5c <cli_check_idle_timeout+0x7e>
        cli->auth_state != CLI_AUTH_AUTHENTICATED) {
 8000d4e:	687b      	ldr	r3, [r7, #4]
 8000d50:	f893 3284 	ldrb.w	r3, [r3, #644]	@ 0x284
    if (check_timeout && cli->idle_timeout_policy == CLI_IDLE_TIMEOUT_POLICY_RESET_SESSION &&
 8000d54:	2b05      	cmp	r3, #5
 8000d56:	d001      	beq.n	8000d5c <cli_check_idle_timeout+0x7e>
      check_timeout = (bool)false;
 8000d58:	2300      	movs	r3, #0
 8000d5a:	75fb      	strb	r3, [r7, #23]
    }
#endif

    if (check_timeout) {
 8000d5c:	7dfb      	ldrb	r3, [r7, #23]
 8000d5e:	2b00      	cmp	r3, #0
 8000d60:	d020      	beq.n	8000da4 <cli_check_idle_timeout+0xc6>
      uint32_t now = cli->time_source(cli->time_source_ctx);
 8000d62:	687b      	ldr	r3, [r7, #4]
 8000d64:	f8d3 3418 	ldr.w	r3, [r3, #1048]	@ 0x418
 8000d68:	687a      	ldr	r2, [r7, #4]
 8000d6a:	f8d2 241c 	ldr.w	r2, [r2, #1052]	@ 0x41c
 8000d6e:	4610      	mov	r0, r2
 8000d70:	4798      	blx	r3
 8000d72:	6138      	str	r0, [r7, #16]
      uint32_t elapsed = (now - cli->last_action_ts);
 8000d74:	687b      	ldr	r3, [r7, #4]
 8000d76:	f8d3 3400 	ldr.w	r3, [r3, #1024]	@ 0x400
 8000d7a:	693a      	ldr	r2, [r7, #16]
 8000d7c:	1ad3      	subs	r3, r2, r3
 8000d7e:	60fb      	str	r3, [r7, #12]
      if (elapsed >= cli->idle_timeout) {
 8000d80:	687b      	ldr	r3, [r7, #4]
 8000d82:	f8d3 33fc 	ldr.w	r3, [r3, #1020]	@ 0x3fc
 8000d86:	68fa      	ldr	r2, [r7, #12]
 8000d88:	429a      	cmp	r2, r3
 8000d8a:	d30b      	bcc.n	8000da4 <cli_check_idle_timeout+0xc6>
        rc = cli_handle_idle_timeout(cli);
 8000d8c:	6878      	ldr	r0, [r7, #4]
 8000d8e:	f000 fb5f 	bl	8001450 <cli_handle_idle_timeout>
 8000d92:	4603      	mov	r3, r0
 8000d94:	75bb      	strb	r3, [r7, #22]
        if (rc == CLI_OK) {
 8000d96:	f997 3016 	ldrsb.w	r3, [r7, #22]
 8000d9a:	2b00      	cmp	r3, #0
 8000d9c:	d102      	bne.n	8000da4 <cli_check_idle_timeout+0xc6>
          cli_touch_activity_internal(cli);
 8000d9e:	6878      	ldr	r0, [r7, #4]
 8000da0:	f000 fb3a 	bl	8001418 <cli_touch_activity_internal>
  }
#else
  (void)cli;
#endif

  return rc;
 8000da4:	f997 3016 	ldrsb.w	r3, [r7, #22]
}
 8000da8:	4618      	mov	r0, r3
 8000daa:	3718      	adds	r7, #24
 8000dac:	46bd      	mov	sp, r7
 8000dae:	bd80      	pop	{r7, pc}

08000db0 <cli_add_user>:

/* Authentication ----------------------------------------------------------------------*/

OPENLIBCLI_API int8_t cli_add_user(cli_struct_t *cli, const char *username, const char *password,
                                   cli_priv_t privilege) {
 8000db0:	b580      	push	{r7, lr}
 8000db2:	b086      	sub	sp, #24
 8000db4:	af00      	add	r7, sp, #0
 8000db6:	60f8      	str	r0, [r7, #12]
 8000db8:	60b9      	str	r1, [r7, #8]
 8000dba:	607a      	str	r2, [r7, #4]
 8000dbc:	70fb      	strb	r3, [r7, #3]
  int8_t rc = CLI_OK;
 8000dbe:	2300      	movs	r3, #0
 8000dc0:	75fb      	strb	r3, [r7, #23]

#if CLI_ENABLE_AUTH
  if (cli == NULL || cli->num_users >= CLI_MAX_USERS) {
 8000dc2:	68fb      	ldr	r3, [r7, #12]
 8000dc4:	2b00      	cmp	r3, #0
 8000dc6:	d004      	beq.n	8000dd2 <cli_add_user+0x22>
 8000dc8:	68fb      	ldr	r3, [r7, #12]
 8000dca:	f8d3 32d8 	ldr.w	r3, [r3, #728]	@ 0x2d8
 8000dce:	2b01      	cmp	r3, #1
 8000dd0:	dd02      	ble.n	8000dd8 <cli_add_user+0x28>
    rc = CLI_ERR_NOMEM;
 8000dd2:	23fd      	movs	r3, #253	@ 0xfd
 8000dd4:	75fb      	strb	r3, [r7, #23]
 8000dd6:	e028      	b.n	8000e2a <cli_add_user+0x7a>
  } else {
    (void)cli_strlcpy(cli->users[cli->num_users], username, CLI_MAX_USERNAME_LEN);
 8000dd8:	68fb      	ldr	r3, [r7, #12]
 8000dda:	f8d3 32d8 	ldr.w	r3, [r3, #728]	@ 0x2d8
 8000dde:	3328      	adds	r3, #40	@ 0x28
 8000de0:	011b      	lsls	r3, r3, #4
 8000de2:	68fa      	ldr	r2, [r7, #12]
 8000de4:	4413      	add	r3, r2
 8000de6:	3305      	adds	r3, #5
 8000de8:	2210      	movs	r2, #16
 8000dea:	68b9      	ldr	r1, [r7, #8]
 8000dec:	4618      	mov	r0, r3
 8000dee:	f000 fa51 	bl	8001294 <cli_strlcpy>
    (void)cli_strlcpy(cli->passwords[cli->num_users], password, CLI_MAX_PASSWORD_LEN);
 8000df2:	68fb      	ldr	r3, [r7, #12]
 8000df4:	f8d3 32d8 	ldr.w	r3, [r3, #728]	@ 0x2d8
 8000df8:	332a      	adds	r3, #42	@ 0x2a
 8000dfa:	011b      	lsls	r3, r3, #4
 8000dfc:	68fa      	ldr	r2, [r7, #12]
 8000dfe:	4413      	add	r3, r2
 8000e00:	3305      	adds	r3, #5
 8000e02:	2210      	movs	r2, #16
 8000e04:	6879      	ldr	r1, [r7, #4]
 8000e06:	4618      	mov	r0, r3
 8000e08:	f000 fa44 	bl	8001294 <cli_strlcpy>
    cli->user_privileges[cli->num_users] = privilege;
 8000e0c:	68fb      	ldr	r3, [r7, #12]
 8000e0e:	f8d3 32d8 	ldr.w	r3, [r3, #728]	@ 0x2d8
 8000e12:	68fa      	ldr	r2, [r7, #12]
 8000e14:	4413      	add	r3, r2
 8000e16:	78fa      	ldrb	r2, [r7, #3]
 8000e18:	f883 22d5 	strb.w	r2, [r3, #725]	@ 0x2d5
    cli->num_users++;
 8000e1c:	68fb      	ldr	r3, [r7, #12]
 8000e1e:	f8d3 32d8 	ldr.w	r3, [r3, #728]	@ 0x2d8
 8000e22:	1c5a      	adds	r2, r3, #1
 8000e24:	68fb      	ldr	r3, [r7, #12]
 8000e26:	f8c3 22d8 	str.w	r2, [r3, #728]	@ 0x2d8
  (void)password;
  (void)privilege;
  rc = CLI_ERR;
#endif

  return rc;
 8000e2a:	f997 3017 	ldrsb.w	r3, [r7, #23]
}
 8000e2e:	4618      	mov	r0, r3
 8000e30:	3718      	adds	r7, #24
 8000e32:	46bd      	mov	sp, r7
 8000e34:	bd80      	pop	{r7, pc}

08000e36 <cli_require_authorization>:
  (void)cli;
  (void)fn;
#endif
}

OPENLIBCLI_API void cli_require_authorization(cli_struct_t *cli, bool require) {
 8000e36:	b480      	push	{r7}
 8000e38:	b083      	sub	sp, #12
 8000e3a:	af00      	add	r7, sp, #0
 8000e3c:	6078      	str	r0, [r7, #4]
 8000e3e:	460b      	mov	r3, r1
 8000e40:	70fb      	strb	r3, [r7, #3]
#if CLI_ENABLE_AUTH
  if (cli != NULL) {
 8000e42:	687b      	ldr	r3, [r7, #4]
 8000e44:	2b00      	cmp	r3, #0
 8000e46:	d003      	beq.n	8000e50 <cli_require_authorization+0x1a>
    cli->require_auth = require;
 8000e48:	687b      	ldr	r3, [r7, #4]
 8000e4a:	78fa      	ldrb	r2, [r7, #3]
 8000e4c:	f883 22ec 	strb.w	r2, [r3, #748]	@ 0x2ec
  }
#else
  (void)cli;
  (void)require;
#endif
}
 8000e50:	bf00      	nop
 8000e52:	370c      	adds	r7, #12
 8000e54:	46bd      	mov	sp, r7
 8000e56:	bc80      	pop	{r7}
 8000e58:	4770      	bx	lr
	...

08000e5c <cli_add_command>:
/* Command Registration -----------------------------------------------------------------*/

OPENLIBCLI_API cli_cmd_handle_t cli_add_command(cli_struct_t *cli, cli_cmd_handle_t parent,
                                                const char *name, cli_cmd_handler_fn callback,
                                                cli_priv_t privilege, cli_mode_t mode,
                                                const char *help) {
 8000e5c:	b580      	push	{r7, lr}
 8000e5e:	b088      	sub	sp, #32
 8000e60:	af00      	add	r7, sp, #0
 8000e62:	60f8      	str	r0, [r7, #12]
 8000e64:	60b9      	str	r1, [r7, #8]
 8000e66:	607a      	str	r2, [r7, #4]
 8000e68:	603b      	str	r3, [r7, #0]
  cli_cmd_handle_t handle = CLI_CMD_INVALID;
 8000e6a:	f04f 33ff 	mov.w	r3, #4294967295
 8000e6e:	61fb      	str	r3, [r7, #28]

  if (name != NULL && cli != NULL && cli->cmd_pool != NULL &&
 8000e70:	687b      	ldr	r3, [r7, #4]
 8000e72:	2b00      	cmp	r3, #0
 8000e74:	d06e      	beq.n	8000f54 <cli_add_command+0xf8>
 8000e76:	68fb      	ldr	r3, [r7, #12]
 8000e78:	2b00      	cmp	r3, #0
 8000e7a:	d06b      	beq.n	8000f54 <cli_add_command+0xf8>
 8000e7c:	68fb      	ldr	r3, [r7, #12]
 8000e7e:	699b      	ldr	r3, [r3, #24]
 8000e80:	2b00      	cmp	r3, #0
 8000e82:	d067      	beq.n	8000f54 <cli_add_command+0xf8>
      cli->cmd_pool_count < cli->cmd_pool_size) {
 8000e84:	68fb      	ldr	r3, [r7, #12]
 8000e86:	6a1a      	ldr	r2, [r3, #32]
 8000e88:	68fb      	ldr	r3, [r7, #12]
 8000e8a:	69db      	ldr	r3, [r3, #28]
  if (name != NULL && cli != NULL && cli->cmd_pool != NULL &&
 8000e8c:	429a      	cmp	r2, r3
 8000e8e:	da61      	bge.n	8000f54 <cli_add_command+0xf8>
    for (cli_cmd_handle_t i = 0; i < cli->cmd_pool_size; i++) {
 8000e90:	2300      	movs	r3, #0
 8000e92:	61bb      	str	r3, [r7, #24]
 8000e94:	e012      	b.n	8000ebc <cli_add_command+0x60>
      if (!CLI_CMD_IS_IN_USE(&cli->cmd_pool[i])) {
 8000e96:	68fb      	ldr	r3, [r7, #12]
 8000e98:	699a      	ldr	r2, [r3, #24]
 8000e9a:	69bb      	ldr	r3, [r7, #24]
 8000e9c:	2164      	movs	r1, #100	@ 0x64
 8000e9e:	fb01 f303 	mul.w	r3, r1, r3
 8000ea2:	4413      	add	r3, r2
 8000ea4:	f893 3061 	ldrb.w	r3, [r3, #97]	@ 0x61
 8000ea8:	f003 0302 	and.w	r3, r3, #2
 8000eac:	2b00      	cmp	r3, #0
 8000eae:	d102      	bne.n	8000eb6 <cli_add_command+0x5a>
        handle = i;
 8000eb0:	69bb      	ldr	r3, [r7, #24]
 8000eb2:	61fb      	str	r3, [r7, #28]
        break;
 8000eb4:	e007      	b.n	8000ec6 <cli_add_command+0x6a>
    for (cli_cmd_handle_t i = 0; i < cli->cmd_pool_size; i++) {
 8000eb6:	69bb      	ldr	r3, [r7, #24]
 8000eb8:	3301      	adds	r3, #1
 8000eba:	61bb      	str	r3, [r7, #24]
 8000ebc:	68fb      	ldr	r3, [r7, #12]
 8000ebe:	69db      	ldr	r3, [r3, #28]
 8000ec0:	69ba      	ldr	r2, [r7, #24]
 8000ec2:	429a      	cmp	r2, r3
 8000ec4:	dbe7      	blt.n	8000e96 <cli_add_command+0x3a>
      }
    }
    if (handle != CLI_CMD_INVALID) {
 8000ec6:	69fb      	ldr	r3, [r7, #28]
 8000ec8:	f1b3 3fff 	cmp.w	r3, #4294967295
 8000ecc:	d052      	beq.n	8000f74 <cli_add_command+0x118>
      cli_cmd_struct_t *cmd = &cli->cmd_pool[handle];
 8000ece:	68fb      	ldr	r3, [r7, #12]
 8000ed0:	699a      	ldr	r2, [r3, #24]
 8000ed2:	69fb      	ldr	r3, [r7, #28]
 8000ed4:	2164      	movs	r1, #100	@ 0x64
 8000ed6:	fb01 f303 	mul.w	r3, r1, r3
 8000eda:	4413      	add	r3, r2
 8000edc:	617b      	str	r3, [r7, #20]
      (void)memset(cmd, 0, sizeof(*cmd));
 8000ede:	2264      	movs	r2, #100	@ 0x64
 8000ee0:	2100      	movs	r1, #0
 8000ee2:	6978      	ldr	r0, [r7, #20]
 8000ee4:	f004 ff97 	bl	8005e16 <memset>
      (void)CLI_REGCPY(cmd->name, name, CLI_MAX_NAME_LEN);
 8000ee8:	697b      	ldr	r3, [r7, #20]
 8000eea:	3304      	adds	r3, #4
 8000eec:	2214      	movs	r2, #20
 8000eee:	6879      	ldr	r1, [r7, #4]
 8000ef0:	4618      	mov	r0, r3
 8000ef2:	f000 f9cf 	bl	8001294 <cli_strlcpy>
      if (cmd->name[0] != '\0') {
 8000ef6:	697b      	ldr	r3, [r7, #20]
 8000ef8:	791b      	ldrb	r3, [r3, #4]
 8000efa:	2b00      	cmp	r3, #0
 8000efc:	d03a      	beq.n	8000f74 <cli_add_command+0x118>
#if CLI_ENABLE_COMMAND_HELP
        if (help != NULL) {
 8000efe:	6b3b      	ldr	r3, [r7, #48]	@ 0x30
 8000f00:	2b00      	cmp	r3, #0
 8000f02:	d007      	beq.n	8000f14 <cli_add_command+0xb8>
          (void)CLI_REGCPY(cmd->help, help, CLI_MAX_HELP_LEN);
 8000f04:	697b      	ldr	r3, [r7, #20]
 8000f06:	3318      	adds	r3, #24
 8000f08:	2240      	movs	r2, #64	@ 0x40
 8000f0a:	6b39      	ldr	r1, [r7, #48]	@ 0x30
 8000f0c:	4618      	mov	r0, r3
 8000f0e:	f000 f9c1 	bl	8001294 <cli_strlcpy>
 8000f12:	e002      	b.n	8000f1a <cli_add_command+0xbe>
        } else {
          cmd->help[0] = '\0';
 8000f14:	697b      	ldr	r3, [r7, #20]
 8000f16:	2200      	movs	r2, #0
 8000f18:	761a      	strb	r2, [r3, #24]
        }
#else
        (void)help;
#endif
        cmd->callback = callback;
 8000f1a:	697b      	ldr	r3, [r7, #20]
 8000f1c:	683a      	ldr	r2, [r7, #0]
 8000f1e:	601a      	str	r2, [r3, #0]
        cmd->privilege = privilege;
 8000f20:	697b      	ldr	r3, [r7, #20]
 8000f22:	f897 2028 	ldrb.w	r2, [r7, #40]	@ 0x28
 8000f26:	f883 2060 	strb.w	r2, [r3, #96]	@ 0x60
        cmd->mode = mode;
 8000f2a:	697b      	ldr	r3, [r7, #20]
 8000f2c:	6afa      	ldr	r2, [r7, #44]	@ 0x2c
 8000f2e:	65da      	str	r2, [r3, #92]	@ 0x5c
        cmd->parent = parent;
 8000f30:	697b      	ldr	r3, [r7, #20]
 8000f32:	68ba      	ldr	r2, [r7, #8]
 8000f34:	659a      	str	r2, [r3, #88]	@ 0x58
        CLI_CMD_SET_IN_USE(cmd);
 8000f36:	697b      	ldr	r3, [r7, #20]
 8000f38:	f893 3061 	ldrb.w	r3, [r3, #97]	@ 0x61
 8000f3c:	f043 0302 	orr.w	r3, r3, #2
 8000f40:	b2da      	uxtb	r2, r3
 8000f42:	697b      	ldr	r3, [r7, #20]
 8000f44:	f883 2061 	strb.w	r2, [r3, #97]	@ 0x61
        cli->cmd_pool_count++;
 8000f48:	68fb      	ldr	r3, [r7, #12]
 8000f4a:	6a1b      	ldr	r3, [r3, #32]
 8000f4c:	1c5a      	adds	r2, r3, #1
 8000f4e:	68fb      	ldr	r3, [r7, #12]
 8000f50:	621a      	str	r2, [r3, #32]
    if (handle != CLI_CMD_INVALID) {
 8000f52:	e00f      	b.n	8000f74 <cli_add_command+0x118>
      }
    }
  } else if (cli != NULL && cli->cmd_pool != NULL) {
 8000f54:	68fb      	ldr	r3, [r7, #12]
 8000f56:	2b00      	cmp	r3, #0
 8000f58:	d00d      	beq.n	8000f76 <cli_add_command+0x11a>
 8000f5a:	68fb      	ldr	r3, [r7, #12]
 8000f5c:	699b      	ldr	r3, [r3, #24]
 8000f5e:	2b00      	cmp	r3, #0
 8000f60:	d009      	beq.n	8000f76 <cli_add_command+0x11a>
    (void)cli_println(cli, "ERROR: Command pool full (%d/%d)", cli->cmd_pool_count,
 8000f62:	68fb      	ldr	r3, [r7, #12]
 8000f64:	6a1a      	ldr	r2, [r3, #32]
 8000f66:	68fb      	ldr	r3, [r7, #12]
 8000f68:	69db      	ldr	r3, [r3, #28]
 8000f6a:	4905      	ldr	r1, [pc, #20]	@ (8000f80 <cli_add_command+0x124>)
 8000f6c:	68f8      	ldr	r0, [r7, #12]
 8000f6e:	f000 f891 	bl	8001094 <cli_println_p>
 8000f72:	e000      	b.n	8000f76 <cli_add_command+0x11a>
    if (handle != CLI_CMD_INVALID) {
 8000f74:	bf00      	nop
                      cli->cmd_pool_size);
  } else {
    /* To silence MISRA */
  }

  return handle;
 8000f76:	69fb      	ldr	r3, [r7, #28]
}
 8000f78:	4618      	mov	r0, r3
 8000f7a:	3720      	adds	r7, #32
 8000f7c:	46bd      	mov	sp, r7
 8000f7e:	bd80      	pop	{r7, pc}
 8000f80:	08006b34 	.word	0x08006b34

08000f84 <cli_set_mode>:
  }
}

/* Mode / Privilege ---------------------------------------------------------------------*/

OPENLIBCLI_API void cli_set_mode(cli_struct_t *cli, cli_mode_t mode) {
 8000f84:	b580      	push	{r7, lr}
 8000f86:	b082      	sub	sp, #8
 8000f88:	af00      	add	r7, sp, #0
 8000f8a:	6078      	str	r0, [r7, #4]
 8000f8c:	6039      	str	r1, [r7, #0]
  if (cli != NULL) {
 8000f8e:	687b      	ldr	r3, [r7, #4]
 8000f90:	2b00      	cmp	r3, #0
 8000f92:	d019      	beq.n	8000fc8 <cli_set_mode+0x44>
    cli->mode_prev = cli->mode;
 8000f94:	687b      	ldr	r3, [r7, #4]
 8000f96:	f8d3 21a8 	ldr.w	r2, [r3, #424]	@ 0x1a8
 8000f9a:	687b      	ldr	r3, [r7, #4]
 8000f9c:	f8c3 21ac 	str.w	r2, [r3, #428]	@ 0x1ac
    cli->mode = mode;
 8000fa0:	687b      	ldr	r3, [r7, #4]
 8000fa2:	683a      	ldr	r2, [r7, #0]
 8000fa4:	f8c3 21a8 	str.w	r2, [r3, #424]	@ 0x1a8
    if (cli->on_mode_change != NULL) {
 8000fa8:	687b      	ldr	r3, [r7, #4]
 8000faa:	f8d3 3278 	ldr.w	r3, [r3, #632]	@ 0x278
 8000fae:	2b00      	cmp	r3, #0
 8000fb0:	d00a      	beq.n	8000fc8 <cli_set_mode+0x44>
      cli->on_mode_change(cli, cli->mode, cli->privilege);
 8000fb2:	687b      	ldr	r3, [r7, #4]
 8000fb4:	f8d3 3278 	ldr.w	r3, [r3, #632]	@ 0x278
 8000fb8:	687a      	ldr	r2, [r7, #4]
 8000fba:	f8d2 11a8 	ldr.w	r1, [r2, #424]	@ 0x1a8
 8000fbe:	687a      	ldr	r2, [r7, #4]
 8000fc0:	f892 2274 	ldrb.w	r2, [r2, #628]	@ 0x274
 8000fc4:	6878      	ldr	r0, [r7, #4]
 8000fc6:	4798      	blx	r3
    }
  }
}
 8000fc8:	bf00      	nop
 8000fca:	3708      	adds	r7, #8
 8000fcc:	46bd      	mov	sp, r7
 8000fce:	bd80      	pop	{r7, pc}

08000fd0 <cli_set_privilege>:

OPENLIBCLI_API void cli_set_privilege(cli_struct_t *cli, cli_priv_t privilege) {
 8000fd0:	b580      	push	{r7, lr}
 8000fd2:	b082      	sub	sp, #8
 8000fd4:	af00      	add	r7, sp, #0
 8000fd6:	6078      	str	r0, [r7, #4]
 8000fd8:	460b      	mov	r3, r1
 8000fda:	70fb      	strb	r3, [r7, #3]
  if (cli != NULL) {
 8000fdc:	687b      	ldr	r3, [r7, #4]
 8000fde:	2b00      	cmp	r3, #0
 8000fe0:	d013      	beq.n	800100a <cli_set_privilege+0x3a>
    cli->privilege = privilege;
 8000fe2:	687b      	ldr	r3, [r7, #4]
 8000fe4:	78fa      	ldrb	r2, [r7, #3]
 8000fe6:	f883 2274 	strb.w	r2, [r3, #628]	@ 0x274
    if (cli->on_mode_change != NULL) {
 8000fea:	687b      	ldr	r3, [r7, #4]
 8000fec:	f8d3 3278 	ldr.w	r3, [r3, #632]	@ 0x278
 8000ff0:	2b00      	cmp	r3, #0
 8000ff2:	d00a      	beq.n	800100a <cli_set_privilege+0x3a>
      cli->on_mode_change(cli, cli->mode, cli->privilege);
 8000ff4:	687b      	ldr	r3, [r7, #4]
 8000ff6:	f8d3 3278 	ldr.w	r3, [r3, #632]	@ 0x278
 8000ffa:	687a      	ldr	r2, [r7, #4]
 8000ffc:	f8d2 11a8 	ldr.w	r1, [r2, #424]	@ 0x1a8
 8001000:	687a      	ldr	r2, [r7, #4]
 8001002:	f892 2274 	ldrb.w	r2, [r2, #628]	@ 0x274
 8001006:	6878      	ldr	r0, [r7, #4]
 8001008:	4798      	blx	r3
    }
  }
}
 800100a:	bf00      	nop
 800100c:	3708      	adds	r7, #8
 800100e:	46bd      	mov	sp, r7
 8001010:	bd80      	pop	{r7, pc}
	...

08001014 <cli_set_enable_secret>:

OPENLIBCLI_API cli_priv_t cli_get_privilege(const cli_struct_t *cli) {
  return cli->privilege;
}

OPENLIBCLI_API void cli_set_enable_secret(cli_struct_t *cli, const char *secret) {
 8001014:	b580      	push	{r7, lr}
 8001016:	b082      	sub	sp, #8
 8001018:	af00      	add	r7, sp, #0
 800101a:	6078      	str	r0, [r7, #4]
 800101c:	6039      	str	r1, [r7, #0]
#if CLI_ENABLE_AUTH
  if (cli != NULL) {
 800101e:	687b      	ldr	r3, [r7, #4]
 8001020:	2b00      	cmp	r3, #0
 8001022:	d00c      	beq.n	800103e <cli_set_enable_secret+0x2a>
    (void)cli_strlcpy(cli->enable_privilege_secret, secret ? secret : "",
 8001024:	687b      	ldr	r3, [r7, #4]
 8001026:	f503 703d 	add.w	r0, r3, #756	@ 0x2f4
 800102a:	683b      	ldr	r3, [r7, #0]
 800102c:	2b00      	cmp	r3, #0
 800102e:	d001      	beq.n	8001034 <cli_set_enable_secret+0x20>
 8001030:	683b      	ldr	r3, [r7, #0]
 8001032:	e000      	b.n	8001036 <cli_set_enable_secret+0x22>
 8001034:	4b04      	ldr	r3, [pc, #16]	@ (8001048 <cli_set_enable_secret+0x34>)
 8001036:	2210      	movs	r2, #16
 8001038:	4619      	mov	r1, r3
 800103a:	f000 f92b 	bl	8001294 <cli_strlcpy>
  }
#else
  (void)cli;
  (void)secret;
#endif
}
 800103e:	bf00      	nop
 8001040:	3708      	adds	r7, #8
 8001042:	46bd      	mov	sp, r7
 8001044:	bd80      	pop	{r7, pc}
 8001046:	bf00      	nop
 8001048:	080068bc 	.word	0x080068bc

0800104c <cli_set_exit_root_policy>:
    cli->on_quit_cmd = fn;
  }
}

OPENLIBCLI_API void cli_set_exit_root_policy(cli_struct_t *cli,
                                             cli_exit_root_policy_enum_t policy) {
 800104c:	b480      	push	{r7}
 800104e:	b083      	sub	sp, #12
 8001050:	af00      	add	r7, sp, #0
 8001052:	6078      	str	r0, [r7, #4]
 8001054:	460b      	mov	r3, r1
 8001056:	70fb      	strb	r3, [r7, #3]
  if (cli != NULL) {
 8001058:	687b      	ldr	r3, [r7, #4]
 800105a:	2b00      	cmp	r3, #0
 800105c:	d003      	beq.n	8001066 <cli_set_exit_root_policy+0x1a>
    cli->exit_root_policy = policy;
 800105e:	687b      	ldr	r3, [r7, #4]
 8001060:	78fa      	ldrb	r2, [r7, #3]
 8001062:	f883 2276 	strb.w	r2, [r3, #630]	@ 0x276
  }
}
 8001066:	bf00      	nop
 8001068:	370c      	adds	r7, #12
 800106a:	46bd      	mov	sp, r7
 800106c:	bc80      	pop	{r7}
 800106e:	4770      	bx	lr

08001070 <cli_set_quit_policy>:

OPENLIBCLI_API void cli_set_quit_policy(cli_struct_t *cli, cli_quit_policy_enum_t policy) {
 8001070:	b480      	push	{r7}
 8001072:	b083      	sub	sp, #12
 8001074:	af00      	add	r7, sp, #0
 8001076:	6078      	str	r0, [r7, #4]
 8001078:	460b      	mov	r3, r1
 800107a:	70fb      	strb	r3, [r7, #3]
  if (cli != NULL) {
 800107c:	687b      	ldr	r3, [r7, #4]
 800107e:	2b00      	cmp	r3, #0
 8001080:	d003      	beq.n	800108a <cli_set_quit_policy+0x1a>
    cli->quit_policy = policy;
 8001082:	687b      	ldr	r3, [r7, #4]
 8001084:	78fa      	ldrb	r2, [r7, #3]
 8001086:	f883 2277 	strb.w	r2, [r3, #631]	@ 0x277
  }
}
 800108a:	bf00      	nop
 800108c:	370c      	adds	r7, #12
 800108e:	46bd      	mov	sp, r7
 8001090:	bc80      	pop	{r7}
 8001092:	4770      	bx	lr

08001094 <cli_println_p>:
  }

  return rc;
}

OPENLIBCLI_API int cli_println_p(cli_struct_t *cli, const char *fmt, ...) {
 8001094:	b40e      	push	{r1, r2, r3}
 8001096:	b580      	push	{r7, lr}
 8001098:	b0af      	sub	sp, #188	@ 0xbc
 800109a:	af00      	add	r7, sp, #0
 800109c:	6078      	str	r0, [r7, #4]
  //-V::2604
  va_list ap;
  int rc = 0;
 800109e:	2300      	movs	r3, #0
 80010a0:	f8c7 30b4 	str.w	r3, [r7, #180]	@ 0xb4
  int n;

  if (cli->print_cb_v != NULL) {
 80010a4:	687b      	ldr	r3, [r7, #4]
 80010a6:	f8d3 3438 	ldr.w	r3, [r3, #1080]	@ 0x438
 80010aa:	2b00      	cmp	r3, #0
 80010ac:	d00d      	beq.n	80010ca <cli_println_p+0x36>
    //-V::2604
    (void)va_start(ap, fmt);
 80010ae:	f107 03c8 	add.w	r3, r7, #200	@ 0xc8
 80010b2:	f8c7 30a8 	str.w	r3, [r7, #168]	@ 0xa8
    cli->print_cb_v(cli, fmt, ap);
 80010b6:	687b      	ldr	r3, [r7, #4]
 80010b8:	f8d3 3438 	ldr.w	r3, [r3, #1080]	@ 0x438
 80010bc:	f8d7 20a8 	ldr.w	r2, [r7, #168]	@ 0xa8
 80010c0:	f8d7 10c4 	ldr.w	r1, [r7, #196]	@ 0xc4
 80010c4:	6878      	ldr	r0, [r7, #4]
 80010c6:	4798      	blx	r3
 80010c8:	e03e      	b.n	8001148 <cli_println_p+0xb4>
    (void)va_end(ap);
  } else {
    char buf[CLI_MAX_OUTPUT_BUF];

    //-V::2604
    (void)va_start(ap, fmt);
 80010ca:	f107 03c8 	add.w	r3, r7, #200	@ 0xc8
 80010ce:	f8c7 30a8 	str.w	r3, [r7, #168]	@ 0xa8
#if defined(__AVR__) || defined(ARDUINO_ARCH_AVR)
    //-V:vsnprintf_P:2600
    n = vsnprintf_P(buf, sizeof(buf), fmt, ap);
#else
    n = cli_vsnprintf(buf, sizeof(buf), fmt, ap);
 80010d2:	f107 0008 	add.w	r0, r7, #8
 80010d6:	f8d7 30a8 	ldr.w	r3, [r7, #168]	@ 0xa8
 80010da:	f8d7 20c4 	ldr.w	r2, [r7, #196]	@ 0xc4
 80010de:	21a0      	movs	r1, #160	@ 0xa0
 80010e0:	f000 f8c6 	bl	8001270 <cli_vsnprintf>
 80010e4:	f8c7 00b0 	str.w	r0, [r7, #176]	@ 0xb0
#endif
    //-V::2604
    (void)va_end(ap);

    if (cli->print_cb != NULL) {
 80010e8:	687b      	ldr	r3, [r7, #4]
 80010ea:	f8d3 3434 	ldr.w	r3, [r3, #1076]	@ 0x434
 80010ee:	2b00      	cmp	r3, #0
 80010f0:	d00d      	beq.n	800110e <cli_println_p+0x7a>
      cli->print_cb(cli, buf, CLI_PRINT_KIND_PRINTLN);
 80010f2:	687b      	ldr	r3, [r7, #4]
 80010f4:	f8d3 3434 	ldr.w	r3, [r3, #1076]	@ 0x434
 80010f8:	f107 0108 	add.w	r1, r7, #8
 80010fc:	2201      	movs	r2, #1
 80010fe:	6878      	ldr	r0, [r7, #4]
 8001100:	4798      	blx	r3
      rc = (n + 1);
 8001102:	f8d7 30b0 	ldr.w	r3, [r7, #176]	@ 0xb0
 8001106:	3301      	adds	r3, #1
 8001108:	f8c7 30b4 	str.w	r3, [r7, #180]	@ 0xb4
 800110c:	e01c      	b.n	8001148 <cli_println_p+0xb4>
    } else if (n >= 0) {
 800110e:	f8d7 30b0 	ldr.w	r3, [r7, #176]	@ 0xb0
 8001112:	2b00      	cmp	r3, #0
 8001114:	db18      	blt.n	8001148 <cli_println_p+0xb4>
      int written = (n > (int)sizeof(buf) - 1) ? (int)sizeof(buf) - 1 : n;
 8001116:	f8d7 30b0 	ldr.w	r3, [r7, #176]	@ 0xb0
 800111a:	2b9f      	cmp	r3, #159	@ 0x9f
 800111c:	bfa8      	it	ge
 800111e:	239f      	movge	r3, #159	@ 0x9f
 8001120:	f8c7 30ac 	str.w	r3, [r7, #172]	@ 0xac
      cli_print_process_stream(cli, buf, written);
 8001124:	f107 0308 	add.w	r3, r7, #8
 8001128:	f8d7 20ac 	ldr.w	r2, [r7, #172]	@ 0xac
 800112c:	4619      	mov	r1, r3
 800112e:	6878      	ldr	r0, [r7, #4]
 8001130:	f000 f9de 	bl	80014f0 <cli_print_process_stream>
      cli_print_process_stream(cli, "\n", 1);
 8001134:	2201      	movs	r2, #1
 8001136:	4909      	ldr	r1, [pc, #36]	@ (800115c <cli_println_p+0xc8>)
 8001138:	6878      	ldr	r0, [r7, #4]
 800113a:	f000 f9d9 	bl	80014f0 <cli_print_process_stream>
      rc = (n + 1);
 800113e:	f8d7 30b0 	ldr.w	r3, [r7, #176]	@ 0xb0
 8001142:	3301      	adds	r3, #1
 8001144:	f8c7 30b4 	str.w	r3, [r7, #180]	@ 0xb4
    } else {
      /* To silence MISRA */
    }
  }

  return rc;
 8001148:	f8d7 30b4 	ldr.w	r3, [r7, #180]	@ 0xb4
}
 800114c:	4618      	mov	r0, r3
 800114e:	37bc      	adds	r7, #188	@ 0xbc
 8001150:	46bd      	mov	sp, r7
 8001152:	e8bd 4080 	ldmia.w	sp!, {r7, lr}
 8001156:	b003      	add	sp, #12
 8001158:	4770      	bx	lr
 800115a:	bf00      	nop
 800115c:	08006b5c 	.word	0x08006b5c

08001160 <cli_error_p>:

OPENLIBCLI_API int cli_error_p(cli_struct_t *cli, const char *fmt, ...) {
 8001160:	b40e      	push	{r1, r2, r3}
 8001162:	b580      	push	{r7, lr}
 8001164:	b0ad      	sub	sp, #180	@ 0xb4
 8001166:	af00      	add	r7, sp, #0
 8001168:	6078      	str	r0, [r7, #4]
  //-V::2604
  va_list ap;
  int rc = 0;
 800116a:	2300      	movs	r3, #0
 800116c:	f8c7 30ac 	str.w	r3, [r7, #172]	@ 0xac

  if (cli->print_cb_v != NULL) {
 8001170:	687b      	ldr	r3, [r7, #4]
 8001172:	f8d3 3438 	ldr.w	r3, [r3, #1080]	@ 0x438
 8001176:	2b00      	cmp	r3, #0
 8001178:	d00d      	beq.n	8001196 <cli_error_p+0x36>
    //-V::2604
    (void)va_start(ap, fmt);
 800117a:	f107 03c0 	add.w	r3, r7, #192	@ 0xc0
 800117e:	f8c7 30a8 	str.w	r3, [r7, #168]	@ 0xa8
    cli->print_cb_v(cli, fmt, ap);
 8001182:	687b      	ldr	r3, [r7, #4]
 8001184:	f8d3 3438 	ldr.w	r3, [r3, #1080]	@ 0x438
 8001188:	f8d7 20a8 	ldr.w	r2, [r7, #168]	@ 0xa8
 800118c:	f8d7 10bc 	ldr.w	r1, [r7, #188]	@ 0xbc
 8001190:	6878      	ldr	r0, [r7, #4]
 8001192:	4798      	blx	r3
 8001194:	e046      	b.n	8001224 <cli_error_p+0xc4>
    (void)va_end(ap);
  } else {
    char buf[CLI_MAX_OUTPUT_BUF];

    //-V::2604
    (void)va_start(ap, fmt);
 8001196:	f107 03c0 	add.w	r3, r7, #192	@ 0xc0
 800119a:	f8c7 30a8 	str.w	r3, [r7, #168]	@ 0xa8
#if defined(__AVR__) || defined(ARDUINO_ARCH_AVR)
    //-V:vsnprintf_P:2600
    vsnprintf_P(buf, sizeof(buf), fmt, ap);
#else
    (void)cli_vsnprintf(buf, sizeof(buf), fmt, ap);
 800119e:	f107 0008 	add.w	r0, r7, #8
 80011a2:	f8d7 30a8 	ldr.w	r3, [r7, #168]	@ 0xa8
 80011a6:	f8d7 20bc 	ldr.w	r2, [r7, #188]	@ 0xbc
 80011aa:	21a0      	movs	r1, #160	@ 0xa0
 80011ac:	f000 f860 	bl	8001270 <cli_vsnprintf>
#endif
    //-V::2604
    (void)va_end(ap);

    if (cli->print_cb != NULL) {
 80011b0:	687b      	ldr	r3, [r7, #4]
 80011b2:	f8d3 3434 	ldr.w	r3, [r3, #1076]	@ 0x434
 80011b6:	2b00      	cmp	r3, #0
 80011b8:	d010      	beq.n	80011dc <cli_error_p+0x7c>
      cli->print_cb(cli, buf, CLI_PRINT_KIND_ERROR);
 80011ba:	687b      	ldr	r3, [r7, #4]
 80011bc:	f8d3 3434 	ldr.w	r3, [r3, #1076]	@ 0x434
 80011c0:	f107 0108 	add.w	r1, r7, #8
 80011c4:	2202      	movs	r2, #2
 80011c6:	6878      	ldr	r0, [r7, #4]
 80011c8:	4798      	blx	r3
      rc = (int)strlen(buf);
 80011ca:	f107 0308 	add.w	r3, r7, #8
 80011ce:	4618      	mov	r0, r3
 80011d0:	f7fe ffc6 	bl	8000160 <strlen>
 80011d4:	4603      	mov	r3, r0
 80011d6:	f8c7 30ac 	str.w	r3, [r7, #172]	@ 0xac
 80011da:	e023      	b.n	8001224 <cli_error_p+0xc4>
    } else {
      /* Errors bypass filters and always appear. */
      if (cli->print_transport_cb != NULL) {
 80011dc:	687b      	ldr	r3, [r7, #4]
 80011de:	f8d3 3430 	ldr.w	r3, [r3, #1072]	@ 0x430
 80011e2:	2b00      	cmp	r3, #0
 80011e4:	d008      	beq.n	80011f8 <cli_error_p+0x98>
        cli->print_transport_cb(cli, buf);
 80011e6:	687b      	ldr	r3, [r7, #4]
 80011e8:	f8d3 3430 	ldr.w	r3, [r3, #1072]	@ 0x430
 80011ec:	f107 0208 	add.w	r2, r7, #8
 80011f0:	4611      	mov	r1, r2
 80011f2:	6878      	ldr	r0, [r7, #4]
 80011f4:	4798      	blx	r3
 80011f6:	e00d      	b.n	8001214 <cli_error_p+0xb4>
      } else {
        cli_write_str(cli, "\r\n% ");
 80011f8:	490f      	ldr	r1, [pc, #60]	@ (8001238 <cli_error_p+0xd8>)
 80011fa:	6878      	ldr	r0, [r7, #4]
 80011fc:	f000 f8d5 	bl	80013aa <cli_write_str>
        cli_write_str(cli, buf);
 8001200:	f107 0308 	add.w	r3, r7, #8
 8001204:	4619      	mov	r1, r3
 8001206:	6878      	ldr	r0, [r7, #4]
 8001208:	f000 f8cf 	bl	80013aa <cli_write_str>
        cli_write_str(cli, "\r\n");
 800120c:	490b      	ldr	r1, [pc, #44]	@ (800123c <cli_error_p+0xdc>)
 800120e:	6878      	ldr	r0, [r7, #4]
 8001210:	f000 f8cb 	bl	80013aa <cli_write_str>
      }
      rc = (int)strlen(buf);
 8001214:	f107 0308 	add.w	r3, r7, #8
 8001218:	4618      	mov	r0, r3
 800121a:	f7fe ffa1 	bl	8000160 <strlen>
 800121e:	4603      	mov	r3, r0
 8001220:	f8c7 30ac 	str.w	r3, [r7, #172]	@ 0xac
    }
  }

  return rc;
 8001224:	f8d7 30ac 	ldr.w	r3, [r7, #172]	@ 0xac
}
 8001228:	4618      	mov	r0, r3
 800122a:	37b4      	adds	r7, #180	@ 0xb4
 800122c:	46bd      	mov	sp, r7
 800122e:	e8bd 4080 	ldmia.w	sp!, {r7, lr}
 8001232:	b003      	add	sp, #12
 8001234:	4770      	bx	lr
 8001236:	bf00      	nop
 8001238:	08006b60 	.word	0x08006b60
 800123c:	08006b24 	.word	0x08006b24

08001240 <cli_snprintf>:
  if (cli != NULL) {
    cli->print_cb_v = cb;
  }
}

OPENLIBCLI_API int cli_snprintf(char *buf, size_t size, const char *fmt, ...) {
 8001240:	b40c      	push	{r2, r3}
 8001242:	b580      	push	{r7, lr}
 8001244:	b084      	sub	sp, #16
 8001246:	af00      	add	r7, sp, #0
 8001248:	6078      	str	r0, [r7, #4]
 800124a:	6039      	str	r1, [r7, #0]
  //-V::2604
  va_list ap;
  int n;

  //-V::2604
  (void)va_start(ap, fmt);
 800124c:	f107 031c 	add.w	r3, r7, #28
 8001250:	60bb      	str	r3, [r7, #8]
  n = cli_vsnprintf(buf, size, fmt, ap);
 8001252:	68bb      	ldr	r3, [r7, #8]
 8001254:	69ba      	ldr	r2, [r7, #24]
 8001256:	6839      	ldr	r1, [r7, #0]
 8001258:	6878      	ldr	r0, [r7, #4]
 800125a:	f000 f809 	bl	8001270 <cli_vsnprintf>
 800125e:	60f8      	str	r0, [r7, #12]
  //-V::2604
  (void)va_end(ap);

  return n;
 8001260:	68fb      	ldr	r3, [r7, #12]
}
 8001262:	4618      	mov	r0, r3
 8001264:	3710      	adds	r7, #16
 8001266:	46bd      	mov	sp, r7
 8001268:	e8bd 4080 	ldmia.w	sp!, {r7, lr}
 800126c:	b002      	add	sp, #8
 800126e:	4770      	bx	lr

08001270 <cli_vsnprintf>:

//-V::2604
OPENLIBCLI_API int cli_vsnprintf(char *buf, size_t size, const char *fmt, va_list ap) {
 8001270:	b580      	push	{r7, lr}
 8001272:	b084      	sub	sp, #16
 8001274:	af00      	add	r7, sp, #0
 8001276:	60f8      	str	r0, [r7, #12]
 8001278:	60b9      	str	r1, [r7, #8]
 800127a:	607a      	str	r2, [r7, #4]
 800127c:	603b      	str	r3, [r7, #0]
  //-V::2600
  return vsnprintf(buf, size, fmt, ap);
 800127e:	683b      	ldr	r3, [r7, #0]
 8001280:	687a      	ldr	r2, [r7, #4]
 8001282:	68b9      	ldr	r1, [r7, #8]
 8001284:	68f8      	ldr	r0, [r7, #12]
 8001286:	f004 fd9f 	bl	8005dc8 <vsniprintf>
 800128a:	4603      	mov	r3, r0
}
 800128c:	4618      	mov	r0, r3
 800128e:	3710      	adds	r7, #16
 8001290:	46bd      	mov	sp, r7
 8001292:	bd80      	pop	{r7, pc}

08001294 <cli_strlcpy>:
 * Private Functions
 *=======================================================================================*/

/* Internal String Helpers ---------------------------------------------------------------*/

static size_t cli_strlcpy(char *dst, const char *src, size_t size) {
 8001294:	b480      	push	{r7}
 8001296:	b087      	sub	sp, #28
 8001298:	af00      	add	r7, sp, #0
 800129a:	60f8      	str	r0, [r7, #12]
 800129c:	60b9      	str	r1, [r7, #8]
 800129e:	607a      	str	r2, [r7, #4]
  size_t i = 0;
 80012a0:	2300      	movs	r3, #0
 80012a2:	617b      	str	r3, [r7, #20]
  if (size > 1U) {
 80012a4:	687b      	ldr	r3, [r7, #4]
 80012a6:	2b01      	cmp	r3, #1
 80012a8:	d916      	bls.n	80012d8 <cli_strlcpy+0x44>
    while (i < size - 1U && src[i] != '\0') {
 80012aa:	e00a      	b.n	80012c2 <cli_strlcpy+0x2e>
      dst[i] = src[i];
 80012ac:	68ba      	ldr	r2, [r7, #8]
 80012ae:	697b      	ldr	r3, [r7, #20]
 80012b0:	441a      	add	r2, r3
 80012b2:	68f9      	ldr	r1, [r7, #12]
 80012b4:	697b      	ldr	r3, [r7, #20]
 80012b6:	440b      	add	r3, r1
 80012b8:	7812      	ldrb	r2, [r2, #0]
 80012ba:	701a      	strb	r2, [r3, #0]
      i++;
 80012bc:	697b      	ldr	r3, [r7, #20]
 80012be:	3301      	adds	r3, #1
 80012c0:	617b      	str	r3, [r7, #20]
    while (i < size - 1U && src[i] != '\0') {
 80012c2:	687b      	ldr	r3, [r7, #4]
 80012c4:	3b01      	subs	r3, #1
 80012c6:	697a      	ldr	r2, [r7, #20]
 80012c8:	429a      	cmp	r2, r3
 80012ca:	d205      	bcs.n	80012d8 <cli_strlcpy+0x44>
 80012cc:	68ba      	ldr	r2, [r7, #8]
 80012ce:	697b      	ldr	r3, [r7, #20]
 80012d0:	4413      	add	r3, r2
 80012d2:	781b      	ldrb	r3, [r3, #0]
 80012d4:	2b00      	cmp	r3, #0
 80012d6:	d1e9      	bne.n	80012ac <cli_strlcpy+0x18>
    }
  }
  if (size > 0U) {
 80012d8:	687b      	ldr	r3, [r7, #4]
 80012da:	2b00      	cmp	r3, #0
 80012dc:	d004      	beq.n	80012e8 <cli_strlcpy+0x54>
    dst[i] = '\0';
 80012de:	68fa      	ldr	r2, [r7, #12]
 80012e0:	697b      	ldr	r3, [r7, #20]
 80012e2:	4413      	add	r3, r2
 80012e4:	2200      	movs	r2, #0
 80012e6:	701a      	strb	r2, [r3, #0]
  }
  return i;
 80012e8:	697b      	ldr	r3, [r7, #20]
}
 80012ea:	4618      	mov	r0, r3
 80012ec:	371c      	adds	r7, #28
 80012ee:	46bd      	mov	sp, r7
 80012f0:	bc80      	pop	{r7}
 80012f2:	4770      	bx	lr

080012f4 <cli_case_prefix_match>:

static bool cli_case_prefix_match(const char *str, const char *prefix) {
 80012f4:	b480      	push	{r7}
 80012f6:	b087      	sub	sp, #28
 80012f8:	af00      	add	r7, sp, #0
 80012fa:	6078      	str	r0, [r7, #4]
 80012fc:	6039      	str	r1, [r7, #0]
  bool match = (bool)true;
 80012fe:	2301      	movs	r3, #1
 8001300:	75fb      	strb	r3, [r7, #23]

  while (*prefix != '\0' && match) {
 8001302:	e02b      	b.n	800135c <cli_case_prefix_match+0x68>
    if (tolower((int)(unsigned char)*str) != tolower((int)(unsigned char)*prefix)) {
 8001304:	687b      	ldr	r3, [r7, #4]
 8001306:	781b      	ldrb	r3, [r3, #0]
 8001308:	613b      	str	r3, [r7, #16]
 800130a:	693b      	ldr	r3, [r7, #16]
 800130c:	3301      	adds	r3, #1
 800130e:	4a1a      	ldr	r2, [pc, #104]	@ (8001378 <cli_case_prefix_match+0x84>)
 8001310:	4413      	add	r3, r2
 8001312:	781b      	ldrb	r3, [r3, #0]
 8001314:	f003 0303 	and.w	r3, r3, #3
 8001318:	2b01      	cmp	r3, #1
 800131a:	d103      	bne.n	8001324 <cli_case_prefix_match+0x30>
 800131c:	693b      	ldr	r3, [r7, #16]
 800131e:	f103 0220 	add.w	r2, r3, #32
 8001322:	e000      	b.n	8001326 <cli_case_prefix_match+0x32>
 8001324:	693a      	ldr	r2, [r7, #16]
 8001326:	683b      	ldr	r3, [r7, #0]
 8001328:	781b      	ldrb	r3, [r3, #0]
 800132a:	60fb      	str	r3, [r7, #12]
 800132c:	68fb      	ldr	r3, [r7, #12]
 800132e:	3301      	adds	r3, #1
 8001330:	4911      	ldr	r1, [pc, #68]	@ (8001378 <cli_case_prefix_match+0x84>)
 8001332:	440b      	add	r3, r1
 8001334:	781b      	ldrb	r3, [r3, #0]
 8001336:	f003 0303 	and.w	r3, r3, #3
 800133a:	2b01      	cmp	r3, #1
 800133c:	d102      	bne.n	8001344 <cli_case_prefix_match+0x50>
 800133e:	68fb      	ldr	r3, [r7, #12]
 8001340:	3320      	adds	r3, #32
 8001342:	e000      	b.n	8001346 <cli_case_prefix_match+0x52>
 8001344:	68fb      	ldr	r3, [r7, #12]
 8001346:	429a      	cmp	r2, r3
 8001348:	d002      	beq.n	8001350 <cli_case_prefix_match+0x5c>
      match = (bool)false;
 800134a:	2300      	movs	r3, #0
 800134c:	75fb      	strb	r3, [r7, #23]
 800134e:	e005      	b.n	800135c <cli_case_prefix_match+0x68>
    } else {
      str++;
 8001350:	687b      	ldr	r3, [r7, #4]
 8001352:	3301      	adds	r3, #1
 8001354:	607b      	str	r3, [r7, #4]
      prefix++;
 8001356:	683b      	ldr	r3, [r7, #0]
 8001358:	3301      	adds	r3, #1
 800135a:	603b      	str	r3, [r7, #0]
  while (*prefix != '\0' && match) {
 800135c:	683b      	ldr	r3, [r7, #0]
 800135e:	781b      	ldrb	r3, [r3, #0]
 8001360:	2b00      	cmp	r3, #0
 8001362:	d002      	beq.n	800136a <cli_case_prefix_match+0x76>
 8001364:	7dfb      	ldrb	r3, [r7, #23]
 8001366:	2b00      	cmp	r3, #0
 8001368:	d1cc      	bne.n	8001304 <cli_case_prefix_match+0x10>
    }
  }

  return match;
 800136a:	7dfb      	ldrb	r3, [r7, #23]
}
 800136c:	4618      	mov	r0, r3
 800136e:	371c      	adds	r7, #28
 8001370:	46bd      	mov	sp, r7
 8001372:	bc80      	pop	{r7}
 8001374:	4770      	bx	lr
 8001376:	bf00      	nop
 8001378:	080070a2 	.word	0x080070a2

0800137c <cli_raw_write>:
 * @brief Write a raw byte buffer to the transport.
 * @param[in] cli  Active CLI session.
 * @param[in] buf  Buffer to transmit.
 * @param[in] len  Number of bytes to transmit (no-op if <= 0).
 */
static void cli_raw_write(cli_struct_t *cli, const uint8_t *buf, cli_transport_buflen_t len) {
 800137c:	b580      	push	{r7, lr}
 800137e:	b084      	sub	sp, #16
 8001380:	af00      	add	r7, sp, #0
 8001382:	60f8      	str	r0, [r7, #12]
 8001384:	60b9      	str	r1, [r7, #8]
 8001386:	607a      	str	r2, [r7, #4]
  if (cli != NULL && len > 0) {
 8001388:	68fb      	ldr	r3, [r7, #12]
 800138a:	2b00      	cmp	r3, #0
 800138c:	d009      	beq.n	80013a2 <cli_raw_write+0x26>
 800138e:	687b      	ldr	r3, [r7, #4]
 8001390:	2b00      	cmp	r3, #0
 8001392:	dd06      	ble.n	80013a2 <cli_raw_write+0x26>
    (void)cli->transport.write(cli->transport.ctx, buf, len);
 8001394:	68fb      	ldr	r3, [r7, #12]
 8001396:	68db      	ldr	r3, [r3, #12]
 8001398:	68fa      	ldr	r2, [r7, #12]
 800139a:	6950      	ldr	r0, [r2, #20]
 800139c:	687a      	ldr	r2, [r7, #4]
 800139e:	68b9      	ldr	r1, [r7, #8]
 80013a0:	4798      	blx	r3
  }
}
 80013a2:	bf00      	nop
 80013a4:	3710      	adds	r7, #16
 80013a6:	46bd      	mov	sp, r7
 80013a8:	bd80      	pop	{r7, pc}

080013aa <cli_write_str>:
/**
 * @brief Write a NUL-terminated string to the transport.
 * @param[in] cli  Active CLI session.
 * @param[in] s    String to transmit; no-op if NULL.
 */
static void cli_write_str(cli_struct_t *cli, const char *s) {
 80013aa:	b580      	push	{r7, lr}
 80013ac:	b082      	sub	sp, #8
 80013ae:	af00      	add	r7, sp, #0
 80013b0:	6078      	str	r0, [r7, #4]
 80013b2:	6039      	str	r1, [r7, #0]
  if (s != NULL) {
 80013b4:	683b      	ldr	r3, [r7, #0]
 80013b6:	2b00      	cmp	r3, #0
 80013b8:	d008      	beq.n	80013cc <cli_write_str+0x22>
    cli_raw_write(cli, (const uint8_t *)s, (cli_transport_buflen_t)strlen(s));
 80013ba:	6838      	ldr	r0, [r7, #0]
 80013bc:	f7fe fed0 	bl	8000160 <strlen>
 80013c0:	4603      	mov	r3, r0
 80013c2:	461a      	mov	r2, r3
 80013c4:	6839      	ldr	r1, [r7, #0]
 80013c6:	6878      	ldr	r0, [r7, #4]
 80013c8:	f7ff ffd8 	bl	800137c <cli_raw_write>
  }
}
 80013cc:	bf00      	nop
 80013ce:	3708      	adds	r7, #8
 80013d0:	46bd      	mov	sp, r7
 80013d2:	bd80      	pop	{r7, pc}

080013d4 <cli_write_char>:
/**
 * @brief Write a single character to the transport.
 * @param[in] cli  Active CLI session.
 * @param[in] c    Character to transmit.
 */
static void cli_write_char(cli_struct_t *cli, char c) {
 80013d4:	b580      	push	{r7, lr}
 80013d6:	b082      	sub	sp, #8
 80013d8:	af00      	add	r7, sp, #0
 80013da:	6078      	str	r0, [r7, #4]
 80013dc:	460b      	mov	r3, r1
 80013de:	70fb      	strb	r3, [r7, #3]
  cli_raw_write(cli, (const uint8_t *)&c, 1);
 80013e0:	1cfb      	adds	r3, r7, #3
 80013e2:	2201      	movs	r2, #1
 80013e4:	4619      	mov	r1, r3
 80013e6:	6878      	ldr	r0, [r7, #4]
 80013e8:	f7ff ffc8 	bl	800137c <cli_raw_write>
}
 80013ec:	bf00      	nop
 80013ee:	3708      	adds	r7, #8
 80013f0:	46bd      	mov	sp, r7
 80013f2:	bd80      	pop	{r7, pc}

080013f4 <cli_flush>:

/**
 * @brief Flush the transport's send buffer if a flush function is registered.
 * @param[in] cli  Active CLI session.
 */
static void cli_flush(cli_struct_t *cli) {
 80013f4:	b580      	push	{r7, lr}
 80013f6:	b082      	sub	sp, #8
 80013f8:	af00      	add	r7, sp, #0
 80013fa:	6078      	str	r0, [r7, #4]
  if (cli->transport.flush != NULL) {
 80013fc:	687b      	ldr	r3, [r7, #4]
 80013fe:	691b      	ldr	r3, [r3, #16]
 8001400:	2b00      	cmp	r3, #0
 8001402:	d005      	beq.n	8001410 <cli_flush+0x1c>
    (void)cli->transport.flush(cli->transport.ctx);
 8001404:	687b      	ldr	r3, [r7, #4]
 8001406:	691b      	ldr	r3, [r3, #16]
 8001408:	687a      	ldr	r2, [r7, #4]
 800140a:	6952      	ldr	r2, [r2, #20]
 800140c:	4610      	mov	r0, r2
 800140e:	4798      	blx	r3
  }
}
 8001410:	bf00      	nop
 8001412:	3708      	adds	r7, #8
 8001414:	46bd      	mov	sp, r7
 8001416:	bd80      	pop	{r7, pc}

08001418 <cli_touch_activity_internal>:

/**
 * @brief Record the current time as the last user-activity timestamp.
 * @param[in] cli  Active CLI session.
 */
static void cli_touch_activity_internal(cli_struct_t *cli) {
 8001418:	b580      	push	{r7, lr}
 800141a:	b082      	sub	sp, #8
 800141c:	af00      	add	r7, sp, #0
 800141e:	6078      	str	r0, [r7, #4]
#if CLI_ENABLE_IDLE_TIMEOUT && CLI_ENABLE_TIME_SOURCE
  if (cli != NULL && cli->time_source != NULL) {
 8001420:	687b      	ldr	r3, [r7, #4]
 8001422:	2b00      	cmp	r3, #0
 8001424:	d010      	beq.n	8001448 <cli_touch_activity_internal+0x30>
 8001426:	687b      	ldr	r3, [r7, #4]
 8001428:	f8d3 3418 	ldr.w	r3, [r3, #1048]	@ 0x418
 800142c:	2b00      	cmp	r3, #0
 800142e:	d00b      	beq.n	8001448 <cli_touch_activity_internal+0x30>
    cli->last_action_ts = cli->time_source(cli->time_source_ctx);
 8001430:	687b      	ldr	r3, [r7, #4]
 8001432:	f8d3 3418 	ldr.w	r3, [r3, #1048]	@ 0x418
 8001436:	687a      	ldr	r2, [r7, #4]
 8001438:	f8d2 241c 	ldr.w	r2, [r2, #1052]	@ 0x41c
 800143c:	4610      	mov	r0, r2
 800143e:	4798      	blx	r3
 8001440:	4602      	mov	r2, r0
 8001442:	687b      	ldr	r3, [r7, #4]
 8001444:	f8c3 2400 	str.w	r2, [r3, #1024]	@ 0x400
  }
#else
  (void)cli;
#endif
}
 8001448:	bf00      	nop
 800144a:	3708      	adds	r7, #8
 800144c:	46bd      	mov	sp, r7
 800144e:	bd80      	pop	{r7, pc}

08001450 <cli_handle_idle_timeout>:
 * @param[in] cli  Active CLI session.
 *
 * @return @c CLI_OK if the session was reset and should continue, or
 *         @c CLI_ERR_QUIT if the session should terminate.
 */
static int8_t cli_handle_idle_timeout(cli_struct_t *cli) {
 8001450:	b580      	push	{r7, lr}
 8001452:	b084      	sub	sp, #16
 8001454:	af00      	add	r7, sp, #0
 8001456:	6078      	str	r0, [r7, #4]
  int8_t rc = CLI_OK;
 8001458:	2300      	movs	r3, #0
 800145a:	73fb      	strb	r3, [r7, #15]

  if (cli->idle_timeout_cb != NULL) { //>! user callback
 800145c:	687b      	ldr	r3, [r7, #4]
 800145e:	f8d3 3408 	ldr.w	r3, [r3, #1032]	@ 0x408
 8001462:	2b00      	cmp	r3, #0
 8001464:	d007      	beq.n	8001476 <cli_handle_idle_timeout+0x26>
    rc = cli->idle_timeout_cb(cli);
 8001466:	687b      	ldr	r3, [r7, #4]
 8001468:	f8d3 3408 	ldr.w	r3, [r3, #1032]	@ 0x408
 800146c:	6878      	ldr	r0, [r7, #4]
 800146e:	4798      	blx	r3
 8001470:	4603      	mov	r3, r0
 8001472:	73fb      	strb	r3, [r7, #15]
 8001474:	e032      	b.n	80014dc <cli_handle_idle_timeout+0x8c>
  } else {
    if (cli->idle_timeout_policy == CLI_IDLE_TIMEOUT_POLICY_RESET_SESSION) {
 8001476:	687b      	ldr	r3, [r7, #4]
 8001478:	f893 3404 	ldrb.w	r3, [r3, #1028]	@ 0x404
 800147c:	2b01      	cmp	r3, #1
 800147e:	d11e      	bne.n	80014be <cli_handle_idle_timeout+0x6e>
      CLI_WSTR(cli, "\r\n% Idle timeout. Session restarted.\r\n");
 8001480:	4919      	ldr	r1, [pc, #100]	@ (80014e8 <cli_handle_idle_timeout+0x98>)
 8001482:	6878      	ldr	r0, [r7, #4]
 8001484:	f7ff ff91 	bl	80013aa <cli_write_str>
      cli_restart_session(cli);
 8001488:	6878      	ldr	r0, [r7, #4]
 800148a:	f7ff fb94 	bl	8000bb6 <cli_restart_session>
      /* Prevent immediate re-trigger: update last activity timestamps */
      if (cli->time_source != NULL) {
 800148e:	687b      	ldr	r3, [r7, #4]
 8001490:	f8d3 3418 	ldr.w	r3, [r3, #1048]	@ 0x418
 8001494:	2b00      	cmp	r3, #0
 8001496:	d021      	beq.n	80014dc <cli_handle_idle_timeout+0x8c>
        cli->last_action_ts = cli->time_source(cli->time_source_ctx);
 8001498:	687b      	ldr	r3, [r7, #4]
 800149a:	f8d3 3418 	ldr.w	r3, [r3, #1048]	@ 0x418
 800149e:	687a      	ldr	r2, [r7, #4]
 80014a0:	f8d2 241c 	ldr.w	r2, [r2, #1052]	@ 0x41c
 80014a4:	4610      	mov	r0, r2
 80014a6:	4798      	blx	r3
 80014a8:	4602      	mov	r2, r0
 80014aa:	687b      	ldr	r3, [r7, #4]
 80014ac:	f8c3 2400 	str.w	r2, [r3, #1024]	@ 0x400
#if CLI_ENABLE_PERIODIC_CALLBACK
        cli->last_periodic_ts = cli->last_action_ts;
 80014b0:	687b      	ldr	r3, [r7, #4]
 80014b2:	f8d3 2400 	ldr.w	r2, [r3, #1024]	@ 0x400
 80014b6:	687b      	ldr	r3, [r7, #4]
 80014b8:	f8c3 2410 	str.w	r2, [r3, #1040]	@ 0x410
 80014bc:	e00e      	b.n	80014dc <cli_handle_idle_timeout+0x8c>
#endif
      }
    } else if (cli->idle_timeout_policy == CLI_IDLE_TIMEOUT_POLICY_CLOSE) {
 80014be:	687b      	ldr	r3, [r7, #4]
 80014c0:	f893 3404 	ldrb.w	r3, [r3, #1028]	@ 0x404
 80014c4:	2b00      	cmp	r3, #0
 80014c6:	d109      	bne.n	80014dc <cli_handle_idle_timeout+0x8c>
      CLI_WSTR(cli, "\r\n% Idle timeout.\r\n");
 80014c8:	4908      	ldr	r1, [pc, #32]	@ (80014ec <cli_handle_idle_timeout+0x9c>)
 80014ca:	6878      	ldr	r0, [r7, #4]
 80014cc:	f7ff ff6d 	bl	80013aa <cli_write_str>
      cli->session_state = CLI_SESSION_STOP;
 80014d0:	687b      	ldr	r3, [r7, #4]
 80014d2:	2203      	movs	r2, #3
 80014d4:	f883 2275 	strb.w	r2, [r3, #629]	@ 0x275
      rc = CLI_ERR_QUIT;
 80014d8:	23fe      	movs	r3, #254	@ 0xfe
 80014da:	73fb      	strb	r3, [r7, #15]
    } else {
      /* CLI_IDLE_TIMEOUT_POLICY_IGNORE */
    }
  }

  return rc;
 80014dc:	f997 300f 	ldrsb.w	r3, [r7, #15]
}
 80014e0:	4618      	mov	r0, r3
 80014e2:	3710      	adds	r7, #16
 80014e4:	46bd      	mov	sp, r7
 80014e6:	bd80      	pop	{r7, pc}
 80014e8:	08006b68 	.word	0x08006b68
 80014ec:	08006b90 	.word	0x08006b90

080014f0 <cli_print_process_stream>:
 *
 * @param[in] cli   Active CLI session.
 * @param[in] data  Character stream to process.
 * @param[in] len   Number of bytes available in @p data.
 */
static void cli_print_process_stream(cli_struct_t *cli, const char *data, int len) {
 80014f0:	b580      	push	{r7, lr}
 80014f2:	b086      	sub	sp, #24
 80014f4:	af00      	add	r7, sp, #0
 80014f6:	60f8      	str	r0, [r7, #12]
 80014f8:	60b9      	str	r1, [r7, #8]
 80014fa:	607a      	str	r2, [r7, #4]
    } else {
      /* To silence MISRA */
    }
  }
#else
  for (int i = 0; i < len; i++) {
 80014fc:	2300      	movs	r3, #0
 80014fe:	617b      	str	r3, [r7, #20]
 8001500:	e017      	b.n	8001532 <cli_print_process_stream+0x42>
    char c = data[i];
 8001502:	697b      	ldr	r3, [r7, #20]
 8001504:	68ba      	ldr	r2, [r7, #8]
 8001506:	4413      	add	r3, r2
 8001508:	781b      	ldrb	r3, [r3, #0]
 800150a:	74fb      	strb	r3, [r7, #19]

    if (c == '\n') {
 800150c:	7cfb      	ldrb	r3, [r7, #19]
 800150e:	2b0a      	cmp	r3, #10
 8001510:	d104      	bne.n	800151c <cli_print_process_stream+0x2c>
      cli_write_str(cli, "\r\n");
 8001512:	490c      	ldr	r1, [pc, #48]	@ (8001544 <cli_print_process_stream+0x54>)
 8001514:	68f8      	ldr	r0, [r7, #12]
 8001516:	f7ff ff48 	bl	80013aa <cli_write_str>
 800151a:	e007      	b.n	800152c <cli_print_process_stream+0x3c>
    } else if (c != '\r') {
 800151c:	7cfb      	ldrb	r3, [r7, #19]
 800151e:	2b0d      	cmp	r3, #13
 8001520:	d004      	beq.n	800152c <cli_print_process_stream+0x3c>
      cli_write_char(cli, c);
 8001522:	7cfb      	ldrb	r3, [r7, #19]
 8001524:	4619      	mov	r1, r3
 8001526:	68f8      	ldr	r0, [r7, #12]
 8001528:	f7ff ff54 	bl	80013d4 <cli_write_char>
  for (int i = 0; i < len; i++) {
 800152c:	697b      	ldr	r3, [r7, #20]
 800152e:	3301      	adds	r3, #1
 8001530:	617b      	str	r3, [r7, #20]
 8001532:	697a      	ldr	r2, [r7, #20]
 8001534:	687b      	ldr	r3, [r7, #4]
 8001536:	429a      	cmp	r2, r3
 8001538:	dbe3      	blt.n	8001502 <cli_print_process_stream+0x12>
    } else {
      /* To silence MISRA */
    }
  }
#endif
}
 800153a:	bf00      	nop
 800153c:	bf00      	nop
 800153e:	3718      	adds	r7, #24
 8001540:	46bd      	mov	sp, r7
 8001542:	bd80      	pop	{r7, pc}
 8001544:	08006b24 	.word	0x08006b24

08001548 <cli_history_capture_edited_preview>:

static void cli_history_capture_edited_preview(cli_struct_t *cli) {
 8001548:	b580      	push	{r7, lr}
 800154a:	b082      	sub	sp, #8
 800154c:	af00      	add	r7, sp, #0
 800154e:	6078      	str	r0, [r7, #4]
#if CLI_ENABLE_HISTORY && CLI_HISTORY_RESTORE_PREBROWSE_LINE
  if (cli != NULL && cli->history_nav > 0) {
 8001550:	687b      	ldr	r3, [r7, #4]
 8001552:	2b00      	cmp	r3, #0
 8001554:	d00e      	beq.n	8001574 <cli_history_capture_edited_preview+0x2c>
 8001556:	687b      	ldr	r3, [r7, #4]
 8001558:	f9b3 339a 	ldrsh.w	r3, [r3, #922]	@ 0x39a
 800155c:	2b00      	cmp	r3, #0
 800155e:	dd09      	ble.n	8001574 <cli_history_capture_edited_preview+0x2c>
    (void)cli_strlcpy(cli->history_saved, cli->input, CLI_MAX_INPUT_LEN);
 8001560:	687b      	ldr	r3, [r7, #4]
 8001562:	f503 7067 	add.w	r0, r3, #924	@ 0x39c
 8001566:	687b      	ldr	r3, [r7, #4]
 8001568:	f503 73a0 	add.w	r3, r3, #320	@ 0x140
 800156c:	2260      	movs	r2, #96	@ 0x60
 800156e:	4619      	mov	r1, r3
 8001570:	f7ff fe90 	bl	8001294 <cli_strlcpy>
  }
#else
  (void)cli;
#endif
}
 8001574:	bf00      	nop
 8001576:	3708      	adds	r7, #8
 8001578:	46bd      	mov	sp, r7
 800157a:	bd80      	pop	{r7, pc}

0800157c <cli_redraw_line>:
 * Moves to the beginning of the line, reprints the prompt and input buffer,
 * then repositions the cursor at @c cli->cursor.
 *
 * @param[in] cli  Active CLI session.
 */
static void cli_redraw_line(cli_struct_t *cli) {
 800157c:	b580      	push	{r7, lr}
 800157e:	b084      	sub	sp, #16
 8001580:	af00      	add	r7, sp, #0
 8001582:	6078      	str	r0, [r7, #4]
  /* Move to start of line, clear to EOL, reprint input */
  CLI_WSTR(cli, "\r");
 8001584:	4919      	ldr	r1, [pc, #100]	@ (80015ec <cli_redraw_line+0x70>)
 8001586:	6878      	ldr	r0, [r7, #4]
 8001588:	f7ff ff0f 	bl	80013aa <cli_write_str>
  cli_show_prompt(cli);
 800158c:	6878      	ldr	r0, [r7, #4]
 800158e:	f000 fa2c 	bl	80019ea <cli_show_prompt>

  cli_raw_write(cli, (const uint8_t *)cli->input, cli->input_len);
 8001592:	687b      	ldr	r3, [r7, #4]
 8001594:	f503 71a0 	add.w	r1, r3, #320	@ 0x140
 8001598:	687b      	ldr	r3, [r7, #4]
 800159a:	f8d3 31a0 	ldr.w	r3, [r3, #416]	@ 0x1a0
 800159e:	461a      	mov	r2, r3
 80015a0:	6878      	ldr	r0, [r7, #4]
 80015a2:	f7ff feeb 	bl	800137c <cli_raw_write>

  if (cli->ansi_supported) {
 80015a6:	687b      	ldr	r3, [r7, #4]
 80015a8:	f893 3429 	ldrb.w	r3, [r3, #1065]	@ 0x429
 80015ac:	2b00      	cmp	r3, #0
 80015ae:	d019      	beq.n	80015e4 <cli_redraw_line+0x68>
    CLI_WSTR(cli, "\x1b"
 80015b0:	490f      	ldr	r1, [pc, #60]	@ (80015f0 <cli_redraw_line+0x74>)
 80015b2:	6878      	ldr	r0, [r7, #4]
 80015b4:	f7ff fef9 	bl	80013aa <cli_write_str>
                  "[K");

    /* If cursor is not at end, move it back */
    cli_len_t trail = cli->input_len - cli->cursor;
 80015b8:	687b      	ldr	r3, [r7, #4]
 80015ba:	f8d3 21a0 	ldr.w	r2, [r3, #416]	@ 0x1a0
 80015be:	687b      	ldr	r3, [r7, #4]
 80015c0:	f8d3 31a4 	ldr.w	r3, [r3, #420]	@ 0x1a4
 80015c4:	1ad3      	subs	r3, r2, r3
 80015c6:	60bb      	str	r3, [r7, #8]
    for (cli_len_t i = 0; i < trail; i++) {
 80015c8:	2300      	movs	r3, #0
 80015ca:	60fb      	str	r3, [r7, #12]
 80015cc:	e006      	b.n	80015dc <cli_redraw_line+0x60>
      cli_write_char(cli, ASCII_BS);
 80015ce:	2108      	movs	r1, #8
 80015d0:	6878      	ldr	r0, [r7, #4]
 80015d2:	f7ff feff 	bl	80013d4 <cli_write_char>
    for (cli_len_t i = 0; i < trail; i++) {
 80015d6:	68fb      	ldr	r3, [r7, #12]
 80015d8:	3301      	adds	r3, #1
 80015da:	60fb      	str	r3, [r7, #12]
 80015dc:	68fa      	ldr	r2, [r7, #12]
 80015de:	68bb      	ldr	r3, [r7, #8]
 80015e0:	429a      	cmp	r2, r3
 80015e2:	dbf4      	blt.n	80015ce <cli_redraw_line+0x52>
    }
  }
}
 80015e4:	bf00      	nop
 80015e6:	3710      	adds	r7, #16
 80015e8:	46bd      	mov	sp, r7
 80015ea:	bd80      	pop	{r7, pc}
 80015ec:	08006ba4 	.word	0x08006ba4
 80015f0:	08006ba8 	.word	0x08006ba8

080015f4 <cli_move_cursor_delta>:
 * @c cli_move_cursor, which clamps the final position to valid input bounds.
 *
 * @param[in] cli    Active CLI session.
 * @param[in] delta  Relative movement (+right, -left).
 */
static void cli_move_cursor_delta(cli_struct_t *cli, int16_t delta) {
 80015f4:	b580      	push	{r7, lr}
 80015f6:	b084      	sub	sp, #16
 80015f8:	af00      	add	r7, sp, #0
 80015fa:	6078      	str	r0, [r7, #4]
 80015fc:	460b      	mov	r3, r1
 80015fe:	807b      	strh	r3, [r7, #2]
  if (delta >= 0) {
 8001600:	f9b7 3002 	ldrsh.w	r3, [r7, #2]
 8001604:	2b00      	cmp	r3, #0
 8001606:	db0a      	blt.n	800161e <cli_move_cursor_delta+0x2a>
    cli_move_cursor(cli, cli->cursor + delta);
 8001608:	687b      	ldr	r3, [r7, #4]
 800160a:	f8d3 21a4 	ldr.w	r2, [r3, #420]	@ 0x1a4
 800160e:	f9b7 3002 	ldrsh.w	r3, [r7, #2]
 8001612:	4413      	add	r3, r2
 8001614:	4619      	mov	r1, r3
 8001616:	6878      	ldr	r0, [r7, #4]
 8001618:	f000 f829 	bl	800166e <cli_move_cursor>
  } else {
    cli_len_t d = -delta;
    cli_move_cursor(cli, (d > cli->cursor) ? 0 : cli->cursor - d);
  }
}
 800161c:	e014      	b.n	8001648 <cli_move_cursor_delta+0x54>
    cli_len_t d = -delta;
 800161e:	f9b7 3002 	ldrsh.w	r3, [r7, #2]
 8001622:	425b      	negs	r3, r3
 8001624:	60fb      	str	r3, [r7, #12]
    cli_move_cursor(cli, (d > cli->cursor) ? 0 : cli->cursor - d);
 8001626:	687b      	ldr	r3, [r7, #4]
 8001628:	f8d3 31a4 	ldr.w	r3, [r3, #420]	@ 0x1a4
 800162c:	68fa      	ldr	r2, [r7, #12]
 800162e:	429a      	cmp	r2, r3
 8001630:	dc05      	bgt.n	800163e <cli_move_cursor_delta+0x4a>
 8001632:	687b      	ldr	r3, [r7, #4]
 8001634:	f8d3 21a4 	ldr.w	r2, [r3, #420]	@ 0x1a4
 8001638:	68fb      	ldr	r3, [r7, #12]
 800163a:	1ad3      	subs	r3, r2, r3
 800163c:	e000      	b.n	8001640 <cli_move_cursor_delta+0x4c>
 800163e:	2300      	movs	r3, #0
 8001640:	4619      	mov	r1, r3
 8001642:	6878      	ldr	r0, [r7, #4]
 8001644:	f000 f813 	bl	800166e <cli_move_cursor>
}
 8001648:	bf00      	nop
 800164a:	3710      	adds	r7, #16
 800164c:	46bd      	mov	sp, r7
 800164e:	bd80      	pop	{r7, pc}

08001650 <cli_move_cursor_end>:
 * Convenience wrapper around @c cli_move_cursor using @c input_len as the
 * target position.
 *
 * @param[in] cli  Active CLI session.
 */
static void cli_move_cursor_end(cli_struct_t *cli) {
 8001650:	b580      	push	{r7, lr}
 8001652:	b082      	sub	sp, #8
 8001654:	af00      	add	r7, sp, #0
 8001656:	6078      	str	r0, [r7, #4]
  cli_move_cursor(cli, cli->input_len);
 8001658:	687b      	ldr	r3, [r7, #4]
 800165a:	f8d3 31a0 	ldr.w	r3, [r3, #416]	@ 0x1a0
 800165e:	4619      	mov	r1, r3
 8001660:	6878      	ldr	r0, [r7, #4]
 8001662:	f000 f804 	bl	800166e <cli_move_cursor>
}
 8001666:	bf00      	nop
 8001668:	3708      	adds	r7, #8
 800166a:	46bd      	mov	sp, r7
 800166c:	bd80      	pop	{r7, pc}

0800166e <cli_move_cursor>:
/**
 * @brief Move the logical and display cursor to an absolute position.
 * @param[in] cli  Active CLI session.
 * @param[in] pos  Target position (clamped to [0, input_len]).
 */
static void cli_move_cursor(cli_struct_t *cli, cli_len_t pos) {
 800166e:	b580      	push	{r7, lr}
 8001670:	b082      	sub	sp, #8
 8001672:	af00      	add	r7, sp, #0
 8001674:	6078      	str	r0, [r7, #4]
 8001676:	6039      	str	r1, [r7, #0]
  if (pos > cli->input_len) {
 8001678:	687b      	ldr	r3, [r7, #4]
 800167a:	f8d3 31a0 	ldr.w	r3, [r3, #416]	@ 0x1a0
 800167e:	683a      	ldr	r2, [r7, #0]
 8001680:	429a      	cmp	r2, r3
 8001682:	dd16      	ble.n	80016b2 <cli_move_cursor+0x44>
    pos = cli->input_len;
 8001684:	687b      	ldr	r3, [r7, #4]
 8001686:	f8d3 31a0 	ldr.w	r3, [r3, #416]	@ 0x1a0
 800168a:	603b      	str	r3, [r7, #0]
  }

  while (cli->cursor < pos) {
 800168c:	e011      	b.n	80016b2 <cli_move_cursor+0x44>
    cli_write_char(cli, cli->input[cli->cursor]);
 800168e:	687b      	ldr	r3, [r7, #4]
 8001690:	f8d3 31a4 	ldr.w	r3, [r3, #420]	@ 0x1a4
 8001694:	687a      	ldr	r2, [r7, #4]
 8001696:	4413      	add	r3, r2
 8001698:	f893 3140 	ldrb.w	r3, [r3, #320]	@ 0x140
 800169c:	4619      	mov	r1, r3
 800169e:	6878      	ldr	r0, [r7, #4]
 80016a0:	f7ff fe98 	bl	80013d4 <cli_write_char>
    cli->cursor++;
 80016a4:	687b      	ldr	r3, [r7, #4]
 80016a6:	f8d3 31a4 	ldr.w	r3, [r3, #420]	@ 0x1a4
 80016aa:	1c5a      	adds	r2, r3, #1
 80016ac:	687b      	ldr	r3, [r7, #4]
 80016ae:	f8c3 21a4 	str.w	r2, [r3, #420]	@ 0x1a4
  while (cli->cursor < pos) {
 80016b2:	687b      	ldr	r3, [r7, #4]
 80016b4:	f8d3 31a4 	ldr.w	r3, [r3, #420]	@ 0x1a4
 80016b8:	683a      	ldr	r2, [r7, #0]
 80016ba:	429a      	cmp	r2, r3
 80016bc:	dce7      	bgt.n	800168e <cli_move_cursor+0x20>
  }
  while (cli->cursor > pos) {
 80016be:	e00a      	b.n	80016d6 <cli_move_cursor+0x68>
    cli_write_char(cli, ASCII_BS);
 80016c0:	2108      	movs	r1, #8
 80016c2:	6878      	ldr	r0, [r7, #4]
 80016c4:	f7ff fe86 	bl	80013d4 <cli_write_char>
    cli->cursor--;
 80016c8:	687b      	ldr	r3, [r7, #4]
 80016ca:	f8d3 31a4 	ldr.w	r3, [r3, #420]	@ 0x1a4
 80016ce:	1e5a      	subs	r2, r3, #1
 80016d0:	687b      	ldr	r3, [r7, #4]
 80016d2:	f8c3 21a4 	str.w	r2, [r3, #420]	@ 0x1a4
  while (cli->cursor > pos) {
 80016d6:	687b      	ldr	r3, [r7, #4]
 80016d8:	f8d3 31a4 	ldr.w	r3, [r3, #420]	@ 0x1a4
 80016dc:	683a      	ldr	r2, [r7, #0]
 80016de:	429a      	cmp	r2, r3
 80016e0:	dbee      	blt.n	80016c0 <cli_move_cursor+0x52>
  }
}
 80016e2:	bf00      	nop
 80016e4:	bf00      	nop
 80016e6:	3708      	adds	r7, #8
 80016e8:	46bd      	mov	sp, r7
 80016ea:	bd80      	pop	{r7, pc}

080016ec <cli_insert_char>:
/**
 * @brief Insert a character at the current cursor position, shifting right.
 * @param[in] cli  Active CLI session.
 * @param[in] c    Character to insert.
 */
static void cli_insert_char(cli_struct_t *cli, char c) {
 80016ec:	b580      	push	{r7, lr}
 80016ee:	b084      	sub	sp, #16
 80016f0:	af00      	add	r7, sp, #0
 80016f2:	6078      	str	r0, [r7, #4]
 80016f4:	460b      	mov	r3, r1
 80016f6:	70fb      	strb	r3, [r7, #3]
  if (cli->input_len >= (int)CLI_MAX_INPUT_LEN - 1) {
 80016f8:	687b      	ldr	r3, [r7, #4]
 80016fa:	f8d3 31a0 	ldr.w	r3, [r3, #416]	@ 0x1a0
 80016fe:	2b5e      	cmp	r3, #94	@ 0x5e
 8001700:	dd04      	ble.n	800170c <cli_insert_char+0x20>
    cli_write_char(cli, '\a');
 8001702:	2107      	movs	r1, #7
 8001704:	6878      	ldr	r0, [r7, #4]
 8001706:	f7ff fe65 	bl	80013d4 <cli_write_char>
      cli_write_char(cli, ASCII_BS);
    }
    cli->cursor++;
    cli_history_capture_edited_preview(cli);
  }
}
 800170a:	e062      	b.n	80017d2 <cli_insert_char+0xe6>
    (void)memmove(&cli->input[cli->cursor + 1], &cli->input[cli->cursor],
 800170c:	687b      	ldr	r3, [r7, #4]
 800170e:	f8d3 31a4 	ldr.w	r3, [r3, #420]	@ 0x1a4
 8001712:	3301      	adds	r3, #1
 8001714:	f503 73a0 	add.w	r3, r3, #320	@ 0x140
 8001718:	687a      	ldr	r2, [r7, #4]
 800171a:	18d0      	adds	r0, r2, r3
 800171c:	687b      	ldr	r3, [r7, #4]
 800171e:	f8d3 31a4 	ldr.w	r3, [r3, #420]	@ 0x1a4
 8001722:	f503 73a0 	add.w	r3, r3, #320	@ 0x140
 8001726:	687a      	ldr	r2, [r7, #4]
 8001728:	18d1      	adds	r1, r2, r3
                  (size_t)(cli->input_len - cli->cursor));
 800172a:	687b      	ldr	r3, [r7, #4]
 800172c:	f8d3 21a0 	ldr.w	r2, [r3, #416]	@ 0x1a0
 8001730:	687b      	ldr	r3, [r7, #4]
 8001732:	f8d3 31a4 	ldr.w	r3, [r3, #420]	@ 0x1a4
 8001736:	1ad3      	subs	r3, r2, r3
    (void)memmove(&cli->input[cli->cursor + 1], &cli->input[cli->cursor],
 8001738:	461a      	mov	r2, r3
 800173a:	f004 fb53 	bl	8005de4 <memmove>
    cli->input[cli->cursor] = c;
 800173e:	687b      	ldr	r3, [r7, #4]
 8001740:	f8d3 31a4 	ldr.w	r3, [r3, #420]	@ 0x1a4
 8001744:	687a      	ldr	r2, [r7, #4]
 8001746:	4413      	add	r3, r2
 8001748:	78fa      	ldrb	r2, [r7, #3]
 800174a:	f883 2140 	strb.w	r2, [r3, #320]	@ 0x140
    cli->input_len++;
 800174e:	687b      	ldr	r3, [r7, #4]
 8001750:	f8d3 31a0 	ldr.w	r3, [r3, #416]	@ 0x1a0
 8001754:	1c5a      	adds	r2, r3, #1
 8001756:	687b      	ldr	r3, [r7, #4]
 8001758:	f8c3 21a0 	str.w	r2, [r3, #416]	@ 0x1a0
    cli->input[cli->input_len] = '\0';
 800175c:	687b      	ldr	r3, [r7, #4]
 800175e:	f8d3 31a0 	ldr.w	r3, [r3, #416]	@ 0x1a0
 8001762:	687a      	ldr	r2, [r7, #4]
 8001764:	4413      	add	r3, r2
 8001766:	2200      	movs	r2, #0
 8001768:	f883 2140 	strb.w	r2, [r3, #320]	@ 0x140
    cli_raw_write(cli, (const uint8_t *)&cli->input[cli->cursor], cli->input_len - cli->cursor);
 800176c:	687b      	ldr	r3, [r7, #4]
 800176e:	f8d3 31a4 	ldr.w	r3, [r3, #420]	@ 0x1a4
 8001772:	f503 73a0 	add.w	r3, r3, #320	@ 0x140
 8001776:	687a      	ldr	r2, [r7, #4]
 8001778:	18d1      	adds	r1, r2, r3
 800177a:	687b      	ldr	r3, [r7, #4]
 800177c:	f8d3 21a0 	ldr.w	r2, [r3, #416]	@ 0x1a0
 8001780:	687b      	ldr	r3, [r7, #4]
 8001782:	f8d3 31a4 	ldr.w	r3, [r3, #420]	@ 0x1a4
 8001786:	1ad3      	subs	r3, r2, r3
 8001788:	461a      	mov	r2, r3
 800178a:	6878      	ldr	r0, [r7, #4]
 800178c:	f7ff fdf6 	bl	800137c <cli_raw_write>
    cli_len_t trail = cli->input_len - cli->cursor - 1;
 8001790:	687b      	ldr	r3, [r7, #4]
 8001792:	f8d3 21a0 	ldr.w	r2, [r3, #416]	@ 0x1a0
 8001796:	687b      	ldr	r3, [r7, #4]
 8001798:	f8d3 31a4 	ldr.w	r3, [r3, #420]	@ 0x1a4
 800179c:	1ad3      	subs	r3, r2, r3
 800179e:	3b01      	subs	r3, #1
 80017a0:	60bb      	str	r3, [r7, #8]
    for (cli_len_t i = 0; i < trail; i++) {
 80017a2:	2300      	movs	r3, #0
 80017a4:	60fb      	str	r3, [r7, #12]
 80017a6:	e006      	b.n	80017b6 <cli_insert_char+0xca>
      cli_write_char(cli, ASCII_BS);
 80017a8:	2108      	movs	r1, #8
 80017aa:	6878      	ldr	r0, [r7, #4]
 80017ac:	f7ff fe12 	bl	80013d4 <cli_write_char>
    for (cli_len_t i = 0; i < trail; i++) {
 80017b0:	68fb      	ldr	r3, [r7, #12]
 80017b2:	3301      	adds	r3, #1
 80017b4:	60fb      	str	r3, [r7, #12]
 80017b6:	68fa      	ldr	r2, [r7, #12]
 80017b8:	68bb      	ldr	r3, [r7, #8]
 80017ba:	429a      	cmp	r2, r3
 80017bc:	dbf4      	blt.n	80017a8 <cli_insert_char+0xbc>
    cli->cursor++;
 80017be:	687b      	ldr	r3, [r7, #4]
 80017c0:	f8d3 31a4 	ldr.w	r3, [r3, #420]	@ 0x1a4
 80017c4:	1c5a      	adds	r2, r3, #1
 80017c6:	687b      	ldr	r3, [r7, #4]
 80017c8:	f8c3 21a4 	str.w	r2, [r3, #420]	@ 0x1a4
    cli_history_capture_edited_preview(cli);
 80017cc:	6878      	ldr	r0, [r7, #4]
 80017ce:	f7ff febb 	bl	8001548 <cli_history_capture_edited_preview>
}
 80017d2:	bf00      	nop
 80017d4:	3710      	adds	r7, #16
 80017d6:	46bd      	mov	sp, r7
 80017d8:	bd80      	pop	{r7, pc}

080017da <cli_delete_char>:

/**
 * @brief Delete the character under the cursor (forward delete).
 * @param[in] cli  Active CLI session.
 */
static void cli_delete_char(cli_struct_t *cli) {
 80017da:	b580      	push	{r7, lr}
 80017dc:	b084      	sub	sp, #16
 80017de:	af00      	add	r7, sp, #0
 80017e0:	6078      	str	r0, [r7, #4]
  if (cli->cursor < cli->input_len) {
 80017e2:	687b      	ldr	r3, [r7, #4]
 80017e4:	f8d3 21a4 	ldr.w	r2, [r3, #420]	@ 0x1a4
 80017e8:	687b      	ldr	r3, [r7, #4]
 80017ea:	f8d3 31a0 	ldr.w	r3, [r3, #416]	@ 0x1a0
 80017ee:	429a      	cmp	r2, r3
 80017f0:	da58      	bge.n	80018a4 <cli_delete_char+0xca>
    (void)memmove(&cli->input[cli->cursor], &cli->input[cli->cursor + 1],
 80017f2:	687b      	ldr	r3, [r7, #4]
 80017f4:	f8d3 31a4 	ldr.w	r3, [r3, #420]	@ 0x1a4
 80017f8:	f503 73a0 	add.w	r3, r3, #320	@ 0x140
 80017fc:	687a      	ldr	r2, [r7, #4]
 80017fe:	18d0      	adds	r0, r2, r3
 8001800:	687b      	ldr	r3, [r7, #4]
 8001802:	f8d3 31a4 	ldr.w	r3, [r3, #420]	@ 0x1a4
 8001806:	3301      	adds	r3, #1
 8001808:	f503 73a0 	add.w	r3, r3, #320	@ 0x140
 800180c:	687a      	ldr	r2, [r7, #4]
 800180e:	18d1      	adds	r1, r2, r3
                  (size_t)(cli->input_len - cli->cursor - 1));
 8001810:	687b      	ldr	r3, [r7, #4]
 8001812:	f8d3 21a0 	ldr.w	r2, [r3, #416]	@ 0x1a0
 8001816:	687b      	ldr	r3, [r7, #4]
 8001818:	f8d3 31a4 	ldr.w	r3, [r3, #420]	@ 0x1a4
 800181c:	1ad3      	subs	r3, r2, r3
 800181e:	3b01      	subs	r3, #1
    (void)memmove(&cli->input[cli->cursor], &cli->input[cli->cursor + 1],
 8001820:	461a      	mov	r2, r3
 8001822:	f004 fadf 	bl	8005de4 <memmove>
    cli->input_len--;
 8001826:	687b      	ldr	r3, [r7, #4]
 8001828:	f8d3 31a0 	ldr.w	r3, [r3, #416]	@ 0x1a0
 800182c:	1e5a      	subs	r2, r3, #1
 800182e:	687b      	ldr	r3, [r7, #4]
 8001830:	f8c3 21a0 	str.w	r2, [r3, #416]	@ 0x1a0
    cli->input[cli->input_len] = '\0';
 8001834:	687b      	ldr	r3, [r7, #4]
 8001836:	f8d3 31a0 	ldr.w	r3, [r3, #416]	@ 0x1a0
 800183a:	687a      	ldr	r2, [r7, #4]
 800183c:	4413      	add	r3, r2
 800183e:	2200      	movs	r2, #0
 8001840:	f883 2140 	strb.w	r2, [r3, #320]	@ 0x140

    /* Rewrite tail, append space to erase last char, reposition */
    cli_raw_write(cli, (const uint8_t *)&cli->input[cli->cursor], cli->input_len - cli->cursor);
 8001844:	687b      	ldr	r3, [r7, #4]
 8001846:	f8d3 31a4 	ldr.w	r3, [r3, #420]	@ 0x1a4
 800184a:	f503 73a0 	add.w	r3, r3, #320	@ 0x140
 800184e:	687a      	ldr	r2, [r7, #4]
 8001850:	18d1      	adds	r1, r2, r3
 8001852:	687b      	ldr	r3, [r7, #4]
 8001854:	f8d3 21a0 	ldr.w	r2, [r3, #416]	@ 0x1a0
 8001858:	687b      	ldr	r3, [r7, #4]
 800185a:	f8d3 31a4 	ldr.w	r3, [r3, #420]	@ 0x1a4
 800185e:	1ad3      	subs	r3, r2, r3
 8001860:	461a      	mov	r2, r3
 8001862:	6878      	ldr	r0, [r7, #4]
 8001864:	f7ff fd8a 	bl	800137c <cli_raw_write>
    cli_write_char(cli, ' ');
 8001868:	2120      	movs	r1, #32
 800186a:	6878      	ldr	r0, [r7, #4]
 800186c:	f7ff fdb2 	bl	80013d4 <cli_write_char>
    cli_len_t trail = cli->input_len - cli->cursor + 1;
 8001870:	687b      	ldr	r3, [r7, #4]
 8001872:	f8d3 21a0 	ldr.w	r2, [r3, #416]	@ 0x1a0
 8001876:	687b      	ldr	r3, [r7, #4]
 8001878:	f8d3 31a4 	ldr.w	r3, [r3, #420]	@ 0x1a4
 800187c:	1ad3      	subs	r3, r2, r3
 800187e:	3301      	adds	r3, #1
 8001880:	60bb      	str	r3, [r7, #8]
    for (cli_len_t i = 0; i < trail; i++) {
 8001882:	2300      	movs	r3, #0
 8001884:	60fb      	str	r3, [r7, #12]
 8001886:	e006      	b.n	8001896 <cli_delete_char+0xbc>
      cli_write_char(cli, ASCII_BS);
 8001888:	2108      	movs	r1, #8
 800188a:	6878      	ldr	r0, [r7, #4]
 800188c:	f7ff fda2 	bl	80013d4 <cli_write_char>
    for (cli_len_t i = 0; i < trail; i++) {
 8001890:	68fb      	ldr	r3, [r7, #12]
 8001892:	3301      	adds	r3, #1
 8001894:	60fb      	str	r3, [r7, #12]
 8001896:	68fa      	ldr	r2, [r7, #12]
 8001898:	68bb      	ldr	r3, [r7, #8]
 800189a:	429a      	cmp	r2, r3
 800189c:	dbf4      	blt.n	8001888 <cli_delete_char+0xae>
    }
    cli_history_capture_edited_preview(cli);
 800189e:	6878      	ldr	r0, [r7, #4]
 80018a0:	f7ff fe52 	bl	8001548 <cli_history_capture_edited_preview>
  }
}
 80018a4:	bf00      	nop
 80018a6:	3710      	adds	r7, #16
 80018a8:	46bd      	mov	sp, r7
 80018aa:	bd80      	pop	{r7, pc}

080018ac <cli_backspace>:

/**
 * @brief Delete the character before the cursor (backspace).
 * @param[in] cli  Active CLI session.
 */
static void cli_backspace(cli_struct_t *cli) {
 80018ac:	b580      	push	{r7, lr}
 80018ae:	b082      	sub	sp, #8
 80018b0:	af00      	add	r7, sp, #0
 80018b2:	6078      	str	r0, [r7, #4]
  if (cli->cursor > 0) {
 80018b4:	687b      	ldr	r3, [r7, #4]
 80018b6:	f8d3 31a4 	ldr.w	r3, [r3, #420]	@ 0x1a4
 80018ba:	2b00      	cmp	r3, #0
 80018bc:	dd0d      	ble.n	80018da <cli_backspace+0x2e>
    /* Keep terminal cursor in sync with logical cursor before delete. */
    cli_write_char(cli, ASCII_BS);
 80018be:	2108      	movs	r1, #8
 80018c0:	6878      	ldr	r0, [r7, #4]
 80018c2:	f7ff fd87 	bl	80013d4 <cli_write_char>
    cli->cursor--;
 80018c6:	687b      	ldr	r3, [r7, #4]
 80018c8:	f8d3 31a4 	ldr.w	r3, [r3, #420]	@ 0x1a4
 80018cc:	1e5a      	subs	r2, r3, #1
 80018ce:	687b      	ldr	r3, [r7, #4]
 80018d0:	f8c3 21a4 	str.w	r2, [r3, #420]	@ 0x1a4
    cli_delete_char(cli);
 80018d4:	6878      	ldr	r0, [r7, #4]
 80018d6:	f7ff ff80 	bl	80017da <cli_delete_char>
  }
}
 80018da:	bf00      	nop
 80018dc:	3708      	adds	r7, #8
 80018de:	46bd      	mov	sp, r7
 80018e0:	bd80      	pop	{r7, pc}

080018e2 <cli_kill_line>:

/**
 * @brief Erase from the cursor to the end of the input line (Ctrl+K).
 * @param[in] cli  Active CLI session.
 */
static void cli_kill_line(cli_struct_t *cli) {
 80018e2:	b580      	push	{r7, lr}
 80018e4:	b086      	sub	sp, #24
 80018e6:	af00      	add	r7, sp, #0
 80018e8:	6078      	str	r0, [r7, #4]
  /* Erase from cursor to end */
  cli_len_t erase = cli->input_len - cli->cursor;
 80018ea:	687b      	ldr	r3, [r7, #4]
 80018ec:	f8d3 21a0 	ldr.w	r2, [r3, #416]	@ 0x1a0
 80018f0:	687b      	ldr	r3, [r7, #4]
 80018f2:	f8d3 31a4 	ldr.w	r3, [r3, #420]	@ 0x1a4
 80018f6:	1ad3      	subs	r3, r2, r3
 80018f8:	60fb      	str	r3, [r7, #12]
  for (cli_len_t i = 0; i < erase; i++) {
 80018fa:	2300      	movs	r3, #0
 80018fc:	617b      	str	r3, [r7, #20]
 80018fe:	e006      	b.n	800190e <cli_kill_line+0x2c>
    cli_write_char(cli, ' ');
 8001900:	2120      	movs	r1, #32
 8001902:	6878      	ldr	r0, [r7, #4]
 8001904:	f7ff fd66 	bl	80013d4 <cli_write_char>
  for (cli_len_t i = 0; i < erase; i++) {
 8001908:	697b      	ldr	r3, [r7, #20]
 800190a:	3301      	adds	r3, #1
 800190c:	617b      	str	r3, [r7, #20]
 800190e:	697a      	ldr	r2, [r7, #20]
 8001910:	68fb      	ldr	r3, [r7, #12]
 8001912:	429a      	cmp	r2, r3
 8001914:	dbf4      	blt.n	8001900 <cli_kill_line+0x1e>
  }

  for (cli_len_t i = 0; i < erase; i++) {
 8001916:	2300      	movs	r3, #0
 8001918:	613b      	str	r3, [r7, #16]
 800191a:	e006      	b.n	800192a <cli_kill_line+0x48>
    cli_write_char(cli, ASCII_BS);
 800191c:	2108      	movs	r1, #8
 800191e:	6878      	ldr	r0, [r7, #4]
 8001920:	f7ff fd58 	bl	80013d4 <cli_write_char>
  for (cli_len_t i = 0; i < erase; i++) {
 8001924:	693b      	ldr	r3, [r7, #16]
 8001926:	3301      	adds	r3, #1
 8001928:	613b      	str	r3, [r7, #16]
 800192a:	693a      	ldr	r2, [r7, #16]
 800192c:	68fb      	ldr	r3, [r7, #12]
 800192e:	429a      	cmp	r2, r3
 8001930:	dbf4      	blt.n	800191c <cli_kill_line+0x3a>
  }

  cli->input_len = cli->cursor;
 8001932:	687b      	ldr	r3, [r7, #4]
 8001934:	f8d3 21a4 	ldr.w	r2, [r3, #420]	@ 0x1a4
 8001938:	687b      	ldr	r3, [r7, #4]
 800193a:	f8c3 21a0 	str.w	r2, [r3, #416]	@ 0x1a0
  cli->input[cli->input_len] = '\0';
 800193e:	687b      	ldr	r3, [r7, #4]
 8001940:	f8d3 31a0 	ldr.w	r3, [r3, #416]	@ 0x1a0
 8001944:	687a      	ldr	r2, [r7, #4]
 8001946:	4413      	add	r3, r2
 8001948:	2200      	movs	r2, #0
 800194a:	f883 2140 	strb.w	r2, [r3, #320]	@ 0x140
  cli_history_capture_edited_preview(cli);
 800194e:	6878      	ldr	r0, [r7, #4]
 8001950:	f7ff fdfa 	bl	8001548 <cli_history_capture_edited_preview>
}
 8001954:	bf00      	nop
 8001956:	3718      	adds	r7, #24
 8001958:	46bd      	mov	sp, r7
 800195a:	bd80      	pop	{r7, pc}

0800195c <cli_kill_word>:

/**
 * @brief Delete the word immediately before the cursor (Ctrl+W).
 * @param[in] cli  Active CLI session.
 */
static void cli_kill_word(cli_struct_t *cli) {
 800195c:	b580      	push	{r7, lr}
 800195e:	b082      	sub	sp, #8
 8001960:	af00      	add	r7, sp, #0
 8001962:	6078      	str	r0, [r7, #4]
  /* Delete word (run of non-spaces) before cursor, skip leading spaces */
  while (cli->cursor > 0 && cli->input[cli->cursor - 1] == ' ') {
 8001964:	e002      	b.n	800196c <cli_kill_word+0x10>
    cli_backspace(cli);
 8001966:	6878      	ldr	r0, [r7, #4]
 8001968:	f7ff ffa0 	bl	80018ac <cli_backspace>
  while (cli->cursor > 0 && cli->input[cli->cursor - 1] == ' ') {
 800196c:	687b      	ldr	r3, [r7, #4]
 800196e:	f8d3 31a4 	ldr.w	r3, [r3, #420]	@ 0x1a4
 8001972:	2b00      	cmp	r3, #0
 8001974:	dd0d      	ble.n	8001992 <cli_kill_word+0x36>
 8001976:	687b      	ldr	r3, [r7, #4]
 8001978:	f8d3 31a4 	ldr.w	r3, [r3, #420]	@ 0x1a4
 800197c:	3b01      	subs	r3, #1
 800197e:	687a      	ldr	r2, [r7, #4]
 8001980:	4413      	add	r3, r2
 8001982:	f893 3140 	ldrb.w	r3, [r3, #320]	@ 0x140
 8001986:	2b20      	cmp	r3, #32
 8001988:	d0ed      	beq.n	8001966 <cli_kill_word+0xa>
  }

  while (cli->cursor > 0 && cli->input[cli->cursor - 1] != ' ') {
 800198a:	e002      	b.n	8001992 <cli_kill_word+0x36>
    cli_backspace(cli);
 800198c:	6878      	ldr	r0, [r7, #4]
 800198e:	f7ff ff8d 	bl	80018ac <cli_backspace>
  while (cli->cursor > 0 && cli->input[cli->cursor - 1] != ' ') {
 8001992:	687b      	ldr	r3, [r7, #4]
 8001994:	f8d3 31a4 	ldr.w	r3, [r3, #420]	@ 0x1a4
 8001998:	2b00      	cmp	r3, #0
 800199a:	dd09      	ble.n	80019b0 <cli_kill_word+0x54>
 800199c:	687b      	ldr	r3, [r7, #4]
 800199e:	f8d3 31a4 	ldr.w	r3, [r3, #420]	@ 0x1a4
 80019a2:	3b01      	subs	r3, #1
 80019a4:	687a      	ldr	r2, [r7, #4]
 80019a6:	4413      	add	r3, r2
 80019a8:	f893 3140 	ldrb.w	r3, [r3, #320]	@ 0x140
 80019ac:	2b20      	cmp	r3, #32
 80019ae:	d1ed      	bne.n	800198c <cli_kill_word+0x30>
  }
}
 80019b0:	bf00      	nop
 80019b2:	3708      	adds	r7, #8
 80019b4:	46bd      	mov	sp, r7
 80019b6:	bd80      	pop	{r7, pc}

080019b8 <cli_clear_input>:

/**
 * @brief Clear the entire input buffer and erase the displayed line (Ctrl+U).
 * @param[in] cli  Active CLI session.
 */
static void cli_clear_input(cli_struct_t *cli) {
 80019b8:	b580      	push	{r7, lr}
 80019ba:	b082      	sub	sp, #8
 80019bc:	af00      	add	r7, sp, #0
 80019be:	6078      	str	r0, [r7, #4]
  cli_move_cursor(cli, cli->input_len);
 80019c0:	687b      	ldr	r3, [r7, #4]
 80019c2:	f8d3 31a0 	ldr.w	r3, [r3, #416]	@ 0x1a0
 80019c6:	4619      	mov	r1, r3
 80019c8:	6878      	ldr	r0, [r7, #4]
 80019ca:	f7ff fe50 	bl	800166e <cli_move_cursor>
  while (cli->input_len > 0) {
 80019ce:	e002      	b.n	80019d6 <cli_clear_input+0x1e>
    cli_backspace(cli);
 80019d0:	6878      	ldr	r0, [r7, #4]
 80019d2:	f7ff ff6b 	bl	80018ac <cli_backspace>
  while (cli->input_len > 0) {
 80019d6:	687b      	ldr	r3, [r7, #4]
 80019d8:	f8d3 31a0 	ldr.w	r3, [r3, #416]	@ 0x1a0
 80019dc:	2b00      	cmp	r3, #0
 80019de:	dcf7      	bgt.n	80019d0 <cli_clear_input+0x18>
  }
}
 80019e0:	bf00      	nop
 80019e2:	bf00      	nop
 80019e4:	3708      	adds	r7, #8
 80019e6:	46bd      	mov	sp, r7
 80019e8:	bd80      	pop	{r7, pc}

080019ea <cli_show_prompt>:
 * Builds a prompt of the form @c "hostname(mode)# " or @c "hostname> ",
 * respecting the active context stack and @c show_prompt flag.
 *
 * @param[in] cli  Active CLI session.
 */
static void cli_show_prompt(cli_struct_t *cli) {
 80019ea:	b580      	push	{r7, lr}
 80019ec:	b092      	sub	sp, #72	@ 0x48
 80019ee:	af00      	add	r7, sp, #0
 80019f0:	6078      	str	r0, [r7, #4]
  if (cli != NULL) {
 80019f2:	687b      	ldr	r3, [r7, #4]
 80019f4:	2b00      	cmp	r3, #0
 80019f6:	f000 80cd 	beq.w	8001b94 <cli_show_prompt+0x1aa>
#if CLI_ENABLE_MODE_NAMES
    char prompt[CLI_MAX_PROMPT_LEN + CLI_MAX_MODE_NAME_LEN + 8];
#else
    char prompt[CLI_MAX_PROMPT_LEN + 8];
#endif
    size_t pos = 0;
 80019fa:	2300      	movs	r3, #0
 80019fc:	647b      	str	r3, [r7, #68]	@ 0x44
    bool emitted = (bool)false;
 80019fe:	2300      	movs	r3, #0
 8001a00:	f887 3043 	strb.w	r3, [r7, #67]	@ 0x43

    if (cli->context != CLI_CMD_ROOT) {
 8001a04:	687b      	ldr	r3, [r7, #4]
 8001a06:	6a5b      	ldr	r3, [r3, #36]	@ 0x24
 8001a08:	f113 0f02 	cmn.w	r3, #2
 8001a0c:	d047      	beq.n	8001a9e <cli_show_prompt+0xb4>
      cli_cmd_handle_t cur = cli->context;
 8001a0e:	687b      	ldr	r3, [r7, #4]
 8001a10:	6a5b      	ldr	r3, [r3, #36]	@ 0x24
 8001a12:	63fb      	str	r3, [r7, #60]	@ 0x3c
      if (cur < cli->cmd_pool_size && CLI_CMD_IS_IN_USE(&cli->cmd_pool[cur])) {
 8001a14:	687b      	ldr	r3, [r7, #4]
 8001a16:	69db      	ldr	r3, [r3, #28]
 8001a18:	6bfa      	ldr	r2, [r7, #60]	@ 0x3c
 8001a1a:	429a      	cmp	r2, r3
 8001a1c:	da3f      	bge.n	8001a9e <cli_show_prompt+0xb4>
 8001a1e:	687b      	ldr	r3, [r7, #4]
 8001a20:	699a      	ldr	r2, [r3, #24]
 8001a22:	6bfb      	ldr	r3, [r7, #60]	@ 0x3c
 8001a24:	2164      	movs	r1, #100	@ 0x64
 8001a26:	fb01 f303 	mul.w	r3, r1, r3
 8001a2a:	4413      	add	r3, r2
 8001a2c:	f893 3061 	ldrb.w	r3, [r3, #97]	@ 0x61
 8001a30:	f003 0302 	and.w	r3, r3, #2
 8001a34:	2b00      	cmp	r3, #0
 8001a36:	d032      	beq.n	8001a9e <cli_show_prompt+0xb4>
        pos = cli_strlcpy(&prompt[pos], cli->cmd_pool[cur].name, sizeof(prompt));
 8001a38:	f107 020c 	add.w	r2, r7, #12
 8001a3c:	6c7b      	ldr	r3, [r7, #68]	@ 0x44
 8001a3e:	18d0      	adds	r0, r2, r3
 8001a40:	687b      	ldr	r3, [r7, #4]
 8001a42:	699a      	ldr	r2, [r3, #24]
 8001a44:	6bfb      	ldr	r3, [r7, #60]	@ 0x3c
 8001a46:	2164      	movs	r1, #100	@ 0x64
 8001a48:	fb01 f303 	mul.w	r3, r1, r3
 8001a4c:	4413      	add	r3, r2
 8001a4e:	3304      	adds	r3, #4
 8001a50:	2230      	movs	r2, #48	@ 0x30
 8001a52:	4619      	mov	r1, r3
 8001a54:	f7ff fc1e 	bl	8001294 <cli_strlcpy>
 8001a58:	6478      	str	r0, [r7, #68]	@ 0x44
        prompt[pos++] = '>';
 8001a5a:	6c7b      	ldr	r3, [r7, #68]	@ 0x44
 8001a5c:	1c5a      	adds	r2, r3, #1
 8001a5e:	647a      	str	r2, [r7, #68]	@ 0x44
 8001a60:	3348      	adds	r3, #72	@ 0x48
 8001a62:	443b      	add	r3, r7
 8001a64:	223e      	movs	r2, #62	@ 0x3e
 8001a66:	f803 2c3c 	strb.w	r2, [r3, #-60]
        prompt[pos++] = ' ';
 8001a6a:	6c7b      	ldr	r3, [r7, #68]	@ 0x44
 8001a6c:	1c5a      	adds	r2, r3, #1
 8001a6e:	647a      	str	r2, [r7, #68]	@ 0x44
 8001a70:	3348      	adds	r3, #72	@ 0x48
 8001a72:	443b      	add	r3, r7
 8001a74:	2220      	movs	r2, #32
 8001a76:	f803 2c3c 	strb.w	r2, [r3, #-60]
        prompt[pos] = '\0';
 8001a7a:	f107 020c 	add.w	r2, r7, #12
 8001a7e:	6c7b      	ldr	r3, [r7, #68]	@ 0x44
 8001a80:	4413      	add	r3, r2
 8001a82:	2200      	movs	r2, #0
 8001a84:	701a      	strb	r2, [r3, #0]
        cli_write_str(cli, prompt);
 8001a86:	f107 030c 	add.w	r3, r7, #12
 8001a8a:	4619      	mov	r1, r3
 8001a8c:	6878      	ldr	r0, [r7, #4]
 8001a8e:	f7ff fc8c 	bl	80013aa <cli_write_str>
        cli_flush(cli);
 8001a92:	6878      	ldr	r0, [r7, #4]
 8001a94:	f7ff fcae 	bl	80013f4 <cli_flush>
        emitted = (bool)true;
 8001a98:	2301      	movs	r3, #1
 8001a9a:	f887 3043 	strb.w	r3, [r7, #67]	@ 0x43
      }
    }

    if (!emitted) {
 8001a9e:	f897 3043 	ldrb.w	r3, [r7, #67]	@ 0x43
 8001aa2:	f083 0301 	eor.w	r3, r3, #1
 8001aa6:	b2db      	uxtb	r3, r3
 8001aa8:	2b00      	cmp	r3, #0
 8001aaa:	d073      	beq.n	8001b94 <cli_show_prompt+0x1aa>
      pos = pos + cli_strlcpy(&prompt[pos], cli->hostname, sizeof(prompt) - pos);
 8001aac:	f107 020c 	add.w	r2, r7, #12
 8001ab0:	6c7b      	ldr	r3, [r7, #68]	@ 0x44
 8001ab2:	18d0      	adds	r0, r2, r3
 8001ab4:	687b      	ldr	r3, [r7, #4]
 8001ab6:	f103 0128 	add.w	r1, r3, #40	@ 0x28
 8001aba:	6c7b      	ldr	r3, [r7, #68]	@ 0x44
 8001abc:	f1c3 0330 	rsb	r3, r3, #48	@ 0x30
 8001ac0:	461a      	mov	r2, r3
 8001ac2:	f7ff fbe7 	bl	8001294 <cli_strlcpy>
 8001ac6:	4602      	mov	r2, r0
 8001ac8:	6c7b      	ldr	r3, [r7, #68]	@ 0x44
 8001aca:	4413      	add	r3, r2
 8001acc:	647b      	str	r3, [r7, #68]	@ 0x44

#if CLI_ENABLE_MODE_NAMES
      if (cli->mode < (int)CLI_MAX_MODES && cli->mode_names[cli->mode][0] != '\0') {
 8001ace:	687b      	ldr	r3, [r7, #4]
 8001ad0:	f8d3 31a8 	ldr.w	r3, [r3, #424]	@ 0x1a8
 8001ad4:	2b0b      	cmp	r3, #11
 8001ad6:	dc30      	bgt.n	8001b3a <cli_show_prompt+0x150>
 8001ad8:	687b      	ldr	r3, [r7, #4]
 8001ada:	f8d3 31a8 	ldr.w	r3, [r3, #424]	@ 0x1a8
 8001ade:	687a      	ldr	r2, [r7, #4]
 8001ae0:	331b      	adds	r3, #27
 8001ae2:	011b      	lsls	r3, r3, #4
 8001ae4:	4413      	add	r3, r2
 8001ae6:	3304      	adds	r3, #4
 8001ae8:	781b      	ldrb	r3, [r3, #0]
 8001aea:	2b00      	cmp	r3, #0
 8001aec:	d025      	beq.n	8001b3a <cli_show_prompt+0x150>
        prompt[pos++] = '(';
 8001aee:	6c7b      	ldr	r3, [r7, #68]	@ 0x44
 8001af0:	1c5a      	adds	r2, r3, #1
 8001af2:	647a      	str	r2, [r7, #68]	@ 0x44
 8001af4:	3348      	adds	r3, #72	@ 0x48
 8001af6:	443b      	add	r3, r7
 8001af8:	2228      	movs	r2, #40	@ 0x28
 8001afa:	f803 2c3c 	strb.w	r2, [r3, #-60]
        pos = pos + cli_strlcpy(&prompt[pos], cli->mode_names[cli->mode], sizeof(prompt) - pos);
 8001afe:	f107 020c 	add.w	r2, r7, #12
 8001b02:	6c7b      	ldr	r3, [r7, #68]	@ 0x44
 8001b04:	18d0      	adds	r0, r2, r3
 8001b06:	687b      	ldr	r3, [r7, #4]
 8001b08:	f8d3 31a8 	ldr.w	r3, [r3, #424]	@ 0x1a8
 8001b0c:	331b      	adds	r3, #27
 8001b0e:	011b      	lsls	r3, r3, #4
 8001b10:	687a      	ldr	r2, [r7, #4]
 8001b12:	4413      	add	r3, r2
 8001b14:	1d19      	adds	r1, r3, #4
 8001b16:	6c7b      	ldr	r3, [r7, #68]	@ 0x44
 8001b18:	f1c3 0330 	rsb	r3, r3, #48	@ 0x30
 8001b1c:	461a      	mov	r2, r3
 8001b1e:	f7ff fbb9 	bl	8001294 <cli_strlcpy>
 8001b22:	4602      	mov	r2, r0
 8001b24:	6c7b      	ldr	r3, [r7, #68]	@ 0x44
 8001b26:	4413      	add	r3, r2
 8001b28:	647b      	str	r3, [r7, #68]	@ 0x44
        prompt[pos++] = ')';
 8001b2a:	6c7b      	ldr	r3, [r7, #68]	@ 0x44
 8001b2c:	1c5a      	adds	r2, r3, #1
 8001b2e:	647a      	str	r2, [r7, #68]	@ 0x44
 8001b30:	3348      	adds	r3, #72	@ 0x48
 8001b32:	443b      	add	r3, r7
 8001b34:	2229      	movs	r2, #41	@ 0x29
 8001b36:	f803 2c3c 	strb.w	r2, [r3, #-60]
      }
#endif

      if (cli->privilege >= CLI_PRIV_PRIVILEGED) {
 8001b3a:	687b      	ldr	r3, [r7, #4]
 8001b3c:	f893 3274 	ldrb.w	r3, [r3, #628]	@ 0x274
 8001b40:	2b09      	cmp	r3, #9
 8001b42:	d908      	bls.n	8001b56 <cli_show_prompt+0x16c>
        prompt[pos++] = '#';
 8001b44:	6c7b      	ldr	r3, [r7, #68]	@ 0x44
 8001b46:	1c5a      	adds	r2, r3, #1
 8001b48:	647a      	str	r2, [r7, #68]	@ 0x44
 8001b4a:	3348      	adds	r3, #72	@ 0x48
 8001b4c:	443b      	add	r3, r7
 8001b4e:	2223      	movs	r2, #35	@ 0x23
 8001b50:	f803 2c3c 	strb.w	r2, [r3, #-60]
 8001b54:	e007      	b.n	8001b66 <cli_show_prompt+0x17c>
      } else {
        prompt[pos++] = '>';
 8001b56:	6c7b      	ldr	r3, [r7, #68]	@ 0x44
 8001b58:	1c5a      	adds	r2, r3, #1
 8001b5a:	647a      	str	r2, [r7, #68]	@ 0x44
 8001b5c:	3348      	adds	r3, #72	@ 0x48
 8001b5e:	443b      	add	r3, r7
 8001b60:	223e      	movs	r2, #62	@ 0x3e
 8001b62:	f803 2c3c 	strb.w	r2, [r3, #-60]
      }

      prompt[pos++] = ' ';
 8001b66:	6c7b      	ldr	r3, [r7, #68]	@ 0x44
 8001b68:	1c5a      	adds	r2, r3, #1
 8001b6a:	647a      	str	r2, [r7, #68]	@ 0x44
 8001b6c:	3348      	adds	r3, #72	@ 0x48
 8001b6e:	443b      	add	r3, r7
 8001b70:	2220      	movs	r2, #32
 8001b72:	f803 2c3c 	strb.w	r2, [r3, #-60]
      prompt[pos] = '\0';
 8001b76:	f107 020c 	add.w	r2, r7, #12
 8001b7a:	6c7b      	ldr	r3, [r7, #68]	@ 0x44
 8001b7c:	4413      	add	r3, r2
 8001b7e:	2200      	movs	r2, #0
 8001b80:	701a      	strb	r2, [r3, #0]

      cli_write_str(cli, prompt);
 8001b82:	f107 030c 	add.w	r3, r7, #12
 8001b86:	4619      	mov	r1, r3
 8001b88:	6878      	ldr	r0, [r7, #4]
 8001b8a:	f7ff fc0e 	bl	80013aa <cli_write_str>
      cli_flush(cli);
 8001b8e:	6878      	ldr	r0, [r7, #4]
 8001b90:	f7ff fc30 	bl	80013f4 <cli_flush>
    }
  }
}
 8001b94:	bf00      	nop
 8001b96:	3748      	adds	r7, #72	@ 0x48
 8001b98:	46bd      	mov	sp, r7
 8001b9a:	bd80      	pop	{r7, pc}

08001b9c <cli_history_add>:
 * Duplicates of the most-recent entry are silently dropped.
 *
 * @param[in] cli   Active CLI session.
 * @param[in] line  NUL-terminated command string to store.
 */
static void cli_history_add(cli_struct_t *cli, const char *line) {
 8001b9c:	b590      	push	{r4, r7, lr}
 8001b9e:	b089      	sub	sp, #36	@ 0x24
 8001ba0:	af00      	add	r7, sp, #0
 8001ba2:	6078      	str	r0, [r7, #4]
 8001ba4:	6039      	str	r1, [r7, #0]
  bool add = (cli != NULL && line != NULL && line[0] != '\0');
 8001ba6:	687b      	ldr	r3, [r7, #4]
 8001ba8:	2b00      	cmp	r3, #0
 8001baa:	d008      	beq.n	8001bbe <cli_history_add+0x22>
 8001bac:	683b      	ldr	r3, [r7, #0]
 8001bae:	2b00      	cmp	r3, #0
 8001bb0:	d005      	beq.n	8001bbe <cli_history_add+0x22>
 8001bb2:	683b      	ldr	r3, [r7, #0]
 8001bb4:	781b      	ldrb	r3, [r3, #0]
 8001bb6:	2b00      	cmp	r3, #0
 8001bb8:	d001      	beq.n	8001bbe <cli_history_add+0x22>
 8001bba:	2301      	movs	r3, #1
 8001bbc:	e000      	b.n	8001bc0 <cli_history_add+0x24>
 8001bbe:	2300      	movs	r3, #0
 8001bc0:	77fb      	strb	r3, [r7, #31]
 8001bc2:	7ffb      	ldrb	r3, [r7, #31]
 8001bc4:	f003 0301 	and.w	r3, r3, #1
 8001bc8:	77fb      	strb	r3, [r7, #31]

  if (cli != NULL && line != NULL && add && cli->history_count > 0) {
 8001bca:	687b      	ldr	r3, [r7, #4]
 8001bcc:	2b00      	cmp	r3, #0
 8001bce:	d031      	beq.n	8001c34 <cli_history_add+0x98>
 8001bd0:	683b      	ldr	r3, [r7, #0]
 8001bd2:	2b00      	cmp	r3, #0
 8001bd4:	d02e      	beq.n	8001c34 <cli_history_add+0x98>
 8001bd6:	7ffb      	ldrb	r3, [r7, #31]
 8001bd8:	2b00      	cmp	r3, #0
 8001bda:	d02b      	beq.n	8001c34 <cli_history_add+0x98>
 8001bdc:	687b      	ldr	r3, [r7, #4]
 8001bde:	f9b3 3398 	ldrsh.w	r3, [r3, #920]	@ 0x398
 8001be2:	2b00      	cmp	r3, #0
 8001be4:	dd26      	ble.n	8001c34 <cli_history_add+0x98>
    cli_history_idx_t prev =
        (cli_history_idx_t)((cli->history_head + CLI_MAX_HISTORY - 1) % CLI_MAX_HISTORY);
 8001be6:	687b      	ldr	r3, [r7, #4]
 8001be8:	f9b3 3396 	ldrsh.w	r3, [r3, #918]	@ 0x396
 8001bec:	1d1a      	adds	r2, r3, #4
 8001bee:	4b62      	ldr	r3, [pc, #392]	@ (8001d78 <cli_history_add+0x1dc>)
 8001bf0:	fb83 1302 	smull	r1, r3, r3, r2
 8001bf4:	1059      	asrs	r1, r3, #1
 8001bf6:	17d3      	asrs	r3, r2, #31
 8001bf8:	1ac9      	subs	r1, r1, r3
 8001bfa:	460b      	mov	r3, r1
 8001bfc:	009b      	lsls	r3, r3, #2
 8001bfe:	440b      	add	r3, r1
 8001c00:	1ad1      	subs	r1, r2, r3
    cli_history_idx_t prev =
 8001c02:	460b      	mov	r3, r1
 8001c04:	837b      	strh	r3, [r7, #26]
    if (strcmp(line, &cli->history_buf[cli->history_off[prev]]) == 0) {
 8001c06:	f9b7 301a 	ldrsh.w	r3, [r7, #26]
 8001c0a:	687a      	ldr	r2, [r7, #4]
 8001c0c:	f503 73e2 	add.w	r3, r3, #452	@ 0x1c4
 8001c10:	005b      	lsls	r3, r3, #1
 8001c12:	4413      	add	r3, r2
 8001c14:	f9b3 3004 	ldrsh.w	r3, [r3, #4]
 8001c18:	f503 7342 	add.w	r3, r3, #776	@ 0x308
 8001c1c:	687a      	ldr	r2, [r7, #4]
 8001c1e:	4413      	add	r3, r2
 8001c20:	3304      	adds	r3, #4
 8001c22:	4619      	mov	r1, r3
 8001c24:	6838      	ldr	r0, [r7, #0]
 8001c26:	f7fe fa91 	bl	800014c <strcmp>
 8001c2a:	4603      	mov	r3, r0
 8001c2c:	2b00      	cmp	r3, #0
 8001c2e:	d101      	bne.n	8001c34 <cli_history_add+0x98>
      add = (bool)false;
 8001c30:	2300      	movs	r3, #0
 8001c32:	77fb      	strb	r3, [r7, #31]
    }
  }

  if (cli != NULL && line != NULL && add) {
 8001c34:	687b      	ldr	r3, [r7, #4]
 8001c36:	2b00      	cmp	r3, #0
 8001c38:	f000 8099 	beq.w	8001d6e <cli_history_add+0x1d2>
 8001c3c:	683b      	ldr	r3, [r7, #0]
 8001c3e:	2b00      	cmp	r3, #0
 8001c40:	f000 8095 	beq.w	8001d6e <cli_history_add+0x1d2>
 8001c44:	7ffb      	ldrb	r3, [r7, #31]
 8001c46:	2b00      	cmp	r3, #0
 8001c48:	f000 8091 	beq.w	8001d6e <cli_history_add+0x1d2>
    cli_len_t len = (int)strlen(line);
 8001c4c:	6838      	ldr	r0, [r7, #0]
 8001c4e:	f7fe fa87 	bl	8000160 <strlen>
 8001c52:	4603      	mov	r3, r0
 8001c54:	617b      	str	r3, [r7, #20]
    cli_len_t needed = len + 1;
 8001c56:	697b      	ldr	r3, [r7, #20]
 8001c58:	3301      	adds	r3, #1
 8001c5a:	613b      	str	r3, [r7, #16]
    cli_history_idx_t off;

    if (cli->history_count == 0) {
 8001c5c:	687b      	ldr	r3, [r7, #4]
 8001c5e:	f9b3 3398 	ldrsh.w	r3, [r3, #920]	@ 0x398
 8001c62:	2b00      	cmp	r3, #0
 8001c64:	d102      	bne.n	8001c6c <cli_history_add+0xd0>
      off = (cli_history_idx_t)0;
 8001c66:	2300      	movs	r3, #0
 8001c68:	83bb      	strh	r3, [r7, #28]
 8001c6a:	e031      	b.n	8001cd0 <cli_history_add+0x134>
    } else {
      cli_history_idx_t prev =
          (cli_history_idx_t)((cli->history_head + CLI_MAX_HISTORY - 1) % CLI_MAX_HISTORY);
 8001c6c:	687b      	ldr	r3, [r7, #4]
 8001c6e:	f9b3 3396 	ldrsh.w	r3, [r3, #918]	@ 0x396
 8001c72:	1d1a      	adds	r2, r3, #4
 8001c74:	4b40      	ldr	r3, [pc, #256]	@ (8001d78 <cli_history_add+0x1dc>)
 8001c76:	fb83 1302 	smull	r1, r3, r3, r2
 8001c7a:	1059      	asrs	r1, r3, #1
 8001c7c:	17d3      	asrs	r3, r2, #31
 8001c7e:	1ac9      	subs	r1, r1, r3
 8001c80:	460b      	mov	r3, r1
 8001c82:	009b      	lsls	r3, r3, #2
 8001c84:	440b      	add	r3, r1
 8001c86:	1ad1      	subs	r1, r2, r3
      cli_history_idx_t prev =
 8001c88:	460b      	mov	r3, r1
 8001c8a:	81fb      	strh	r3, [r7, #14]
      off = (cli_history_idx_t)(cli->history_off[prev] +
 8001c8c:	f9b7 300e 	ldrsh.w	r3, [r7, #14]
 8001c90:	687a      	ldr	r2, [r7, #4]
 8001c92:	f503 73e2 	add.w	r3, r3, #452	@ 0x1c4
 8001c96:	005b      	lsls	r3, r3, #1
 8001c98:	4413      	add	r3, r2
 8001c9a:	f9b3 3004 	ldrsh.w	r3, [r3, #4]
 8001c9e:	b29c      	uxth	r4, r3
                                (int)strlen(&cli->history_buf[cli->history_off[prev]]) + 1);
 8001ca0:	f9b7 300e 	ldrsh.w	r3, [r7, #14]
 8001ca4:	687a      	ldr	r2, [r7, #4]
 8001ca6:	f503 73e2 	add.w	r3, r3, #452	@ 0x1c4
 8001caa:	005b      	lsls	r3, r3, #1
 8001cac:	4413      	add	r3, r2
 8001cae:	f9b3 3004 	ldrsh.w	r3, [r3, #4]
 8001cb2:	f503 7342 	add.w	r3, r3, #776	@ 0x308
 8001cb6:	687a      	ldr	r2, [r7, #4]
 8001cb8:	4413      	add	r3, r2
 8001cba:	3304      	adds	r3, #4
 8001cbc:	4618      	mov	r0, r3
 8001cbe:	f7fe fa4f 	bl	8000160 <strlen>
 8001cc2:	4603      	mov	r3, r0
      off = (cli_history_idx_t)(cli->history_off[prev] +
 8001cc4:	b29b      	uxth	r3, r3
 8001cc6:	4423      	add	r3, r4
 8001cc8:	b29b      	uxth	r3, r3
                                (int)strlen(&cli->history_buf[cli->history_off[prev]]) + 1);
 8001cca:	3301      	adds	r3, #1
 8001ccc:	b29b      	uxth	r3, r3
      off = (cli_history_idx_t)(cli->history_off[prev] +
 8001cce:	83bb      	strh	r3, [r7, #28]
    }

    if (off + needed > CLI_HISTORY_BUF_SIZE) {
 8001cd0:	f9b7 201c 	ldrsh.w	r2, [r7, #28]
 8001cd4:	693b      	ldr	r3, [r7, #16]
 8001cd6:	4413      	add	r3, r2
 8001cd8:	2b80      	cmp	r3, #128	@ 0x80
 8001cda:	dd09      	ble.n	8001cf0 <cli_history_add+0x154>
      off = (cli_history_idx_t)0;
 8001cdc:	2300      	movs	r3, #0
 8001cde:	83bb      	strh	r3, [r7, #28]
      cli->history_count = (cli_history_idx_t)0;
 8001ce0:	687b      	ldr	r3, [r7, #4]
 8001ce2:	2200      	movs	r2, #0
 8001ce4:	f8a3 2398 	strh.w	r2, [r3, #920]	@ 0x398
      cli->history_head = (cli_history_idx_t)0;
 8001ce8:	687b      	ldr	r3, [r7, #4]
 8001cea:	2200      	movs	r2, #0
 8001cec:	f8a3 2396 	strh.w	r2, [r3, #918]	@ 0x396
    }

    (void)memcpy(&cli->history_buf[off], line, (size_t)needed);
 8001cf0:	f9b7 301c 	ldrsh.w	r3, [r7, #28]
 8001cf4:	f503 7342 	add.w	r3, r3, #776	@ 0x308
 8001cf8:	687a      	ldr	r2, [r7, #4]
 8001cfa:	4413      	add	r3, r2
 8001cfc:	3304      	adds	r3, #4
 8001cfe:	693a      	ldr	r2, [r7, #16]
 8001d00:	6839      	ldr	r1, [r7, #0]
 8001d02:	4618      	mov	r0, r3
 8001d04:	f004 f8bc 	bl	8005e80 <memcpy>
    cli->history_off[cli->history_head] = (cli_history_idx_t)off;
 8001d08:	687b      	ldr	r3, [r7, #4]
 8001d0a:	f9b3 3396 	ldrsh.w	r3, [r3, #918]	@ 0x396
 8001d0e:	687a      	ldr	r2, [r7, #4]
 8001d10:	f503 73e2 	add.w	r3, r3, #452	@ 0x1c4
 8001d14:	005b      	lsls	r3, r3, #1
 8001d16:	4413      	add	r3, r2
 8001d18:	8bba      	ldrh	r2, [r7, #28]
 8001d1a:	809a      	strh	r2, [r3, #4]

    cli->history_head = (cli_history_idx_t)((cli->history_head + 1) % CLI_MAX_HISTORY);
 8001d1c:	687b      	ldr	r3, [r7, #4]
 8001d1e:	f9b3 3396 	ldrsh.w	r3, [r3, #918]	@ 0x396
 8001d22:	1c5a      	adds	r2, r3, #1
 8001d24:	4b14      	ldr	r3, [pc, #80]	@ (8001d78 <cli_history_add+0x1dc>)
 8001d26:	fb83 1302 	smull	r1, r3, r3, r2
 8001d2a:	1059      	asrs	r1, r3, #1
 8001d2c:	17d3      	asrs	r3, r2, #31
 8001d2e:	1ac9      	subs	r1, r1, r3
 8001d30:	460b      	mov	r3, r1
 8001d32:	009b      	lsls	r3, r3, #2
 8001d34:	440b      	add	r3, r1
 8001d36:	1ad1      	subs	r1, r2, r3
 8001d38:	b20a      	sxth	r2, r1
 8001d3a:	687b      	ldr	r3, [r7, #4]
 8001d3c:	f8a3 2396 	strh.w	r2, [r3, #918]	@ 0x396
    //-V::1051
    if (cli->history_count < CLI_MAX_HISTORY) {
 8001d40:	687b      	ldr	r3, [r7, #4]
 8001d42:	f9b3 3398 	ldrsh.w	r3, [r3, #920]	@ 0x398
 8001d46:	2b04      	cmp	r3, #4
 8001d48:	dc09      	bgt.n	8001d5e <cli_history_add+0x1c2>
      cli->history_count++;
 8001d4a:	687b      	ldr	r3, [r7, #4]
 8001d4c:	f9b3 3398 	ldrsh.w	r3, [r3, #920]	@ 0x398
 8001d50:	b29b      	uxth	r3, r3
 8001d52:	3301      	adds	r3, #1
 8001d54:	b29b      	uxth	r3, r3
 8001d56:	b21a      	sxth	r2, r3
 8001d58:	687b      	ldr	r3, [r7, #4]
 8001d5a:	f8a3 2398 	strh.w	r2, [r3, #920]	@ 0x398
    }
    cli->history_nav = (cli_history_idx_t)0;
 8001d5e:	687b      	ldr	r3, [r7, #4]
 8001d60:	2200      	movs	r2, #0
 8001d62:	f8a3 239a 	strh.w	r2, [r3, #922]	@ 0x39a
#if CLI_HISTORY_RESTORE_PREBROWSE_LINE
    cli->history_saved[0] = '\0';
 8001d66:	687b      	ldr	r3, [r7, #4]
 8001d68:	2200      	movs	r2, #0
 8001d6a:	f883 239c 	strb.w	r2, [r3, #924]	@ 0x39c
#endif
  }
}
 8001d6e:	bf00      	nop
 8001d70:	3724      	adds	r7, #36	@ 0x24
 8001d72:	46bd      	mov	sp, r7
 8001d74:	bd90      	pop	{r4, r7, pc}
 8001d76:	bf00      	nop
 8001d78:	66666667 	.word	0x66666667

08001d7c <cli_history_index>:
 * @brief Compute the ring-buffer index for history entry at @p offset.
 * @param[in] cli     Active CLI session.
 * @param[in] offset  1 = most recent, 2 = second most recent, etc.
 * @return Ring-buffer index into @c cli->history[].
 */
static cli_history_idx_t cli_history_index(const cli_struct_t *cli, cli_history_idx_t offset) {
 8001d7c:	b480      	push	{r7}
 8001d7e:	b083      	sub	sp, #12
 8001d80:	af00      	add	r7, sp, #0
 8001d82:	6078      	str	r0, [r7, #4]
 8001d84:	460b      	mov	r3, r1
 8001d86:	807b      	strh	r3, [r7, #2]
  /* offset 1 = most recent, 2 = second most recent, ... */
  return (cli_history_idx_t)((cli->history_head - offset + CLI_MAX_HISTORY * 2) % CLI_MAX_HISTORY);
 8001d88:	687b      	ldr	r3, [r7, #4]
 8001d8a:	f9b3 3396 	ldrsh.w	r3, [r3, #918]	@ 0x396
 8001d8e:	461a      	mov	r2, r3
 8001d90:	f9b7 3002 	ldrsh.w	r3, [r7, #2]
 8001d94:	1ad3      	subs	r3, r2, r3
 8001d96:	f103 020a 	add.w	r2, r3, #10
 8001d9a:	4b08      	ldr	r3, [pc, #32]	@ (8001dbc <cli_history_index+0x40>)
 8001d9c:	fb83 1302 	smull	r1, r3, r3, r2
 8001da0:	1059      	asrs	r1, r3, #1
 8001da2:	17d3      	asrs	r3, r2, #31
 8001da4:	1ac9      	subs	r1, r1, r3
 8001da6:	460b      	mov	r3, r1
 8001da8:	009b      	lsls	r3, r3, #2
 8001daa:	440b      	add	r3, r1
 8001dac:	1ad1      	subs	r1, r2, r3
 8001dae:	b20b      	sxth	r3, r1
}
 8001db0:	4618      	mov	r0, r3
 8001db2:	370c      	adds	r7, #12
 8001db4:	46bd      	mov	sp, r7
 8001db6:	bc80      	pop	{r7}
 8001db8:	4770      	bx	lr
 8001dba:	bf00      	nop
 8001dbc:	66666667 	.word	0x66666667

08001dc0 <cli_history_clear_displayed_input>:

/**
 * @brief Erase the current input area without redrawing the prompt.
 * @param[in] cli  Active CLI session.
 */
static void cli_history_clear_displayed_input(cli_struct_t *cli) {
 8001dc0:	b580      	push	{r7, lr}
 8001dc2:	b088      	sub	sp, #32
 8001dc4:	af00      	add	r7, sp, #0
 8001dc6:	6078      	str	r0, [r7, #4]
  cli_len_t len = cli->input_len;
 8001dc8:	687b      	ldr	r3, [r7, #4]
 8001dca:	f8d3 31a0 	ldr.w	r3, [r3, #416]	@ 0x1a0
 8001dce:	613b      	str	r3, [r7, #16]
  cli_len_t cursor = cli->cursor;
 8001dd0:	687b      	ldr	r3, [r7, #4]
 8001dd2:	f8d3 31a4 	ldr.w	r3, [r3, #420]	@ 0x1a4
 8001dd6:	60fb      	str	r3, [r7, #12]

  for (cli_len_t i = 0; i < cursor; i++) {
 8001dd8:	2300      	movs	r3, #0
 8001dda:	61fb      	str	r3, [r7, #28]
 8001ddc:	e006      	b.n	8001dec <cli_history_clear_displayed_input+0x2c>
    cli_write_char(cli, ASCII_BS);
 8001dde:	2108      	movs	r1, #8
 8001de0:	6878      	ldr	r0, [r7, #4]
 8001de2:	f7ff faf7 	bl	80013d4 <cli_write_char>
  for (cli_len_t i = 0; i < cursor; i++) {
 8001de6:	69fb      	ldr	r3, [r7, #28]
 8001de8:	3301      	adds	r3, #1
 8001dea:	61fb      	str	r3, [r7, #28]
 8001dec:	69fa      	ldr	r2, [r7, #28]
 8001dee:	68fb      	ldr	r3, [r7, #12]
 8001df0:	429a      	cmp	r2, r3
 8001df2:	dbf4      	blt.n	8001dde <cli_history_clear_displayed_input+0x1e>
  }

  for (cli_len_t i = 0; i < len; i++) {
 8001df4:	2300      	movs	r3, #0
 8001df6:	61bb      	str	r3, [r7, #24]
 8001df8:	e006      	b.n	8001e08 <cli_history_clear_displayed_input+0x48>
    cli_write_char(cli, ' ');
 8001dfa:	2120      	movs	r1, #32
 8001dfc:	6878      	ldr	r0, [r7, #4]
 8001dfe:	f7ff fae9 	bl	80013d4 <cli_write_char>
  for (cli_len_t i = 0; i < len; i++) {
 8001e02:	69bb      	ldr	r3, [r7, #24]
 8001e04:	3301      	adds	r3, #1
 8001e06:	61bb      	str	r3, [r7, #24]
 8001e08:	69ba      	ldr	r2, [r7, #24]
 8001e0a:	693b      	ldr	r3, [r7, #16]
 8001e0c:	429a      	cmp	r2, r3
 8001e0e:	dbf4      	blt.n	8001dfa <cli_history_clear_displayed_input+0x3a>
  }

  for (cli_len_t i = 0; i < len; i++) {
 8001e10:	2300      	movs	r3, #0
 8001e12:	617b      	str	r3, [r7, #20]
 8001e14:	e006      	b.n	8001e24 <cli_history_clear_displayed_input+0x64>
    cli_write_char(cli, ASCII_BS);
 8001e16:	2108      	movs	r1, #8
 8001e18:	6878      	ldr	r0, [r7, #4]
 8001e1a:	f7ff fadb 	bl	80013d4 <cli_write_char>
  for (cli_len_t i = 0; i < len; i++) {
 8001e1e:	697b      	ldr	r3, [r7, #20]
 8001e20:	3301      	adds	r3, #1
 8001e22:	617b      	str	r3, [r7, #20]
 8001e24:	697a      	ldr	r2, [r7, #20]
 8001e26:	693b      	ldr	r3, [r7, #16]
 8001e28:	429a      	cmp	r2, r3
 8001e2a:	dbf4      	blt.n	8001e16 <cli_history_clear_displayed_input+0x56>
  }

  cli->input[0] = '\0';
 8001e2c:	687b      	ldr	r3, [r7, #4]
 8001e2e:	2200      	movs	r2, #0
 8001e30:	f883 2140 	strb.w	r2, [r3, #320]	@ 0x140
  cli->input_len = 0;
 8001e34:	687b      	ldr	r3, [r7, #4]
 8001e36:	2200      	movs	r2, #0
 8001e38:	f8c3 21a0 	str.w	r2, [r3, #416]	@ 0x1a0
  cli->cursor = 0;
 8001e3c:	687b      	ldr	r3, [r7, #4]
 8001e3e:	2200      	movs	r2, #0
 8001e40:	f8c3 21a4 	str.w	r2, [r3, #420]	@ 0x1a4
}
 8001e44:	bf00      	nop
 8001e46:	3720      	adds	r7, #32
 8001e48:	46bd      	mov	sp, r7
 8001e4a:	bd80      	pop	{r7, pc}

08001e4c <cli_history_navigate>:
 *
 * @param[in] cli  Active CLI session.
 * @param[in] dir  Navigation direction: @c CLI_HISTORY_NAV_PREV or
 *                 @c CLI_HISTORY_NAV_NEXT.
 */
static void cli_history_navigate(cli_struct_t *cli, cli_history_nav_dir_enum_t dir) {
 8001e4c:	b580      	push	{r7, lr}
 8001e4e:	b084      	sub	sp, #16
 8001e50:	af00      	add	r7, sp, #0
 8001e52:	6078      	str	r0, [r7, #4]
 8001e54:	460b      	mov	r3, r1
 8001e56:	70fb      	strb	r3, [r7, #3]
  bool can_navigate = (bool)true;
 8001e58:	2301      	movs	r3, #1
 8001e5a:	73fb      	strb	r3, [r7, #15]

  if (dir == CLI_HISTORY_NAV_PREV) {
 8001e5c:	f997 3003 	ldrsb.w	r3, [r7, #3]
 8001e60:	f1b3 3fff 	cmp.w	r3, #4294967295
 8001e64:	d124      	bne.n	8001eb0 <cli_history_navigate+0x64>
#if CLI_HISTORY_RESTORE_PREBROWSE_LINE
    if (cli->history_nav == 0) {
 8001e66:	687b      	ldr	r3, [r7, #4]
 8001e68:	f9b3 339a 	ldrsh.w	r3, [r3, #922]	@ 0x39a
 8001e6c:	2b00      	cmp	r3, #0
 8001e6e:	d109      	bne.n	8001e84 <cli_history_navigate+0x38>
      /* Save current editing line. */
      (void)cli_strlcpy(cli->history_saved, cli->input, CLI_MAX_INPUT_LEN);
 8001e70:	687b      	ldr	r3, [r7, #4]
 8001e72:	f503 7067 	add.w	r0, r3, #924	@ 0x39c
 8001e76:	687b      	ldr	r3, [r7, #4]
 8001e78:	f503 73a0 	add.w	r3, r3, #320	@ 0x140
 8001e7c:	2260      	movs	r2, #96	@ 0x60
 8001e7e:	4619      	mov	r1, r3
 8001e80:	f7ff fa08 	bl	8001294 <cli_strlcpy>
    }
#endif
    if (cli->history_nav >= cli->history_count) {
 8001e84:	687b      	ldr	r3, [r7, #4]
 8001e86:	f9b3 239a 	ldrsh.w	r2, [r3, #922]	@ 0x39a
 8001e8a:	687b      	ldr	r3, [r7, #4]
 8001e8c:	f9b3 3398 	ldrsh.w	r3, [r3, #920]	@ 0x398
 8001e90:	429a      	cmp	r2, r3
 8001e92:	db02      	blt.n	8001e9a <cli_history_navigate+0x4e>
      can_navigate = (bool)false;
 8001e94:	2300      	movs	r3, #0
 8001e96:	73fb      	strb	r3, [r7, #15]
 8001e98:	e01c      	b.n	8001ed4 <cli_history_navigate+0x88>
    } else {
      cli->history_nav++;
 8001e9a:	687b      	ldr	r3, [r7, #4]
 8001e9c:	f9b3 339a 	ldrsh.w	r3, [r3, #922]	@ 0x39a
 8001ea0:	b29b      	uxth	r3, r3
 8001ea2:	3301      	adds	r3, #1
 8001ea4:	b29b      	uxth	r3, r3
 8001ea6:	b21a      	sxth	r2, r3
 8001ea8:	687b      	ldr	r3, [r7, #4]
 8001eaa:	f8a3 239a 	strh.w	r2, [r3, #922]	@ 0x39a
 8001eae:	e011      	b.n	8001ed4 <cli_history_navigate+0x88>
    }
  } else {
    if (cli->history_nav == 0) {
 8001eb0:	687b      	ldr	r3, [r7, #4]
 8001eb2:	f9b3 339a 	ldrsh.w	r3, [r3, #922]	@ 0x39a
 8001eb6:	2b00      	cmp	r3, #0
 8001eb8:	d102      	bne.n	8001ec0 <cli_history_navigate+0x74>
      can_navigate = (bool)false;
 8001eba:	2300      	movs	r3, #0
 8001ebc:	73fb      	strb	r3, [r7, #15]
 8001ebe:	e009      	b.n	8001ed4 <cli_history_navigate+0x88>
    } else {
      cli->history_nav--;
 8001ec0:	687b      	ldr	r3, [r7, #4]
 8001ec2:	f9b3 339a 	ldrsh.w	r3, [r3, #922]	@ 0x39a
 8001ec6:	b29b      	uxth	r3, r3
 8001ec8:	3b01      	subs	r3, #1
 8001eca:	b29b      	uxth	r3, r3
 8001ecc:	b21a      	sxth	r2, r3
 8001ece:	687b      	ldr	r3, [r7, #4]
 8001ed0:	f8a3 239a 	strh.w	r2, [r3, #922]	@ 0x39a
    }
  }

  if (!can_navigate) {
 8001ed4:	7bfb      	ldrb	r3, [r7, #15]
 8001ed6:	f083 0301 	eor.w	r3, r3, #1
 8001eda:	b2db      	uxtb	r3, r3
 8001edc:	2b00      	cmp	r3, #0
 8001ede:	d004      	beq.n	8001eea <cli_history_navigate+0x9e>
    cli_write_char(cli, '\a');
 8001ee0:	2107      	movs	r1, #7
 8001ee2:	6878      	ldr	r0, [r7, #4]
 8001ee4:	f7ff fa76 	bl	80013d4 <cli_write_char>
    }
    cli->input_len = (int)strlen(cli->input);
    cli->cursor = cli->input_len;
    cli_write_str(cli, cli->input);
  }
}
 8001ee8:	e048      	b.n	8001f7c <cli_history_navigate+0x130>
    cli_history_clear_displayed_input(cli);
 8001eea:	6878      	ldr	r0, [r7, #4]
 8001eec:	f7ff ff68 	bl	8001dc0 <cli_history_clear_displayed_input>
    if (cli->history_nav == 0) {
 8001ef0:	687b      	ldr	r3, [r7, #4]
 8001ef2:	f9b3 339a 	ldrsh.w	r3, [r3, #922]	@ 0x39a
 8001ef6:	2b00      	cmp	r3, #0
 8001ef8:	d10a      	bne.n	8001f10 <cli_history_navigate+0xc4>
      (void)cli_strlcpy(cli->input, cli->history_saved, CLI_MAX_INPUT_LEN);
 8001efa:	687b      	ldr	r3, [r7, #4]
 8001efc:	f503 70a0 	add.w	r0, r3, #320	@ 0x140
 8001f00:	687b      	ldr	r3, [r7, #4]
 8001f02:	f503 7367 	add.w	r3, r3, #924	@ 0x39c
 8001f06:	2260      	movs	r2, #96	@ 0x60
 8001f08:	4619      	mov	r1, r3
 8001f0a:	f7ff f9c3 	bl	8001294 <cli_strlcpy>
 8001f0e:	e01d      	b.n	8001f4c <cli_history_navigate+0x100>
      cli_history_idx_t idx = cli_history_index(cli, cli->history_nav);
 8001f10:	687b      	ldr	r3, [r7, #4]
 8001f12:	f9b3 339a 	ldrsh.w	r3, [r3, #922]	@ 0x39a
 8001f16:	4619      	mov	r1, r3
 8001f18:	6878      	ldr	r0, [r7, #4]
 8001f1a:	f7ff ff2f 	bl	8001d7c <cli_history_index>
 8001f1e:	4603      	mov	r3, r0
 8001f20:	81bb      	strh	r3, [r7, #12]
      (void)cli_strlcpy(cli->input, &cli->history_buf[cli->history_off[idx]], CLI_MAX_INPUT_LEN);
 8001f22:	687b      	ldr	r3, [r7, #4]
 8001f24:	f503 70a0 	add.w	r0, r3, #320	@ 0x140
 8001f28:	f9b7 300c 	ldrsh.w	r3, [r7, #12]
 8001f2c:	687a      	ldr	r2, [r7, #4]
 8001f2e:	f503 73e2 	add.w	r3, r3, #452	@ 0x1c4
 8001f32:	005b      	lsls	r3, r3, #1
 8001f34:	4413      	add	r3, r2
 8001f36:	f9b3 3004 	ldrsh.w	r3, [r3, #4]
 8001f3a:	f503 7342 	add.w	r3, r3, #776	@ 0x308
 8001f3e:	687a      	ldr	r2, [r7, #4]
 8001f40:	4413      	add	r3, r2
 8001f42:	3304      	adds	r3, #4
 8001f44:	2260      	movs	r2, #96	@ 0x60
 8001f46:	4619      	mov	r1, r3
 8001f48:	f7ff f9a4 	bl	8001294 <cli_strlcpy>
    cli->input_len = (int)strlen(cli->input);
 8001f4c:	687b      	ldr	r3, [r7, #4]
 8001f4e:	f503 73a0 	add.w	r3, r3, #320	@ 0x140
 8001f52:	4618      	mov	r0, r3
 8001f54:	f7fe f904 	bl	8000160 <strlen>
 8001f58:	4603      	mov	r3, r0
 8001f5a:	461a      	mov	r2, r3
 8001f5c:	687b      	ldr	r3, [r7, #4]
 8001f5e:	f8c3 21a0 	str.w	r2, [r3, #416]	@ 0x1a0
    cli->cursor = cli->input_len;
 8001f62:	687b      	ldr	r3, [r7, #4]
 8001f64:	f8d3 21a0 	ldr.w	r2, [r3, #416]	@ 0x1a0
 8001f68:	687b      	ldr	r3, [r7, #4]
 8001f6a:	f8c3 21a4 	str.w	r2, [r3, #420]	@ 0x1a4
    cli_write_str(cli, cli->input);
 8001f6e:	687b      	ldr	r3, [r7, #4]
 8001f70:	f503 73a0 	add.w	r3, r3, #320	@ 0x140
 8001f74:	4619      	mov	r1, r3
 8001f76:	6878      	ldr	r0, [r7, #4]
 8001f78:	f7ff fa17 	bl	80013aa <cli_write_str>
}
 8001f7c:	bf00      	nop
 8001f7e:	3710      	adds	r7, #16
 8001f80:	46bd      	mov	sp, r7
 8001f82:	bd80      	pop	{r7, pc}

08001f84 <cli_tokenize>:
 * @param[in]     max_args  Maximum entries in @p argv (including sentinel
 * NULL).
 *
 * @return Number of tokens found (argc), always < @p max_args.
 */
static cli_argc_t cli_tokenize(char *buf, const char *argv[], cli_argc_t max_args) {
 8001f84:	b480      	push	{r7}
 8001f86:	b087      	sub	sp, #28
 8001f88:	af00      	add	r7, sp, #0
 8001f8a:	60f8      	str	r0, [r7, #12]
 8001f8c:	60b9      	str	r1, [r7, #8]
 8001f8e:	607a      	str	r2, [r7, #4]
  cli_argc_t argc = 0;
 8001f90:	2300      	movs	r3, #0
 8001f92:	617b      	str	r3, [r7, #20]
  char *p = buf;
 8001f94:	68fb      	ldr	r3, [r7, #12]
 8001f96:	613b      	str	r3, [r7, #16]

  while (*p != '\0' && argc < max_args - 1) {
 8001f98:	e02f      	b.n	8001ffa <cli_tokenize+0x76>
    while (*p == ' ' || *p == '\t') {
      p++;
 8001f9a:	693b      	ldr	r3, [r7, #16]
 8001f9c:	3301      	adds	r3, #1
 8001f9e:	613b      	str	r3, [r7, #16]
    while (*p == ' ' || *p == '\t') {
 8001fa0:	693b      	ldr	r3, [r7, #16]
 8001fa2:	781b      	ldrb	r3, [r3, #0]
 8001fa4:	2b20      	cmp	r3, #32
 8001fa6:	d0f8      	beq.n	8001f9a <cli_tokenize+0x16>
 8001fa8:	693b      	ldr	r3, [r7, #16]
 8001faa:	781b      	ldrb	r3, [r3, #0]
 8001fac:	2b09      	cmp	r3, #9
 8001fae:	d0f4      	beq.n	8001f9a <cli_tokenize+0x16>
    }
    if (*p == '\0') {
 8001fb0:	693b      	ldr	r3, [r7, #16]
 8001fb2:	781b      	ldrb	r3, [r3, #0]
 8001fb4:	2b00      	cmp	r3, #0
 8001fb6:	d02a      	beq.n	800200e <cli_tokenize+0x8a>
      break;
    }
    argv[argc++] = p;
 8001fb8:	697b      	ldr	r3, [r7, #20]
 8001fba:	1c5a      	adds	r2, r3, #1
 8001fbc:	617a      	str	r2, [r7, #20]
 8001fbe:	009b      	lsls	r3, r3, #2
 8001fc0:	68ba      	ldr	r2, [r7, #8]
 8001fc2:	4413      	add	r3, r2
 8001fc4:	693a      	ldr	r2, [r7, #16]
 8001fc6:	601a      	str	r2, [r3, #0]
    while (*p != '\0' && *p != ' ' && *p != '\t') {
 8001fc8:	e002      	b.n	8001fd0 <cli_tokenize+0x4c>
      p++;
 8001fca:	693b      	ldr	r3, [r7, #16]
 8001fcc:	3301      	adds	r3, #1
 8001fce:	613b      	str	r3, [r7, #16]
    while (*p != '\0' && *p != ' ' && *p != '\t') {
 8001fd0:	693b      	ldr	r3, [r7, #16]
 8001fd2:	781b      	ldrb	r3, [r3, #0]
 8001fd4:	2b00      	cmp	r3, #0
 8001fd6:	d007      	beq.n	8001fe8 <cli_tokenize+0x64>
 8001fd8:	693b      	ldr	r3, [r7, #16]
 8001fda:	781b      	ldrb	r3, [r3, #0]
 8001fdc:	2b20      	cmp	r3, #32
 8001fde:	d003      	beq.n	8001fe8 <cli_tokenize+0x64>
 8001fe0:	693b      	ldr	r3, [r7, #16]
 8001fe2:	781b      	ldrb	r3, [r3, #0]
 8001fe4:	2b09      	cmp	r3, #9
 8001fe6:	d1f0      	bne.n	8001fca <cli_tokenize+0x46>
    }
    if (*p != '\0') {
 8001fe8:	693b      	ldr	r3, [r7, #16]
 8001fea:	781b      	ldrb	r3, [r3, #0]
 8001fec:	2b00      	cmp	r3, #0
 8001fee:	d004      	beq.n	8001ffa <cli_tokenize+0x76>
      *p++ = '\0';
 8001ff0:	693b      	ldr	r3, [r7, #16]
 8001ff2:	1c5a      	adds	r2, r3, #1
 8001ff4:	613a      	str	r2, [r7, #16]
 8001ff6:	2200      	movs	r2, #0
 8001ff8:	701a      	strb	r2, [r3, #0]
  while (*p != '\0' && argc < max_args - 1) {
 8001ffa:	693b      	ldr	r3, [r7, #16]
 8001ffc:	781b      	ldrb	r3, [r3, #0]
 8001ffe:	2b00      	cmp	r3, #0
 8002000:	d006      	beq.n	8002010 <cli_tokenize+0x8c>
 8002002:	687b      	ldr	r3, [r7, #4]
 8002004:	3b01      	subs	r3, #1
 8002006:	697a      	ldr	r2, [r7, #20]
 8002008:	429a      	cmp	r2, r3
 800200a:	dbc9      	blt.n	8001fa0 <cli_tokenize+0x1c>
 800200c:	e000      	b.n	8002010 <cli_tokenize+0x8c>
      break;
 800200e:	bf00      	nop
    }
  }
  argv[argc] = NULL;
 8002010:	697b      	ldr	r3, [r7, #20]
 8002012:	009b      	lsls	r3, r3, #2
 8002014:	68ba      	ldr	r2, [r7, #8]
 8002016:	4413      	add	r3, r2
 8002018:	2200      	movs	r2, #0
 800201a:	601a      	str	r2, [r3, #0]
  return argc;
 800201c:	697b      	ldr	r3, [r7, #20]
}
 800201e:	4618      	mov	r0, r3
 8002020:	371c      	adds	r7, #28
 8002022:	46bd      	mov	sp, r7
 8002024:	bc80      	pop	{r7}
 8002026:	4770      	bx	lr

08002028 <cli_print_help_cb>:
 * @param[in] h    Command handle of the node to display.
 * @param[in] ctx  Pointer to @c bool, set to @c true.
 *
 * @return Always @c true (continue iteration).
 */
static bool cli_print_help_cb(cli_struct_t *cli, cli_cmd_handle_t h, bool *any) {
 8002028:	b580      	push	{r7, lr}
 800202a:	b09c      	sub	sp, #112	@ 0x70
 800202c:	af00      	add	r7, sp, #0
 800202e:	60f8      	str	r0, [r7, #12]
 8002030:	60b9      	str	r1, [r7, #8]
 8002032:	607a      	str	r2, [r7, #4]
  *any = (bool)true;
 8002034:	687b      	ldr	r3, [r7, #4]
 8002036:	2201      	movs	r2, #1
 8002038:	701a      	strb	r2, [r3, #0]
  const cli_cmd_struct_t *cmd = &cli->cmd_pool[h];
 800203a:	68fb      	ldr	r3, [r7, #12]
 800203c:	699a      	ldr	r2, [r3, #24]
 800203e:	68bb      	ldr	r3, [r7, #8]
 8002040:	2164      	movs	r1, #100	@ 0x64
 8002042:	fb01 f303 	mul.w	r3, r1, r3
 8002046:	4413      	add	r3, r2
 8002048:	66bb      	str	r3, [r7, #104]	@ 0x68
#if CLI_ENABLE_COMMAND_HELP
  char line[CLI_MAX_NAME_LEN + CLI_MAX_HELP_LEN + 4];
#else
  char line[22U + 1U];
#endif
  size_t pos = 0;
 800204a:	2300      	movs	r3, #0
 800204c:	66fb      	str	r3, [r7, #108]	@ 0x6c
  pos = cli_strlcpy(&line[pos], "  ", sizeof(line));
 800204e:	f107 0210 	add.w	r2, r7, #16
 8002052:	6efb      	ldr	r3, [r7, #108]	@ 0x6c
 8002054:	4413      	add	r3, r2
 8002056:	2258      	movs	r2, #88	@ 0x58
 8002058:	4923      	ldr	r1, [pc, #140]	@ (80020e8 <cli_print_help_cb+0xc0>)
 800205a:	4618      	mov	r0, r3
 800205c:	f7ff f91a 	bl	8001294 <cli_strlcpy>
 8002060:	66f8      	str	r0, [r7, #108]	@ 0x6c
  pos = pos + cli_strlcpy(&line[pos], cmd->name, sizeof(line) - pos);
 8002062:	f107 0210 	add.w	r2, r7, #16
 8002066:	6efb      	ldr	r3, [r7, #108]	@ 0x6c
 8002068:	18d0      	adds	r0, r2, r3
 800206a:	6ebb      	ldr	r3, [r7, #104]	@ 0x68
 800206c:	1d19      	adds	r1, r3, #4
 800206e:	6efb      	ldr	r3, [r7, #108]	@ 0x6c
 8002070:	f1c3 0358 	rsb	r3, r3, #88	@ 0x58
 8002074:	461a      	mov	r2, r3
 8002076:	f7ff f90d 	bl	8001294 <cli_strlcpy>
 800207a:	4602      	mov	r2, r0
 800207c:	6efb      	ldr	r3, [r7, #108]	@ 0x6c
 800207e:	4413      	add	r3, r2
 8002080:	66fb      	str	r3, [r7, #108]	@ 0x6c
  while (pos < 22U) {
 8002082:	e007      	b.n	8002094 <cli_print_help_cb+0x6c>
    line[pos++] = ' ';
 8002084:	6efb      	ldr	r3, [r7, #108]	@ 0x6c
 8002086:	1c5a      	adds	r2, r3, #1
 8002088:	66fa      	str	r2, [r7, #108]	@ 0x6c
 800208a:	3370      	adds	r3, #112	@ 0x70
 800208c:	443b      	add	r3, r7
 800208e:	2220      	movs	r2, #32
 8002090:	f803 2c60 	strb.w	r2, [r3, #-96]
  while (pos < 22U) {
 8002094:	6efb      	ldr	r3, [r7, #108]	@ 0x6c
 8002096:	2b15      	cmp	r3, #21
 8002098:	d9f4      	bls.n	8002084 <cli_print_help_cb+0x5c>
  }
#if CLI_ENABLE_COMMAND_HELP
  if (cmd->help[0] != '\0') {
 800209a:	6ebb      	ldr	r3, [r7, #104]	@ 0x68
 800209c:	7e1b      	ldrb	r3, [r3, #24]
 800209e:	2b00      	cmp	r3, #0
 80020a0:	d00c      	beq.n	80020bc <cli_print_help_cb+0x94>
    (void)cli_strlcpy(&line[pos], cmd->help, sizeof(line) - pos);
 80020a2:	f107 0210 	add.w	r2, r7, #16
 80020a6:	6efb      	ldr	r3, [r7, #108]	@ 0x6c
 80020a8:	18d0      	adds	r0, r2, r3
 80020aa:	6ebb      	ldr	r3, [r7, #104]	@ 0x68
 80020ac:	f103 0118 	add.w	r1, r3, #24
 80020b0:	6efb      	ldr	r3, [r7, #108]	@ 0x6c
 80020b2:	f1c3 0358 	rsb	r3, r3, #88	@ 0x58
 80020b6:	461a      	mov	r2, r3
 80020b8:	f7ff f8ec 	bl	8001294 <cli_strlcpy>
  }
#endif
  line[pos] = '\0';
 80020bc:	f107 0210 	add.w	r2, r7, #16
 80020c0:	6efb      	ldr	r3, [r7, #108]	@ 0x6c
 80020c2:	4413      	add	r3, r2
 80020c4:	2200      	movs	r2, #0
 80020c6:	701a      	strb	r2, [r3, #0]
  cli_write_str(cli, line);
 80020c8:	f107 0310 	add.w	r3, r7, #16
 80020cc:	4619      	mov	r1, r3
 80020ce:	68f8      	ldr	r0, [r7, #12]
 80020d0:	f7ff f96b 	bl	80013aa <cli_write_str>
  CLI_WSTR(cli, "\r\n");
 80020d4:	4905      	ldr	r1, [pc, #20]	@ (80020ec <cli_print_help_cb+0xc4>)
 80020d6:	68f8      	ldr	r0, [r7, #12]
 80020d8:	f7ff f967 	bl	80013aa <cli_write_str>
  return true;
 80020dc:	2301      	movs	r3, #1
}
 80020de:	4618      	mov	r0, r3
 80020e0:	3770      	adds	r7, #112	@ 0x70
 80020e2:	46bd      	mov	sp, r7
 80020e4:	bd80      	pop	{r7, pc}
 80020e6:	bf00      	nop
 80020e8:	08006bac 	.word	0x08006bac
 80020ec:	08006b24 	.word	0x08006b24

080020f0 <cli_foreach_match>:
 * @param[in] parent  Root of the sub-tree to search.
 * @param[in] cb      Callback for each match.
 * @param[in] ctx     Passed through to @p cb.
 */
static void cli_foreach_match(cli_struct_t *cli, const char *word, cli_cmd_handle_t parent,
                              cli_match_cb_t cb, bool *ctx) {
 80020f0:	b580      	push	{r7, lr}
 80020f2:	b088      	sub	sp, #32
 80020f4:	af00      	add	r7, sp, #0
 80020f6:	60f8      	str	r0, [r7, #12]
 80020f8:	60b9      	str	r1, [r7, #8]
 80020fa:	607a      	str	r2, [r7, #4]
 80020fc:	603b      	str	r3, [r7, #0]
  cli_len_t word_len = (cli_len_t)strlen(word);
 80020fe:	68b8      	ldr	r0, [r7, #8]
 8002100:	f7fe f82e 	bl	8000160 <strlen>
 8002104:	4603      	mov	r3, r0
 8002106:	617b      	str	r3, [r7, #20]
  for (cli_poolsize_t i = 0; i < cli->cmd_pool_size; i++) {
 8002108:	2300      	movs	r3, #0
 800210a:	61fb      	str	r3, [r7, #28]
 800210c:	e054      	b.n	80021b8 <cli_foreach_match+0xc8>
    const cli_cmd_struct_t *cmd = &cli->cmd_pool[i];
 800210e:	68fb      	ldr	r3, [r7, #12]
 8002110:	699a      	ldr	r2, [r3, #24]
 8002112:	69fb      	ldr	r3, [r7, #28]
 8002114:	2164      	movs	r1, #100	@ 0x64
 8002116:	fb01 f303 	mul.w	r3, r1, r3
 800211a:	4413      	add	r3, r2
 800211c:	613b      	str	r3, [r7, #16]
    bool visible =
        (CLI_CMD_IS_IN_USE(cmd) && cmd->parent == parent && !CLI_CMD_IS_HIDDEN(cmd) &&
 800211e:	693b      	ldr	r3, [r7, #16]
 8002120:	f893 3061 	ldrb.w	r3, [r3, #97]	@ 0x61
 8002124:	f003 0302 	and.w	r3, r3, #2
         cmd->privilege <= cli->privilege && (cmd->mode == CLI_MODE_ANY || cmd->mode == cli->mode));
 8002128:	2b00      	cmp	r3, #0
 800212a:	d020      	beq.n	800216e <cli_foreach_match+0x7e>
        (CLI_CMD_IS_IN_USE(cmd) && cmd->parent == parent && !CLI_CMD_IS_HIDDEN(cmd) &&
 800212c:	693b      	ldr	r3, [r7, #16]
 800212e:	6d9b      	ldr	r3, [r3, #88]	@ 0x58
 8002130:	687a      	ldr	r2, [r7, #4]
 8002132:	429a      	cmp	r2, r3
 8002134:	d11b      	bne.n	800216e <cli_foreach_match+0x7e>
 8002136:	693b      	ldr	r3, [r7, #16]
 8002138:	f893 3061 	ldrb.w	r3, [r3, #97]	@ 0x61
 800213c:	f003 0301 	and.w	r3, r3, #1
 8002140:	2b00      	cmp	r3, #0
 8002142:	d114      	bne.n	800216e <cli_foreach_match+0x7e>
         cmd->privilege <= cli->privilege && (cmd->mode == CLI_MODE_ANY || cmd->mode == cli->mode));
 8002144:	693b      	ldr	r3, [r7, #16]
 8002146:	f893 2060 	ldrb.w	r2, [r3, #96]	@ 0x60
 800214a:	68fb      	ldr	r3, [r7, #12]
 800214c:	f893 3274 	ldrb.w	r3, [r3, #628]	@ 0x274
        (CLI_CMD_IS_IN_USE(cmd) && cmd->parent == parent && !CLI_CMD_IS_HIDDEN(cmd) &&
 8002150:	429a      	cmp	r2, r3
 8002152:	d80c      	bhi.n	800216e <cli_foreach_match+0x7e>
         cmd->privilege <= cli->privilege && (cmd->mode == CLI_MODE_ANY || cmd->mode == cli->mode));
 8002154:	693b      	ldr	r3, [r7, #16]
 8002156:	6ddb      	ldr	r3, [r3, #92]	@ 0x5c
 8002158:	2b00      	cmp	r3, #0
 800215a:	d006      	beq.n	800216a <cli_foreach_match+0x7a>
 800215c:	693b      	ldr	r3, [r7, #16]
 800215e:	6dda      	ldr	r2, [r3, #92]	@ 0x5c
 8002160:	68fb      	ldr	r3, [r7, #12]
 8002162:	f8d3 31a8 	ldr.w	r3, [r3, #424]	@ 0x1a8
 8002166:	429a      	cmp	r2, r3
 8002168:	d101      	bne.n	800216e <cli_foreach_match+0x7e>
 800216a:	2301      	movs	r3, #1
 800216c:	e000      	b.n	8002170 <cli_foreach_match+0x80>
 800216e:	2300      	movs	r3, #0
    bool visible =
 8002170:	76fb      	strb	r3, [r7, #27]
 8002172:	7efb      	ldrb	r3, [r7, #27]
 8002174:	f003 0301 	and.w	r3, r3, #1
 8002178:	76fb      	strb	r3, [r7, #27]
    if (visible && word_len > 0) {
 800217a:	7efb      	ldrb	r3, [r7, #27]
 800217c:	2b00      	cmp	r3, #0
 800217e:	d00a      	beq.n	8002196 <cli_foreach_match+0xa6>
 8002180:	697b      	ldr	r3, [r7, #20]
 8002182:	2b00      	cmp	r3, #0
 8002184:	dd07      	ble.n	8002196 <cli_foreach_match+0xa6>
      visible = cli_case_prefix_match(cmd->name, word);
 8002186:	693b      	ldr	r3, [r7, #16]
 8002188:	3304      	adds	r3, #4
 800218a:	68b9      	ldr	r1, [r7, #8]
 800218c:	4618      	mov	r0, r3
 800218e:	f7ff f8b1 	bl	80012f4 <cli_case_prefix_match>
 8002192:	4603      	mov	r3, r0
 8002194:	76fb      	strb	r3, [r7, #27]
          visible = cli_case_prefix_match(cmd->aliases[a], word);
        }
      }
#endif
    }
    if (visible) {
 8002196:	7efb      	ldrb	r3, [r7, #27]
 8002198:	2b00      	cmp	r3, #0
 800219a:	d00a      	beq.n	80021b2 <cli_foreach_match+0xc2>
      if (!cb(cli, i, ctx)) {
 800219c:	683b      	ldr	r3, [r7, #0]
 800219e:	6aba      	ldr	r2, [r7, #40]	@ 0x28
 80021a0:	69f9      	ldr	r1, [r7, #28]
 80021a2:	68f8      	ldr	r0, [r7, #12]
 80021a4:	4798      	blx	r3
 80021a6:	4603      	mov	r3, r0
 80021a8:	f083 0301 	eor.w	r3, r3, #1
 80021ac:	b2db      	uxtb	r3, r3
 80021ae:	2b00      	cmp	r3, #0
 80021b0:	d108      	bne.n	80021c4 <cli_foreach_match+0xd4>
  for (cli_poolsize_t i = 0; i < cli->cmd_pool_size; i++) {
 80021b2:	69fb      	ldr	r3, [r7, #28]
 80021b4:	3301      	adds	r3, #1
 80021b6:	61fb      	str	r3, [r7, #28]
 80021b8:	68fb      	ldr	r3, [r7, #12]
 80021ba:	69db      	ldr	r3, [r3, #28]
 80021bc:	69fa      	ldr	r2, [r7, #28]
 80021be:	429a      	cmp	r2, r3
 80021c0:	dba5      	blt.n	800210e <cli_foreach_match+0x1e>
 80021c2:	e000      	b.n	80021c6 <cli_foreach_match+0xd6>
        return;
 80021c4:	bf00      	nop
      }
    }
  }
}
 80021c6:	3720      	adds	r7, #32
 80021c8:	46bd      	mov	sp, r7
 80021ca:	bd80      	pop	{r7, pc}

080021cc <cli_resolve_one>:
 * @retval CLI_OK        Unique or exact match found — stored in @p *out.
 * @retval CLI_ERR       No match.
 * @retval CLI_ERR_AMBIG Multiple prefix matches with no exact match.
 */
static int8_t cli_resolve_one(cli_struct_t *cli, const char *word, cli_cmd_handle_t parent,
                              cli_cmd_handle_t *out) {
 80021cc:	b580      	push	{r7, lr}
 80021ce:	b08c      	sub	sp, #48	@ 0x30
 80021d0:	af00      	add	r7, sp, #0
 80021d2:	60f8      	str	r0, [r7, #12]
 80021d4:	60b9      	str	r1, [r7, #8]
 80021d6:	607a      	str	r2, [r7, #4]
 80021d8:	603b      	str	r3, [r7, #0]
  cli_cmd_handle_t first = CLI_CMD_INVALID;
 80021da:	f04f 33ff 	mov.w	r3, #4294967295
 80021de:	62fb      	str	r3, [r7, #44]	@ 0x2c
  cli_cmd_handle_t exact = CLI_CMD_INVALID;
 80021e0:	f04f 33ff 	mov.w	r3, #4294967295
 80021e4:	62bb      	str	r3, [r7, #40]	@ 0x28
  cli_len_t count = 0;
 80021e6:	2300      	movs	r3, #0
 80021e8:	627b      	str	r3, [r7, #36]	@ 0x24

  for (cli_poolsize_t i = 0; i < cli->cmd_pool_size; i++) {
 80021ea:	2300      	movs	r3, #0
 80021ec:	623b      	str	r3, [r7, #32]
 80021ee:	e05b      	b.n	80022a8 <cli_resolve_one+0xdc>
    const cli_cmd_struct_t *cmd = &cli->cmd_pool[i];
 80021f0:	68fb      	ldr	r3, [r7, #12]
 80021f2:	699a      	ldr	r2, [r3, #24]
 80021f4:	6a3b      	ldr	r3, [r7, #32]
 80021f6:	2164      	movs	r1, #100	@ 0x64
 80021f8:	fb01 f303 	mul.w	r3, r1, r3
 80021fc:	4413      	add	r3, r2
 80021fe:	61bb      	str	r3, [r7, #24]
    if (!CLI_CMD_IS_IN_USE(cmd) || cmd->parent != parent || CLI_CMD_IS_HIDDEN(cmd) ||
 8002200:	69bb      	ldr	r3, [r7, #24]
 8002202:	f893 3061 	ldrb.w	r3, [r3, #97]	@ 0x61
 8002206:	f003 0302 	and.w	r3, r3, #2
 800220a:	2b00      	cmp	r3, #0
 800220c:	d044      	beq.n	8002298 <cli_resolve_one+0xcc>
 800220e:	69bb      	ldr	r3, [r7, #24]
 8002210:	6d9b      	ldr	r3, [r3, #88]	@ 0x58
 8002212:	687a      	ldr	r2, [r7, #4]
 8002214:	429a      	cmp	r2, r3
 8002216:	d13f      	bne.n	8002298 <cli_resolve_one+0xcc>
 8002218:	69bb      	ldr	r3, [r7, #24]
 800221a:	f893 3061 	ldrb.w	r3, [r3, #97]	@ 0x61
 800221e:	f003 0301 	and.w	r3, r3, #1
 8002222:	2b00      	cmp	r3, #0
 8002224:	d138      	bne.n	8002298 <cli_resolve_one+0xcc>
        cmd->privilege > cli->privilege) {
 8002226:	69bb      	ldr	r3, [r7, #24]
 8002228:	f893 2060 	ldrb.w	r2, [r3, #96]	@ 0x60
 800222c:	68fb      	ldr	r3, [r7, #12]
 800222e:	f893 3274 	ldrb.w	r3, [r3, #628]	@ 0x274
    if (!CLI_CMD_IS_IN_USE(cmd) || cmd->parent != parent || CLI_CMD_IS_HIDDEN(cmd) ||
 8002232:	429a      	cmp	r2, r3
 8002234:	d830      	bhi.n	8002298 <cli_resolve_one+0xcc>
      continue;
    }
    if (cmd->mode != CLI_MODE_ANY && cmd->mode != cli->mode) {
 8002236:	69bb      	ldr	r3, [r7, #24]
 8002238:	6ddb      	ldr	r3, [r3, #92]	@ 0x5c
 800223a:	2b00      	cmp	r3, #0
 800223c:	d006      	beq.n	800224c <cli_resolve_one+0x80>
 800223e:	69bb      	ldr	r3, [r7, #24]
 8002240:	6dda      	ldr	r2, [r3, #92]	@ 0x5c
 8002242:	68fb      	ldr	r3, [r7, #12]
 8002244:	f8d3 31a8 	ldr.w	r3, [r3, #424]	@ 0x1a8
 8002248:	429a      	cmp	r2, r3
 800224a:	d127      	bne.n	800229c <cli_resolve_one+0xd0>
      continue;
    }

    bool match = cli_case_prefix_match(cmd->name, word);
 800224c:	69bb      	ldr	r3, [r7, #24]
 800224e:	3304      	adds	r3, #4
 8002250:	68b9      	ldr	r1, [r7, #8]
 8002252:	4618      	mov	r0, r3
 8002254:	f7ff f84e 	bl	80012f4 <cli_case_prefix_match>
 8002258:	4603      	mov	r3, r0
 800225a:	75fb      	strb	r3, [r7, #23]
      for (cli_len_t a = 0; a < cmd->num_aliases && !match; a++) {
        match = cli_case_prefix_match(cmd->aliases[a], word);
      }
    }
#endif
    if (!match) {
 800225c:	7dfb      	ldrb	r3, [r7, #23]
 800225e:	f083 0301 	eor.w	r3, r3, #1
 8002262:	b2db      	uxtb	r3, r3
 8002264:	2b00      	cmp	r3, #0
 8002266:	d11b      	bne.n	80022a0 <cli_resolve_one+0xd4>
      continue;
    }

    count++;
 8002268:	6a7b      	ldr	r3, [r7, #36]	@ 0x24
 800226a:	3301      	adds	r3, #1
 800226c:	627b      	str	r3, [r7, #36]	@ 0x24
    if (count == 1) {
 800226e:	6a7b      	ldr	r3, [r7, #36]	@ 0x24
 8002270:	2b01      	cmp	r3, #1
 8002272:	d101      	bne.n	8002278 <cli_resolve_one+0xac>
      first = i;
 8002274:	6a3b      	ldr	r3, [r7, #32]
 8002276:	62fb      	str	r3, [r7, #44]	@ 0x2c
    }

    if (exact == CLI_CMD_INVALID && strcmp(cmd->name, word) == 0) {
 8002278:	6abb      	ldr	r3, [r7, #40]	@ 0x28
 800227a:	f1b3 3fff 	cmp.w	r3, #4294967295
 800227e:	d110      	bne.n	80022a2 <cli_resolve_one+0xd6>
 8002280:	69bb      	ldr	r3, [r7, #24]
 8002282:	3304      	adds	r3, #4
 8002284:	68b9      	ldr	r1, [r7, #8]
 8002286:	4618      	mov	r0, r3
 8002288:	f7fd ff60 	bl	800014c <strcmp>
 800228c:	4603      	mov	r3, r0
 800228e:	2b00      	cmp	r3, #0
 8002290:	d107      	bne.n	80022a2 <cli_resolve_one+0xd6>
      exact = i;
 8002292:	6a3b      	ldr	r3, [r7, #32]
 8002294:	62bb      	str	r3, [r7, #40]	@ 0x28
 8002296:	e004      	b.n	80022a2 <cli_resolve_one+0xd6>
      continue;
 8002298:	bf00      	nop
 800229a:	e002      	b.n	80022a2 <cli_resolve_one+0xd6>
      continue;
 800229c:	bf00      	nop
 800229e:	e000      	b.n	80022a2 <cli_resolve_one+0xd6>
      continue;
 80022a0:	bf00      	nop
  for (cli_poolsize_t i = 0; i < cli->cmd_pool_size; i++) {
 80022a2:	6a3b      	ldr	r3, [r7, #32]
 80022a4:	3301      	adds	r3, #1
 80022a6:	623b      	str	r3, [r7, #32]
 80022a8:	68fb      	ldr	r3, [r7, #12]
 80022aa:	69db      	ldr	r3, [r3, #28]
 80022ac:	6a3a      	ldr	r2, [r7, #32]
 80022ae:	429a      	cmp	r2, r3
 80022b0:	db9e      	blt.n	80021f0 <cli_resolve_one+0x24>
    }
#endif
  }

  int8_t rc;
  if (count == 0) {
 80022b2:	6a7b      	ldr	r3, [r7, #36]	@ 0x24
 80022b4:	2b00      	cmp	r3, #0
 80022b6:	d102      	bne.n	80022be <cli_resolve_one+0xf2>
    rc = CLI_ERR;
 80022b8:	23ff      	movs	r3, #255	@ 0xff
 80022ba:	77fb      	strb	r3, [r7, #31]
 80022bc:	e014      	b.n	80022e8 <cli_resolve_one+0x11c>
  } else if (exact != CLI_CMD_INVALID) {
 80022be:	6abb      	ldr	r3, [r7, #40]	@ 0x28
 80022c0:	f1b3 3fff 	cmp.w	r3, #4294967295
 80022c4:	d005      	beq.n	80022d2 <cli_resolve_one+0x106>
    *out = exact;
 80022c6:	683b      	ldr	r3, [r7, #0]
 80022c8:	6aba      	ldr	r2, [r7, #40]	@ 0x28
 80022ca:	601a      	str	r2, [r3, #0]
    rc = CLI_OK;
 80022cc:	2300      	movs	r3, #0
 80022ce:	77fb      	strb	r3, [r7, #31]
 80022d0:	e00a      	b.n	80022e8 <cli_resolve_one+0x11c>
  } else if (count == 1) {
 80022d2:	6a7b      	ldr	r3, [r7, #36]	@ 0x24
 80022d4:	2b01      	cmp	r3, #1
 80022d6:	d105      	bne.n	80022e4 <cli_resolve_one+0x118>
    *out = first;
 80022d8:	683b      	ldr	r3, [r7, #0]
 80022da:	6afa      	ldr	r2, [r7, #44]	@ 0x2c
 80022dc:	601a      	str	r2, [r3, #0]
    rc = CLI_OK;
 80022de:	2300      	movs	r3, #0
 80022e0:	77fb      	strb	r3, [r7, #31]
 80022e2:	e001      	b.n	80022e8 <cli_resolve_one+0x11c>
  } else {
    rc = CLI_ERR_AMBIG;
 80022e4:	23fb      	movs	r3, #251	@ 0xfb
 80022e6:	77fb      	strb	r3, [r7, #31]
  }
  return rc;
 80022e8:	f997 301f 	ldrsb.w	r3, [r7, #31]
}
 80022ec:	4618      	mov	r0, r3
 80022ee:	3730      	adds	r7, #48	@ 0x30
 80022f0:	46bd      	mov	sp, r7
 80022f2:	bd80      	pop	{r7, pc}

080022f4 <cli_has_any_match>:
 * @param[in] word    Prefix to test.
 * @param[in] parent  Root of the sub-tree to search.
 *
 * @return @c true when at least one match exists, otherwise @c false.
 */
static bool cli_has_any_match(cli_struct_t *cli, const char *word, cli_cmd_handle_t parent) {
 80022f4:	b580      	push	{r7, lr}
 80022f6:	b088      	sub	sp, #32
 80022f8:	af00      	add	r7, sp, #0
 80022fa:	60f8      	str	r0, [r7, #12]
 80022fc:	60b9      	str	r1, [r7, #8]
 80022fe:	607a      	str	r2, [r7, #4]
  bool found = (bool)false;
 8002300:	2300      	movs	r3, #0
 8002302:	77fb      	strb	r3, [r7, #31]
  for (cli_poolsize_t i = 0; i < cli->cmd_pool_size && !found; i++) {
 8002304:	2300      	movs	r3, #0
 8002306:	61bb      	str	r3, [r7, #24]
 8002308:	e03f      	b.n	800238a <cli_has_any_match+0x96>
    const cli_cmd_struct_t *cmd = &cli->cmd_pool[i];
 800230a:	68fb      	ldr	r3, [r7, #12]
 800230c:	699a      	ldr	r2, [r3, #24]
 800230e:	69bb      	ldr	r3, [r7, #24]
 8002310:	2164      	movs	r1, #100	@ 0x64
 8002312:	fb01 f303 	mul.w	r3, r1, r3
 8002316:	4413      	add	r3, r2
 8002318:	617b      	str	r3, [r7, #20]
    if (!CLI_CMD_IS_IN_USE(cmd) || cmd->parent != parent || CLI_CMD_IS_HIDDEN(cmd) ||
 800231a:	697b      	ldr	r3, [r7, #20]
 800231c:	f893 3061 	ldrb.w	r3, [r3, #97]	@ 0x61
 8002320:	f003 0302 	and.w	r3, r3, #2
 8002324:	2b00      	cmp	r3, #0
 8002326:	d02a      	beq.n	800237e <cli_has_any_match+0x8a>
 8002328:	697b      	ldr	r3, [r7, #20]
 800232a:	6d9b      	ldr	r3, [r3, #88]	@ 0x58
 800232c:	687a      	ldr	r2, [r7, #4]
 800232e:	429a      	cmp	r2, r3
 8002330:	d125      	bne.n	800237e <cli_has_any_match+0x8a>
 8002332:	697b      	ldr	r3, [r7, #20]
 8002334:	f893 3061 	ldrb.w	r3, [r3, #97]	@ 0x61
 8002338:	f003 0301 	and.w	r3, r3, #1
 800233c:	2b00      	cmp	r3, #0
 800233e:	d11e      	bne.n	800237e <cli_has_any_match+0x8a>
        cmd->privilege > cli->privilege) {
 8002340:	697b      	ldr	r3, [r7, #20]
 8002342:	f893 2060 	ldrb.w	r2, [r3, #96]	@ 0x60
 8002346:	68fb      	ldr	r3, [r7, #12]
 8002348:	f893 3274 	ldrb.w	r3, [r3, #628]	@ 0x274
    if (!CLI_CMD_IS_IN_USE(cmd) || cmd->parent != parent || CLI_CMD_IS_HIDDEN(cmd) ||
 800234c:	429a      	cmp	r2, r3
 800234e:	d816      	bhi.n	800237e <cli_has_any_match+0x8a>
      continue;
    }
    if (cmd->mode != CLI_MODE_ANY && cmd->mode != cli->mode) {
 8002350:	697b      	ldr	r3, [r7, #20]
 8002352:	6ddb      	ldr	r3, [r3, #92]	@ 0x5c
 8002354:	2b00      	cmp	r3, #0
 8002356:	d006      	beq.n	8002366 <cli_has_any_match+0x72>
 8002358:	697b      	ldr	r3, [r7, #20]
 800235a:	6dda      	ldr	r2, [r3, #92]	@ 0x5c
 800235c:	68fb      	ldr	r3, [r7, #12]
 800235e:	f8d3 31a8 	ldr.w	r3, [r3, #424]	@ 0x1a8
 8002362:	429a      	cmp	r2, r3
 8002364:	d10d      	bne.n	8002382 <cli_has_any_match+0x8e>
      continue;
    }
    if (cli_case_prefix_match(cmd->name, word)) {
 8002366:	697b      	ldr	r3, [r7, #20]
 8002368:	3304      	adds	r3, #4
 800236a:	68b9      	ldr	r1, [r7, #8]
 800236c:	4618      	mov	r0, r3
 800236e:	f7fe ffc1 	bl	80012f4 <cli_case_prefix_match>
 8002372:	4603      	mov	r3, r0
 8002374:	2b00      	cmp	r3, #0
 8002376:	d005      	beq.n	8002384 <cli_has_any_match+0x90>
      found = (bool)true;
 8002378:	2301      	movs	r3, #1
 800237a:	77fb      	strb	r3, [r7, #31]
 800237c:	e002      	b.n	8002384 <cli_has_any_match+0x90>
      continue;
 800237e:	bf00      	nop
 8002380:	e000      	b.n	8002384 <cli_has_any_match+0x90>
      continue;
 8002382:	bf00      	nop
  for (cli_poolsize_t i = 0; i < cli->cmd_pool_size && !found; i++) {
 8002384:	69bb      	ldr	r3, [r7, #24]
 8002386:	3301      	adds	r3, #1
 8002388:	61bb      	str	r3, [r7, #24]
 800238a:	68fb      	ldr	r3, [r7, #12]
 800238c:	69db      	ldr	r3, [r3, #28]
 800238e:	69ba      	ldr	r2, [r7, #24]
 8002390:	429a      	cmp	r2, r3
 8002392:	da05      	bge.n	80023a0 <cli_has_any_match+0xac>
 8002394:	7ffb      	ldrb	r3, [r7, #31]
 8002396:	f083 0301 	eor.w	r3, r3, #1
 800239a:	b2db      	uxtb	r3, r3
 800239c:	2b00      	cmp	r3, #0
 800239e:	d1b4      	bne.n	800230a <cli_has_any_match+0x16>
        }
      }
    }
#endif
  }
  return found;
 80023a0:	7ffb      	ldrb	r3, [r7, #31]
}
 80023a2:	4618      	mov	r0, r3
 80023a4:	3720      	adds	r7, #32
 80023a6:	46bd      	mov	sp, r7
 80023a8:	bd80      	pop	{r7, pc}

080023aa <cli_cmd_has_children>:
 *
 * @param[in] parent  Parent command handle.
 *
 * @return @c true when a direct child exists, otherwise @c false.
 */
static bool cli_cmd_has_children(cli_struct_t *cli, cli_cmd_handle_t parent) {
 80023aa:	b480      	push	{r7}
 80023ac:	b085      	sub	sp, #20
 80023ae:	af00      	add	r7, sp, #0
 80023b0:	6078      	str	r0, [r7, #4]
 80023b2:	6039      	str	r1, [r7, #0]
  bool has_children = (bool)false;
 80023b4:	2300      	movs	r3, #0
 80023b6:	73fb      	strb	r3, [r7, #15]

  for (cli_poolsize_t i = 0; i < cli->cmd_pool_size; i++) {
 80023b8:	2300      	movs	r3, #0
 80023ba:	60bb      	str	r3, [r7, #8]
 80023bc:	e01d      	b.n	80023fa <cli_cmd_has_children+0x50>
    if (CLI_CMD_IS_IN_USE(&cli->cmd_pool[i]) && cli->cmd_pool[i].parent == parent) {
 80023be:	687b      	ldr	r3, [r7, #4]
 80023c0:	699a      	ldr	r2, [r3, #24]
 80023c2:	68bb      	ldr	r3, [r7, #8]
 80023c4:	2164      	movs	r1, #100	@ 0x64
 80023c6:	fb01 f303 	mul.w	r3, r1, r3
 80023ca:	4413      	add	r3, r2
 80023cc:	f893 3061 	ldrb.w	r3, [r3, #97]	@ 0x61
 80023d0:	f003 0302 	and.w	r3, r3, #2
 80023d4:	2b00      	cmp	r3, #0
 80023d6:	d00d      	beq.n	80023f4 <cli_cmd_has_children+0x4a>
 80023d8:	687b      	ldr	r3, [r7, #4]
 80023da:	699a      	ldr	r2, [r3, #24]
 80023dc:	68bb      	ldr	r3, [r7, #8]
 80023de:	2164      	movs	r1, #100	@ 0x64
 80023e0:	fb01 f303 	mul.w	r3, r1, r3
 80023e4:	4413      	add	r3, r2
 80023e6:	6d9b      	ldr	r3, [r3, #88]	@ 0x58
 80023e8:	683a      	ldr	r2, [r7, #0]
 80023ea:	429a      	cmp	r2, r3
 80023ec:	d102      	bne.n	80023f4 <cli_cmd_has_children+0x4a>
      has_children = (bool)true;
 80023ee:	2301      	movs	r3, #1
 80023f0:	73fb      	strb	r3, [r7, #15]
      break;
 80023f2:	e007      	b.n	8002404 <cli_cmd_has_children+0x5a>
  for (cli_poolsize_t i = 0; i < cli->cmd_pool_size; i++) {
 80023f4:	68bb      	ldr	r3, [r7, #8]
 80023f6:	3301      	adds	r3, #1
 80023f8:	60bb      	str	r3, [r7, #8]
 80023fa:	687b      	ldr	r3, [r7, #4]
 80023fc:	69db      	ldr	r3, [r3, #28]
 80023fe:	68ba      	ldr	r2, [r7, #8]
 8002400:	429a      	cmp	r2, r3
 8002402:	dbdc      	blt.n	80023be <cli_cmd_has_children+0x14>
    }
  }

  return has_children;
 8002404:	7bfb      	ldrb	r3, [r7, #15]
}
 8002406:	4618      	mov	r0, r3
 8002408:	3714      	adds	r7, #20
 800240a:	46bd      	mov	sp, r7
 800240c:	bc80      	pop	{r7}
 800240e:	4770      	bx	lr

08002410 <cli_context_current>:
 * @brief Return the handle at the top of the context stack, or @c
 * CLI_CMD_INVALID.
 * @param[in] cli  Active CLI session.
 * @return Top-of-stack handle, or @c CLI_CMD_INVALID if the stack is empty.
 */
static cli_cmd_handle_t cli_context_current(const cli_struct_t *cli) {
 8002410:	b480      	push	{r7}
 8002412:	b083      	sub	sp, #12
 8002414:	af00      	add	r7, sp, #0
 8002416:	6078      	str	r0, [r7, #4]
  return (cli && cli->context != CLI_CMD_ROOT) ? cli->context : CLI_CMD_INVALID;
 8002418:	687b      	ldr	r3, [r7, #4]
 800241a:	2b00      	cmp	r3, #0
 800241c:	d007      	beq.n	800242e <cli_context_current+0x1e>
 800241e:	687b      	ldr	r3, [r7, #4]
 8002420:	6a5b      	ldr	r3, [r3, #36]	@ 0x24
 8002422:	f113 0f02 	cmn.w	r3, #2
 8002426:	d002      	beq.n	800242e <cli_context_current+0x1e>
 8002428:	687b      	ldr	r3, [r7, #4]
 800242a:	6a5b      	ldr	r3, [r3, #36]	@ 0x24
 800242c:	e001      	b.n	8002432 <cli_context_current+0x22>
 800242e:	f04f 33ff 	mov.w	r3, #4294967295
}
 8002432:	4618      	mov	r0, r3
 8002434:	370c      	adds	r7, #12
 8002436:	46bd      	mov	sp, r7
 8002438:	bc80      	pop	{r7}
 800243a:	4770      	bx	lr

0800243c <cli_context_set_to_node>:
 * @brief Set the active submenu context to @p node.
 *
 * @param[in] cli   Active CLI session.
 * @param[in] node  Target node handle.
 */
static void cli_context_set_to_node(cli_struct_t *cli, cli_cmd_handle_t node) {
 800243c:	b480      	push	{r7}
 800243e:	b083      	sub	sp, #12
 8002440:	af00      	add	r7, sp, #0
 8002442:	6078      	str	r0, [r7, #4]
 8002444:	6039      	str	r1, [r7, #0]
  cli->context = node;
 8002446:	687b      	ldr	r3, [r7, #4]
 8002448:	683a      	ldr	r2, [r7, #0]
 800244a:	625a      	str	r2, [r3, #36]	@ 0x24
}
 800244c:	bf00      	nop
 800244e:	370c      	adds	r7, #12
 8002450:	46bd      	mov	sp, r7
 8002452:	bc80      	pop	{r7}
 8002454:	4770      	bx	lr

08002456 <cli_menu_context_parent>:
 * hostname node for user-defined modes; otherwise @c CLI_CMD_ROOT.
 *
 * @param[in] cli  Active CLI session.
 * @return Effective parent handle for the current menu context.
 */
static cli_cmd_handle_t cli_menu_context_parent(const cli_struct_t *cli) {
 8002456:	b580      	push	{r7, lr}
 8002458:	b086      	sub	sp, #24
 800245a:	af00      	add	r7, sp, #0
 800245c:	6078      	str	r0, [r7, #4]
  cli_cmd_handle_t ret = CLI_CMD_ROOT;
 800245e:	f06f 0301 	mvn.w	r3, #1
 8002462:	617b      	str	r3, [r7, #20]

  if (cli == NULL) {
 8002464:	687b      	ldr	r3, [r7, #4]
 8002466:	2b00      	cmp	r3, #0
 8002468:	d103      	bne.n	8002472 <cli_menu_context_parent+0x1c>
    ret = CLI_CMD_INVALID;
 800246a:	f04f 33ff 	mov.w	r3, #4294967295
 800246e:	617b      	str	r3, [r7, #20]
 8002470:	e041      	b.n	80024f6 <cli_menu_context_parent+0xa0>
  } else {
    cli_cmd_handle_t cur = cli_context_current(cli);
 8002472:	6878      	ldr	r0, [r7, #4]
 8002474:	f7ff ffcc 	bl	8002410 <cli_context_current>
 8002478:	60f8      	str	r0, [r7, #12]
    if (cur != CLI_CMD_INVALID) {
 800247a:	68fb      	ldr	r3, [r7, #12]
 800247c:	f1b3 3fff 	cmp.w	r3, #4294967295
 8002480:	d002      	beq.n	8002488 <cli_menu_context_parent+0x32>
      ret = cur;
 8002482:	68fb      	ldr	r3, [r7, #12]
 8002484:	617b      	str	r3, [r7, #20]
 8002486:	e036      	b.n	80024f6 <cli_menu_context_parent+0xa0>
    } else if (cli->mode >= CLI_MODE_USER_BASE && cli->hostname[0] != '\0') {
 8002488:	687b      	ldr	r3, [r7, #4]
 800248a:	f8d3 31a8 	ldr.w	r3, [r3, #424]	@ 0x1a8
 800248e:	2b13      	cmp	r3, #19
 8002490:	dd31      	ble.n	80024f6 <cli_menu_context_parent+0xa0>
 8002492:	687b      	ldr	r3, [r7, #4]
 8002494:	f893 3028 	ldrb.w	r3, [r3, #40]	@ 0x28
 8002498:	2b00      	cmp	r3, #0
 800249a:	d02c      	beq.n	80024f6 <cli_menu_context_parent+0xa0>
      for (cli_poolsize_t i = 0; i < cli->cmd_pool_size; i++) {
 800249c:	2300      	movs	r3, #0
 800249e:	613b      	str	r3, [r7, #16]
 80024a0:	e024      	b.n	80024ec <cli_menu_context_parent+0x96>
        if (!CLI_CMD_IS_IN_USE(&cli->cmd_pool[i])) {
 80024a2:	687b      	ldr	r3, [r7, #4]
 80024a4:	699a      	ldr	r2, [r3, #24]
 80024a6:	693b      	ldr	r3, [r7, #16]
 80024a8:	2164      	movs	r1, #100	@ 0x64
 80024aa:	fb01 f303 	mul.w	r3, r1, r3
 80024ae:	4413      	add	r3, r2
 80024b0:	f893 3061 	ldrb.w	r3, [r3, #97]	@ 0x61
 80024b4:	f003 0302 	and.w	r3, r3, #2
 80024b8:	2b00      	cmp	r3, #0
 80024ba:	d013      	beq.n	80024e4 <cli_menu_context_parent+0x8e>
          continue;
        }
        if (strcmp(cli->cmd_pool[i].name, cli->hostname) == 0) {
 80024bc:	687b      	ldr	r3, [r7, #4]
 80024be:	699a      	ldr	r2, [r3, #24]
 80024c0:	693b      	ldr	r3, [r7, #16]
 80024c2:	2164      	movs	r1, #100	@ 0x64
 80024c4:	fb01 f303 	mul.w	r3, r1, r3
 80024c8:	4413      	add	r3, r2
 80024ca:	1d1a      	adds	r2, r3, #4
 80024cc:	687b      	ldr	r3, [r7, #4]
 80024ce:	3328      	adds	r3, #40	@ 0x28
 80024d0:	4619      	mov	r1, r3
 80024d2:	4610      	mov	r0, r2
 80024d4:	f7fd fe3a 	bl	800014c <strcmp>
 80024d8:	4603      	mov	r3, r0
 80024da:	2b00      	cmp	r3, #0
 80024dc:	d103      	bne.n	80024e6 <cli_menu_context_parent+0x90>
          ret = i;
 80024de:	693b      	ldr	r3, [r7, #16]
 80024e0:	617b      	str	r3, [r7, #20]
          break;
 80024e2:	e008      	b.n	80024f6 <cli_menu_context_parent+0xa0>
          continue;
 80024e4:	bf00      	nop
      for (cli_poolsize_t i = 0; i < cli->cmd_pool_size; i++) {
 80024e6:	693b      	ldr	r3, [r7, #16]
 80024e8:	3301      	adds	r3, #1
 80024ea:	613b      	str	r3, [r7, #16]
 80024ec:	687b      	ldr	r3, [r7, #4]
 80024ee:	69db      	ldr	r3, [r3, #28]
 80024f0:	693a      	ldr	r2, [r7, #16]
 80024f2:	429a      	cmp	r2, r3
 80024f4:	dbd5      	blt.n	80024a2 <cli_menu_context_parent+0x4c>
    } else {
      /* To silence MISRA */
    }
  }

  return ret;
 80024f6:	697b      	ldr	r3, [r7, #20]
}
 80024f8:	4618      	mov	r0, r3
 80024fa:	3718      	adds	r7, #24
 80024fc:	46bd      	mov	sp, r7
 80024fe:	bd80      	pop	{r7, pc}

08002500 <cli_tab_complete>:
 * candidates on a new line.
 * On no match: rings the terminal bell.
 *
 * @param[in] cli  Active CLI session.
 */
static void cli_tab_complete(cli_struct_t *cli) {
 8002500:	b580      	push	{r7, lr}
 8002502:	b0c2      	sub	sp, #264	@ 0x108
 8002504:	af02      	add	r7, sp, #8
 8002506:	6078      	str	r0, [r7, #4]
  /* Work on a scratch copy so we can tokenise */
  char scratch[CLI_MAX_INPUT_LEN];
  (void)cli_strlcpy(scratch, cli->input, CLI_MAX_INPUT_LEN);
 8002508:	687b      	ldr	r3, [r7, #4]
 800250a:	f503 71a0 	add.w	r1, r3, #320	@ 0x140
 800250e:	f107 0344 	add.w	r3, r7, #68	@ 0x44
 8002512:	2260      	movs	r2, #96	@ 0x60
 8002514:	4618      	mov	r0, r3
 8002516:	f7fe febd 	bl	8001294 <cli_strlcpy>

  const char *argv[CLI_MAX_ARGS];
  cli_argc_t argc = cli_tokenize(scratch, argv, CLI_MAX_ARGS);
 800251a:	f107 0114 	add.w	r1, r7, #20
 800251e:	f107 0344 	add.w	r3, r7, #68	@ 0x44
 8002522:	220c      	movs	r2, #12
 8002524:	4618      	mov	r0, r3
 8002526:	f7ff fd2d 	bl	8001f84 <cli_tokenize>
 800252a:	f8c7 00d4 	str.w	r0, [r7, #212]	@ 0xd4
  bool done = (bool)false;
 800252e:	2300      	movs	r3, #0
 8002530:	f887 30ff 	strb.w	r3, [r7, #255]	@ 0xff

  /* Determine if last char is a space (completing next word) */
  bool trailing_space = (cli->input_len > 0 && cli->input[cli->input_len - 1] == ' ');
 8002534:	687b      	ldr	r3, [r7, #4]
 8002536:	f8d3 31a0 	ldr.w	r3, [r3, #416]	@ 0x1a0
 800253a:	2b00      	cmp	r3, #0
 800253c:	dd0b      	ble.n	8002556 <cli_tab_complete+0x56>
 800253e:	687b      	ldr	r3, [r7, #4]
 8002540:	f8d3 31a0 	ldr.w	r3, [r3, #416]	@ 0x1a0
 8002544:	3b01      	subs	r3, #1
 8002546:	687a      	ldr	r2, [r7, #4]
 8002548:	4413      	add	r3, r2
 800254a:	f893 3140 	ldrb.w	r3, [r3, #320]	@ 0x140
 800254e:	2b20      	cmp	r3, #32
 8002550:	d101      	bne.n	8002556 <cli_tab_complete+0x56>
 8002552:	2301      	movs	r3, #1
 8002554:	e000      	b.n	8002558 <cli_tab_complete+0x58>
 8002556:	2300      	movs	r3, #0
 8002558:	f887 30d3 	strb.w	r3, [r7, #211]	@ 0xd3
 800255c:	f897 30d3 	ldrb.w	r3, [r7, #211]	@ 0xd3
 8002560:	f003 0301 	and.w	r3, r3, #1
 8002564:	f887 30d3 	strb.w	r3, [r7, #211]	@ 0xd3

  const char *partial = (argc > 0 && !trailing_space) ? argv[argc - 1] : "";
 8002568:	f8d7 30d4 	ldr.w	r3, [r7, #212]	@ 0xd4
 800256c:	2b00      	cmp	r3, #0
 800256e:	dd10      	ble.n	8002592 <cli_tab_complete+0x92>
 8002570:	f897 30d3 	ldrb.w	r3, [r7, #211]	@ 0xd3
 8002574:	f083 0301 	eor.w	r3, r3, #1
 8002578:	b2db      	uxtb	r3, r3
 800257a:	2b00      	cmp	r3, #0
 800257c:	d009      	beq.n	8002592 <cli_tab_complete+0x92>
 800257e:	f8d7 30d4 	ldr.w	r3, [r7, #212]	@ 0xd4
 8002582:	3b01      	subs	r3, #1
 8002584:	009b      	lsls	r3, r3, #2
 8002586:	f503 7380 	add.w	r3, r3, #256	@ 0x100
 800258a:	443b      	add	r3, r7
 800258c:	f853 3cec 	ldr.w	r3, [r3, #-236]
 8002590:	e000      	b.n	8002594 <cli_tab_complete+0x94>
 8002592:	4bb5      	ldr	r3, [pc, #724]	@ (8002868 <cli_tab_complete+0x368>)
 8002594:	f8c7 30cc 	str.w	r3, [r7, #204]	@ 0xcc
  int depth = (trailing_space) ? argc : ((argc > 0) ? argc - 1 : 0);
 8002598:	f897 30d3 	ldrb.w	r3, [r7, #211]	@ 0xd3
 800259c:	2b00      	cmp	r3, #0
 800259e:	d002      	beq.n	80025a6 <cli_tab_complete+0xa6>
 80025a0:	f8d7 30d4 	ldr.w	r3, [r7, #212]	@ 0xd4
 80025a4:	e005      	b.n	80025b2 <cli_tab_complete+0xb2>
 80025a6:	f8d7 30d4 	ldr.w	r3, [r7, #212]	@ 0xd4
 80025aa:	2b01      	cmp	r3, #1
 80025ac:	bfb8      	it	lt
 80025ae:	2301      	movlt	r3, #1
 80025b0:	3b01      	subs	r3, #1
 80025b2:	f8c7 30c8 	str.w	r3, [r7, #200]	@ 0xc8

  /* Walk command tree through fully-matched tokens */
  cli_cmd_handle_t parent = cli_menu_context_parent(cli);
 80025b6:	6878      	ldr	r0, [r7, #4]
 80025b8:	f7ff ff4d 	bl	8002456 <cli_menu_context_parent>
 80025bc:	f8c7 00f8 	str.w	r0, [r7, #248]	@ 0xf8
  for (int d = 0; d < depth; d++) {
 80025c0:	2300      	movs	r3, #0
 80025c2:	f8c7 30f4 	str.w	r3, [r7, #244]	@ 0xf4
 80025c6:	e025      	b.n	8002614 <cli_tab_complete+0x114>
    cli_cmd_handle_t h;
    int8_t r = cli_resolve_one(cli, argv[d], parent, &h);
 80025c8:	f8d7 30f4 	ldr.w	r3, [r7, #244]	@ 0xf4
 80025cc:	009b      	lsls	r3, r3, #2
 80025ce:	f503 7380 	add.w	r3, r3, #256	@ 0x100
 80025d2:	443b      	add	r3, r7
 80025d4:	f853 1cec 	ldr.w	r1, [r3, #-236]
 80025d8:	f107 0310 	add.w	r3, r7, #16
 80025dc:	f8d7 20f8 	ldr.w	r2, [r7, #248]	@ 0xf8
 80025e0:	6878      	ldr	r0, [r7, #4]
 80025e2:	f7ff fdf3 	bl	80021cc <cli_resolve_one>
 80025e6:	4603      	mov	r3, r0
 80025e8:	f887 30c7 	strb.w	r3, [r7, #199]	@ 0xc7
    if (r != CLI_OK) {
 80025ec:	f997 30c7 	ldrsb.w	r3, [r7, #199]	@ 0xc7
 80025f0:	2b00      	cmp	r3, #0
 80025f2:	d007      	beq.n	8002604 <cli_tab_complete+0x104>
      cli_write_char(cli, '\a');
 80025f4:	2107      	movs	r1, #7
 80025f6:	6878      	ldr	r0, [r7, #4]
 80025f8:	f7fe feec 	bl	80013d4 <cli_write_char>
      done = (bool)true;
 80025fc:	2301      	movs	r3, #1
 80025fe:	f887 30ff 	strb.w	r3, [r7, #255]	@ 0xff
 8002602:	e00d      	b.n	8002620 <cli_tab_complete+0x120>
      break;
    }
    parent = h;
 8002604:	693b      	ldr	r3, [r7, #16]
 8002606:	f8c7 30f8 	str.w	r3, [r7, #248]	@ 0xf8
  for (int d = 0; d < depth; d++) {
 800260a:	f8d7 30f4 	ldr.w	r3, [r7, #244]	@ 0xf4
 800260e:	3301      	adds	r3, #1
 8002610:	f8c7 30f4 	str.w	r3, [r7, #244]	@ 0xf4
 8002614:	f8d7 20f4 	ldr.w	r2, [r7, #244]	@ 0xf4
 8002618:	f8d7 30c8 	ldr.w	r3, [r7, #200]	@ 0xc8
 800261c:	429a      	cmp	r2, r3
 800261e:	dbd3      	blt.n	80025c8 <cli_tab_complete+0xc8>
  }

  if (!done) {
 8002620:	f897 30ff 	ldrb.w	r3, [r7, #255]	@ 0xff
 8002624:	f083 0301 	eor.w	r3, r3, #1
 8002628:	b2db      	uxtb	r3, r3
 800262a:	2b00      	cmp	r3, #0
 800262c:	f000 818e 	beq.w	800294c <cli_tab_complete+0x44c>
    /* Pass 1: count matches, find first, compute common prefix */
    cli_len_t count = 0;
 8002630:	2300      	movs	r3, #0
 8002632:	f8c7 30f0 	str.w	r3, [r7, #240]	@ 0xf0
    cli_cmd_handle_t first = CLI_CMD_INVALID;
 8002636:	f04f 33ff 	mov.w	r3, #4294967295
 800263a:	f8c7 30ec 	str.w	r3, [r7, #236]	@ 0xec
    cli_len_t common = 0;
 800263e:	2300      	movs	r3, #0
 8002640:	f8c7 30e8 	str.w	r3, [r7, #232]	@ 0xe8
    cli_len_t partial_len = (cli_len_t)strlen(partial);
 8002644:	f8d7 00cc 	ldr.w	r0, [r7, #204]	@ 0xcc
 8002648:	f7fd fd8a 	bl	8000160 <strlen>
 800264c:	4603      	mov	r3, r0
 800264e:	f8c7 30c0 	str.w	r3, [r7, #192]	@ 0xc0

    for (cli_poolsize_t i = 0; i < cli->cmd_pool_size; i++) {
 8002652:	2300      	movs	r3, #0
 8002654:	f8c7 30e4 	str.w	r3, [r7, #228]	@ 0xe4
 8002658:	e0d8      	b.n	800280c <cli_tab_complete+0x30c>
      const cli_cmd_struct_t *cmd = &cli->cmd_pool[i];
 800265a:	687b      	ldr	r3, [r7, #4]
 800265c:	699a      	ldr	r2, [r3, #24]
 800265e:	f8d7 30e4 	ldr.w	r3, [r7, #228]	@ 0xe4
 8002662:	2164      	movs	r1, #100	@ 0x64
 8002664:	fb01 f303 	mul.w	r3, r1, r3
 8002668:	4413      	add	r3, r2
 800266a:	f8c7 30b0 	str.w	r3, [r7, #176]	@ 0xb0
      bool visible = (CLI_CMD_IS_IN_USE(cmd) && cmd->parent == parent && !CLI_CMD_IS_HIDDEN(cmd) &&
 800266e:	f8d7 30b0 	ldr.w	r3, [r7, #176]	@ 0xb0
 8002672:	f893 3061 	ldrb.w	r3, [r3, #97]	@ 0x61
 8002676:	f003 0302 	and.w	r3, r3, #2
                      cmd->privilege <= cli->privilege &&
 800267a:	2b00      	cmp	r3, #0
 800267c:	d026      	beq.n	80026cc <cli_tab_complete+0x1cc>
      bool visible = (CLI_CMD_IS_IN_USE(cmd) && cmd->parent == parent && !CLI_CMD_IS_HIDDEN(cmd) &&
 800267e:	f8d7 30b0 	ldr.w	r3, [r7, #176]	@ 0xb0
 8002682:	6d9b      	ldr	r3, [r3, #88]	@ 0x58
 8002684:	f8d7 20f8 	ldr.w	r2, [r7, #248]	@ 0xf8
 8002688:	429a      	cmp	r2, r3
 800268a:	d11f      	bne.n	80026cc <cli_tab_complete+0x1cc>
 800268c:	f8d7 30b0 	ldr.w	r3, [r7, #176]	@ 0xb0
 8002690:	f893 3061 	ldrb.w	r3, [r3, #97]	@ 0x61
 8002694:	f003 0301 	and.w	r3, r3, #1
 8002698:	2b00      	cmp	r3, #0
 800269a:	d117      	bne.n	80026cc <cli_tab_complete+0x1cc>
                      cmd->privilege <= cli->privilege &&
 800269c:	f8d7 30b0 	ldr.w	r3, [r7, #176]	@ 0xb0
 80026a0:	f893 2060 	ldrb.w	r2, [r3, #96]	@ 0x60
 80026a4:	687b      	ldr	r3, [r7, #4]
 80026a6:	f893 3274 	ldrb.w	r3, [r3, #628]	@ 0x274
      bool visible = (CLI_CMD_IS_IN_USE(cmd) && cmd->parent == parent && !CLI_CMD_IS_HIDDEN(cmd) &&
 80026aa:	429a      	cmp	r2, r3
 80026ac:	d80e      	bhi.n	80026cc <cli_tab_complete+0x1cc>
                      (cmd->mode == CLI_MODE_ANY || cmd->mode == cli->mode));
 80026ae:	f8d7 30b0 	ldr.w	r3, [r7, #176]	@ 0xb0
 80026b2:	6ddb      	ldr	r3, [r3, #92]	@ 0x5c
                      cmd->privilege <= cli->privilege &&
 80026b4:	2b00      	cmp	r3, #0
 80026b6:	d007      	beq.n	80026c8 <cli_tab_complete+0x1c8>
                      (cmd->mode == CLI_MODE_ANY || cmd->mode == cli->mode));
 80026b8:	f8d7 30b0 	ldr.w	r3, [r7, #176]	@ 0xb0
 80026bc:	6dda      	ldr	r2, [r3, #92]	@ 0x5c
 80026be:	687b      	ldr	r3, [r7, #4]
 80026c0:	f8d3 31a8 	ldr.w	r3, [r3, #424]	@ 0x1a8
 80026c4:	429a      	cmp	r2, r3
 80026c6:	d101      	bne.n	80026cc <cli_tab_complete+0x1cc>
                      cmd->privilege <= cli->privilege &&
 80026c8:	2301      	movs	r3, #1
 80026ca:	e000      	b.n	80026ce <cli_tab_complete+0x1ce>
 80026cc:	2300      	movs	r3, #0
      bool visible = (CLI_CMD_IS_IN_USE(cmd) && cmd->parent == parent && !CLI_CMD_IS_HIDDEN(cmd) &&
 80026ce:	f887 30af 	strb.w	r3, [r7, #175]	@ 0xaf
 80026d2:	f897 30af 	ldrb.w	r3, [r7, #175]	@ 0xaf
 80026d6:	f003 0301 	and.w	r3, r3, #1
 80026da:	f887 30af 	strb.w	r3, [r7, #175]	@ 0xaf
      if (!visible) {
 80026de:	f897 30af 	ldrb.w	r3, [r7, #175]	@ 0xaf
 80026e2:	f083 0301 	eor.w	r3, r3, #1
 80026e6:	b2db      	uxtb	r3, r3
 80026e8:	2b00      	cmp	r3, #0
 80026ea:	f040 8087 	bne.w	80027fc <cli_tab_complete+0x2fc>
        continue;
      }

      bool name_match = cli_case_prefix_match(cmd->name, partial);
 80026ee:	f8d7 30b0 	ldr.w	r3, [r7, #176]	@ 0xb0
 80026f2:	3304      	adds	r3, #4
 80026f4:	f8d7 10cc 	ldr.w	r1, [r7, #204]	@ 0xcc
 80026f8:	4618      	mov	r0, r3
 80026fa:	f7fe fdfb 	bl	80012f4 <cli_case_prefix_match>
 80026fe:	4603      	mov	r3, r0
 8002700:	f887 30ae 	strb.w	r3, [r7, #174]	@ 0xae
        for (cli_len_t a = 0; a < cmd->num_aliases && !name_match; a++) {
          name_match = cli_case_prefix_match(cmd->aliases[a], partial);
        }
      }
#endif
      if (!name_match) {
 8002704:	f897 30ae 	ldrb.w	r3, [r7, #174]	@ 0xae
 8002708:	f083 0301 	eor.w	r3, r3, #1
 800270c:	b2db      	uxtb	r3, r3
 800270e:	2b00      	cmp	r3, #0
 8002710:	d176      	bne.n	8002800 <cli_tab_complete+0x300>
        continue;
      }

      count++;
 8002712:	f8d7 30f0 	ldr.w	r3, [r7, #240]	@ 0xf0
 8002716:	3301      	adds	r3, #1
 8002718:	f8c7 30f0 	str.w	r3, [r7, #240]	@ 0xf0
      if (count == 1) {
 800271c:	f8d7 30f0 	ldr.w	r3, [r7, #240]	@ 0xf0
 8002720:	2b01      	cmp	r3, #1
 8002722:	d10d      	bne.n	8002740 <cli_tab_complete+0x240>
        first = i;
 8002724:	f8d7 30e4 	ldr.w	r3, [r7, #228]	@ 0xe4
 8002728:	f8c7 30ec 	str.w	r3, [r7, #236]	@ 0xec
        common = (cli_len_t)strlen(cmd->name);
 800272c:	f8d7 30b0 	ldr.w	r3, [r7, #176]	@ 0xb0
 8002730:	3304      	adds	r3, #4
 8002732:	4618      	mov	r0, r3
 8002734:	f7fd fd14 	bl	8000160 <strlen>
 8002738:	4603      	mov	r3, r0
 800273a:	f8c7 30e8 	str.w	r3, [r7, #232]	@ 0xe8
 800273e:	e060      	b.n	8002802 <cli_tab_complete+0x302>
      } else {
        cli_len_t j = 0;
 8002740:	2300      	movs	r3, #0
 8002742:	f8c7 30e0 	str.w	r3, [r7, #224]	@ 0xe0
        while (j < common && cli->cmd_pool[first].name[j] != '\0' &&
 8002746:	e004      	b.n	8002752 <cli_tab_complete+0x252>
               tolower((int)(unsigned char)cli->cmd_pool[first].name[j]) ==
                   tolower((int)(unsigned char)cmd->name[j])) {
          j++;
 8002748:	f8d7 30e0 	ldr.w	r3, [r7, #224]	@ 0xe0
 800274c:	3301      	adds	r3, #1
 800274e:	f8c7 30e0 	str.w	r3, [r7, #224]	@ 0xe0
        while (j < common && cli->cmd_pool[first].name[j] != '\0' &&
 8002752:	f8d7 20e0 	ldr.w	r2, [r7, #224]	@ 0xe0
 8002756:	f8d7 30e8 	ldr.w	r3, [r7, #232]	@ 0xe8
 800275a:	429a      	cmp	r2, r3
 800275c:	da49      	bge.n	80027f2 <cli_tab_complete+0x2f2>
 800275e:	687b      	ldr	r3, [r7, #4]
 8002760:	699a      	ldr	r2, [r3, #24]
 8002762:	f8d7 30ec 	ldr.w	r3, [r7, #236]	@ 0xec
 8002766:	2164      	movs	r1, #100	@ 0x64
 8002768:	fb01 f303 	mul.w	r3, r1, r3
 800276c:	441a      	add	r2, r3
 800276e:	f8d7 30e0 	ldr.w	r3, [r7, #224]	@ 0xe0
 8002772:	4413      	add	r3, r2
 8002774:	3304      	adds	r3, #4
 8002776:	781b      	ldrb	r3, [r3, #0]
 8002778:	2b00      	cmp	r3, #0
 800277a:	d03a      	beq.n	80027f2 <cli_tab_complete+0x2f2>
               tolower((int)(unsigned char)cli->cmd_pool[first].name[j]) ==
 800277c:	687b      	ldr	r3, [r7, #4]
 800277e:	699a      	ldr	r2, [r3, #24]
 8002780:	f8d7 30ec 	ldr.w	r3, [r7, #236]	@ 0xec
 8002784:	2164      	movs	r1, #100	@ 0x64
 8002786:	fb01 f303 	mul.w	r3, r1, r3
 800278a:	441a      	add	r2, r3
 800278c:	f8d7 30e0 	ldr.w	r3, [r7, #224]	@ 0xe0
 8002790:	4413      	add	r3, r2
 8002792:	3304      	adds	r3, #4
 8002794:	781b      	ldrb	r3, [r3, #0]
 8002796:	f8c7 30a8 	str.w	r3, [r7, #168]	@ 0xa8
 800279a:	f8d7 30a8 	ldr.w	r3, [r7, #168]	@ 0xa8
 800279e:	3301      	adds	r3, #1
 80027a0:	4a32      	ldr	r2, [pc, #200]	@ (800286c <cli_tab_complete+0x36c>)
 80027a2:	4413      	add	r3, r2
 80027a4:	781b      	ldrb	r3, [r3, #0]
 80027a6:	f003 0303 	and.w	r3, r3, #3
 80027aa:	2b01      	cmp	r3, #1
 80027ac:	d104      	bne.n	80027b8 <cli_tab_complete+0x2b8>
 80027ae:	f8d7 30a8 	ldr.w	r3, [r7, #168]	@ 0xa8
 80027b2:	f103 0220 	add.w	r2, r3, #32
 80027b6:	e001      	b.n	80027bc <cli_tab_complete+0x2bc>
 80027b8:	f8d7 20a8 	ldr.w	r2, [r7, #168]	@ 0xa8
                   tolower((int)(unsigned char)cmd->name[j])) {
 80027bc:	f8d7 10b0 	ldr.w	r1, [r7, #176]	@ 0xb0
 80027c0:	f8d7 30e0 	ldr.w	r3, [r7, #224]	@ 0xe0
 80027c4:	440b      	add	r3, r1
 80027c6:	3304      	adds	r3, #4
 80027c8:	781b      	ldrb	r3, [r3, #0]
 80027ca:	f8c7 30a4 	str.w	r3, [r7, #164]	@ 0xa4
 80027ce:	f8d7 30a4 	ldr.w	r3, [r7, #164]	@ 0xa4
 80027d2:	3301      	adds	r3, #1
 80027d4:	4925      	ldr	r1, [pc, #148]	@ (800286c <cli_tab_complete+0x36c>)
 80027d6:	440b      	add	r3, r1
 80027d8:	781b      	ldrb	r3, [r3, #0]
 80027da:	f003 0303 	and.w	r3, r3, #3
 80027de:	2b01      	cmp	r3, #1
 80027e0:	d103      	bne.n	80027ea <cli_tab_complete+0x2ea>
 80027e2:	f8d7 30a4 	ldr.w	r3, [r7, #164]	@ 0xa4
 80027e6:	3320      	adds	r3, #32
 80027e8:	e001      	b.n	80027ee <cli_tab_complete+0x2ee>
 80027ea:	f8d7 30a4 	ldr.w	r3, [r7, #164]	@ 0xa4
        while (j < common && cli->cmd_pool[first].name[j] != '\0' &&
 80027ee:	429a      	cmp	r2, r3
 80027f0:	d0aa      	beq.n	8002748 <cli_tab_complete+0x248>
        }
        common = j;
 80027f2:	f8d7 30e0 	ldr.w	r3, [r7, #224]	@ 0xe0
 80027f6:	f8c7 30e8 	str.w	r3, [r7, #232]	@ 0xe8
 80027fa:	e002      	b.n	8002802 <cli_tab_complete+0x302>
        continue;
 80027fc:	bf00      	nop
 80027fe:	e000      	b.n	8002802 <cli_tab_complete+0x302>
        continue;
 8002800:	bf00      	nop
    for (cli_poolsize_t i = 0; i < cli->cmd_pool_size; i++) {
 8002802:	f8d7 30e4 	ldr.w	r3, [r7, #228]	@ 0xe4
 8002806:	3301      	adds	r3, #1
 8002808:	f8c7 30e4 	str.w	r3, [r7, #228]	@ 0xe4
 800280c:	687b      	ldr	r3, [r7, #4]
 800280e:	69db      	ldr	r3, [r3, #28]
 8002810:	f8d7 20e4 	ldr.w	r2, [r7, #228]	@ 0xe4
 8002814:	429a      	cmp	r2, r3
 8002816:	f6ff af20 	blt.w	800265a <cli_tab_complete+0x15a>
      }
    }

    if (count == 0) {
 800281a:	f8d7 30f0 	ldr.w	r3, [r7, #240]	@ 0xf0
 800281e:	2b00      	cmp	r3, #0
 8002820:	d107      	bne.n	8002832 <cli_tab_complete+0x332>
      cli_write_char(cli, '\a');
 8002822:	2107      	movs	r1, #7
 8002824:	6878      	ldr	r0, [r7, #4]
 8002826:	f7fe fdd5 	bl	80013d4 <cli_write_char>
      done = (bool)true;
 800282a:	2301      	movs	r3, #1
 800282c:	f887 30ff 	strb.w	r3, [r7, #255]	@ 0xff
 8002830:	e03c      	b.n	80028ac <cli_tab_complete+0x3ac>
    } else if (count == 1) {
 8002832:	f8d7 30f0 	ldr.w	r3, [r7, #240]	@ 0xf0
 8002836:	2b01      	cmp	r3, #1
 8002838:	d138      	bne.n	80028ac <cli_tab_complete+0x3ac>
      /* Unique match — complete the word */
      const char *full = cli->cmd_pool[first].name;
 800283a:	687b      	ldr	r3, [r7, #4]
 800283c:	699a      	ldr	r2, [r3, #24]
 800283e:	f8d7 30ec 	ldr.w	r3, [r7, #236]	@ 0xec
 8002842:	2164      	movs	r1, #100	@ 0x64
 8002844:	fb01 f303 	mul.w	r3, r1, r3
 8002848:	4413      	add	r3, r2
 800284a:	3304      	adds	r3, #4
 800284c:	f8c7 30bc 	str.w	r3, [r7, #188]	@ 0xbc
            break;
          }
        }
      }
#endif
      size_t pfx_len = strlen(partial);
 8002850:	f8d7 00cc 	ldr.w	r0, [r7, #204]	@ 0xcc
 8002854:	f7fd fc84 	bl	8000160 <strlen>
 8002858:	f8c7 00b8 	str.w	r0, [r7, #184]	@ 0xb8
      size_t i = pfx_len;
 800285c:	f8d7 30b8 	ldr.w	r3, [r7, #184]	@ 0xb8
 8002860:	f8c7 30dc 	str.w	r3, [r7, #220]	@ 0xdc
      while (full[i] != '\0') {
 8002864:	e013      	b.n	800288e <cli_tab_complete+0x38e>
 8002866:	bf00      	nop
 8002868:	080068bc 	.word	0x080068bc
 800286c:	080070a2 	.word	0x080070a2
        cli_insert_char(cli, full[i]);
 8002870:	f8d7 20bc 	ldr.w	r2, [r7, #188]	@ 0xbc
 8002874:	f8d7 30dc 	ldr.w	r3, [r7, #220]	@ 0xdc
 8002878:	4413      	add	r3, r2
 800287a:	781b      	ldrb	r3, [r3, #0]
 800287c:	4619      	mov	r1, r3
 800287e:	6878      	ldr	r0, [r7, #4]
 8002880:	f7fe ff34 	bl	80016ec <cli_insert_char>
        i++;
 8002884:	f8d7 30dc 	ldr.w	r3, [r7, #220]	@ 0xdc
 8002888:	3301      	adds	r3, #1
 800288a:	f8c7 30dc 	str.w	r3, [r7, #220]	@ 0xdc
      while (full[i] != '\0') {
 800288e:	f8d7 20bc 	ldr.w	r2, [r7, #188]	@ 0xbc
 8002892:	f8d7 30dc 	ldr.w	r3, [r7, #220]	@ 0xdc
 8002896:	4413      	add	r3, r2
 8002898:	781b      	ldrb	r3, [r3, #0]
 800289a:	2b00      	cmp	r3, #0
 800289c:	d1e8      	bne.n	8002870 <cli_tab_complete+0x370>
      }
      cli_insert_char(cli, ' ');
 800289e:	2120      	movs	r1, #32
 80028a0:	6878      	ldr	r0, [r7, #4]
 80028a2:	f7fe ff23 	bl	80016ec <cli_insert_char>
      done = (bool)true;
 80028a6:	2301      	movs	r3, #1
 80028a8:	f887 30ff 	strb.w	r3, [r7, #255]	@ 0xff
    } else {
      /* To silence MISRA */
    }

    if (!done && common > partial_len) {
 80028ac:	f897 30ff 	ldrb.w	r3, [r7, #255]	@ 0xff
 80028b0:	f083 0301 	eor.w	r3, r3, #1
 80028b4:	b2db      	uxtb	r3, r3
 80028b6:	2b00      	cmp	r3, #0
 80028b8:	d02d      	beq.n	8002916 <cli_tab_complete+0x416>
 80028ba:	f8d7 20e8 	ldr.w	r2, [r7, #232]	@ 0xe8
 80028be:	f8d7 30c0 	ldr.w	r3, [r7, #192]	@ 0xc0
 80028c2:	429a      	cmp	r2, r3
 80028c4:	dd27      	ble.n	8002916 <cli_tab_complete+0x416>
      /* Complete to common prefix */
      const char *full = cli->cmd_pool[first].name;
 80028c6:	687b      	ldr	r3, [r7, #4]
 80028c8:	699a      	ldr	r2, [r3, #24]
 80028ca:	f8d7 30ec 	ldr.w	r3, [r7, #236]	@ 0xec
 80028ce:	2164      	movs	r1, #100	@ 0x64
 80028d0:	fb01 f303 	mul.w	r3, r1, r3
 80028d4:	4413      	add	r3, r2
 80028d6:	3304      	adds	r3, #4
 80028d8:	f8c7 30b4 	str.w	r3, [r7, #180]	@ 0xb4
      for (cli_len_t i = partial_len; i < common; i++) {
 80028dc:	f8d7 30c0 	ldr.w	r3, [r7, #192]	@ 0xc0
 80028e0:	f8c7 30d8 	str.w	r3, [r7, #216]	@ 0xd8
 80028e4:	e00e      	b.n	8002904 <cli_tab_complete+0x404>
        cli_insert_char(cli, full[i]);
 80028e6:	f8d7 30d8 	ldr.w	r3, [r7, #216]	@ 0xd8
 80028ea:	f8d7 20b4 	ldr.w	r2, [r7, #180]	@ 0xb4
 80028ee:	4413      	add	r3, r2
 80028f0:	781b      	ldrb	r3, [r3, #0]
 80028f2:	4619      	mov	r1, r3
 80028f4:	6878      	ldr	r0, [r7, #4]
 80028f6:	f7fe fef9 	bl	80016ec <cli_insert_char>
      for (cli_len_t i = partial_len; i < common; i++) {
 80028fa:	f8d7 30d8 	ldr.w	r3, [r7, #216]	@ 0xd8
 80028fe:	3301      	adds	r3, #1
 8002900:	f8c7 30d8 	str.w	r3, [r7, #216]	@ 0xd8
 8002904:	f8d7 20d8 	ldr.w	r2, [r7, #216]	@ 0xd8
 8002908:	f8d7 30e8 	ldr.w	r3, [r7, #232]	@ 0xe8
 800290c:	429a      	cmp	r2, r3
 800290e:	dbea      	blt.n	80028e6 <cli_tab_complete+0x3e6>
      }
      done = (bool)true;
 8002910:	2301      	movs	r3, #1
 8002912:	f887 30ff 	strb.w	r3, [r7, #255]	@ 0xff
    }

    if (!done) {
 8002916:	f897 30ff 	ldrb.w	r3, [r7, #255]	@ 0xff
 800291a:	f083 0301 	eor.w	r3, r3, #1
 800291e:	b2db      	uxtb	r3, r3
 8002920:	2b00      	cmp	r3, #0
 8002922:	d013      	beq.n	800294c <cli_tab_complete+0x44c>
      /* Pass 2: print all matches */
      bool dummy = (bool)false;
 8002924:	2300      	movs	r3, #0
 8002926:	73fb      	strb	r3, [r7, #15]
      CLI_WSTR(cli, "\r\n");
 8002928:	490b      	ldr	r1, [pc, #44]	@ (8002958 <cli_tab_complete+0x458>)
 800292a:	6878      	ldr	r0, [r7, #4]
 800292c:	f7fe fd3d 	bl	80013aa <cli_write_str>
      cli_foreach_match(cli, partial, parent, cli_print_help_cb, &dummy);
 8002930:	f107 030f 	add.w	r3, r7, #15
 8002934:	9300      	str	r3, [sp, #0]
 8002936:	4b09      	ldr	r3, [pc, #36]	@ (800295c <cli_tab_complete+0x45c>)
 8002938:	f8d7 20f8 	ldr.w	r2, [r7, #248]	@ 0xf8
 800293c:	f8d7 10cc 	ldr.w	r1, [r7, #204]	@ 0xcc
 8002940:	6878      	ldr	r0, [r7, #4]
 8002942:	f7ff fbd5 	bl	80020f0 <cli_foreach_match>
      cli_redraw_line(cli);
 8002946:	6878      	ldr	r0, [r7, #4]
 8002948:	f7fe fe18 	bl	800157c <cli_redraw_line>
    }
  }
}
 800294c:	bf00      	nop
 800294e:	f507 7780 	add.w	r7, r7, #256	@ 0x100
 8002952:	46bd      	mov	sp, r7
 8002954:	bd80      	pop	{r7, pc}
 8002956:	bf00      	nop
 8002958:	08006b24 	.word	0x08006b24
 800295c:	08002029 	.word	0x08002029

08002960 <cli_show_help>:
 * Lists all commands / sub-commands that match the tokens typed so far,
 * then redraws the input line.
 *
 * @param[in] cli  Active CLI session.
 */
static void cli_show_help(cli_struct_t *cli) {
 8002960:	b580      	push	{r7, lr}
 8002962:	b0b4      	sub	sp, #208	@ 0xd0
 8002964:	af02      	add	r7, sp, #8
 8002966:	6078      	str	r0, [r7, #4]
  char scratch[CLI_MAX_INPUT_LEN];
  /* Remove the trailing '?' before tokenising */
  cli_len_t len = cli->input_len;
 8002968:	687b      	ldr	r3, [r7, #4]
 800296a:	f8d3 31a0 	ldr.w	r3, [r3, #416]	@ 0x1a0
 800296e:	f8c7 30c4 	str.w	r3, [r7, #196]	@ 0xc4
  if (len > 0 && cli->input[len - 1] == '?') {
 8002972:	f8d7 30c4 	ldr.w	r3, [r7, #196]	@ 0xc4
 8002976:	2b00      	cmp	r3, #0
 8002978:	dd0d      	ble.n	8002996 <cli_show_help+0x36>
 800297a:	f8d7 30c4 	ldr.w	r3, [r7, #196]	@ 0xc4
 800297e:	3b01      	subs	r3, #1
 8002980:	687a      	ldr	r2, [r7, #4]
 8002982:	4413      	add	r3, r2
 8002984:	f893 3140 	ldrb.w	r3, [r3, #320]	@ 0x140
 8002988:	2b3f      	cmp	r3, #63	@ 0x3f
 800298a:	d104      	bne.n	8002996 <cli_show_help+0x36>
    len--;
 800298c:	f8d7 30c4 	ldr.w	r3, [r7, #196]	@ 0xc4
 8002990:	3b01      	subs	r3, #1
 8002992:	f8c7 30c4 	str.w	r3, [r7, #196]	@ 0xc4
  }
  (void)cli_strlcpy(scratch, cli->input, CLI_MAX_INPUT_LEN);
 8002996:	687b      	ldr	r3, [r7, #4]
 8002998:	f503 71a0 	add.w	r1, r3, #320	@ 0x140
 800299c:	f107 0344 	add.w	r3, r7, #68	@ 0x44
 80029a0:	2260      	movs	r2, #96	@ 0x60
 80029a2:	4618      	mov	r0, r3
 80029a4:	f7fe fc76 	bl	8001294 <cli_strlcpy>
  if (len < (int)CLI_MAX_INPUT_LEN) {
 80029a8:	f8d7 30c4 	ldr.w	r3, [r7, #196]	@ 0xc4
 80029ac:	2b5f      	cmp	r3, #95	@ 0x5f
 80029ae:	dc06      	bgt.n	80029be <cli_show_help+0x5e>
    scratch[len] = '\0';
 80029b0:	f107 0244 	add.w	r2, r7, #68	@ 0x44
 80029b4:	f8d7 30c4 	ldr.w	r3, [r7, #196]	@ 0xc4
 80029b8:	4413      	add	r3, r2
 80029ba:	2200      	movs	r2, #0
 80029bc:	701a      	strb	r2, [r3, #0]
  }

  const char *argv[CLI_MAX_ARGS];
  cli_argc_t argc = cli_tokenize(scratch, argv, CLI_MAX_ARGS);
 80029be:	f107 0114 	add.w	r1, r7, #20
 80029c2:	f107 0344 	add.w	r3, r7, #68	@ 0x44
 80029c6:	220c      	movs	r2, #12
 80029c8:	4618      	mov	r0, r3
 80029ca:	f7ff fadb 	bl	8001f84 <cli_tokenize>
 80029ce:	f8c7 00b0 	str.w	r0, [r7, #176]	@ 0xb0

  bool trailing_space = (len > 0 && scratch[len - 1] == ' ');
 80029d2:	f8d7 30c4 	ldr.w	r3, [r7, #196]	@ 0xc4
 80029d6:	2b00      	cmp	r3, #0
 80029d8:	dd0a      	ble.n	80029f0 <cli_show_help+0x90>
 80029da:	f8d7 30c4 	ldr.w	r3, [r7, #196]	@ 0xc4
 80029de:	3b01      	subs	r3, #1
 80029e0:	33c8      	adds	r3, #200	@ 0xc8
 80029e2:	443b      	add	r3, r7
 80029e4:	f813 3c84 	ldrb.w	r3, [r3, #-132]
 80029e8:	2b20      	cmp	r3, #32
 80029ea:	d101      	bne.n	80029f0 <cli_show_help+0x90>
 80029ec:	2301      	movs	r3, #1
 80029ee:	e000      	b.n	80029f2 <cli_show_help+0x92>
 80029f0:	2300      	movs	r3, #0
 80029f2:	f887 30af 	strb.w	r3, [r7, #175]	@ 0xaf
 80029f6:	f897 30af 	ldrb.w	r3, [r7, #175]	@ 0xaf
 80029fa:	f003 0301 	and.w	r3, r3, #1
 80029fe:	f887 30af 	strb.w	r3, [r7, #175]	@ 0xaf
  const char *partial = (argc > 0 && !trailing_space) ? argv[argc - 1] : "";
 8002a02:	f8d7 30b0 	ldr.w	r3, [r7, #176]	@ 0xb0
 8002a06:	2b00      	cmp	r3, #0
 8002a08:	dd0f      	ble.n	8002a2a <cli_show_help+0xca>
 8002a0a:	f897 30af 	ldrb.w	r3, [r7, #175]	@ 0xaf
 8002a0e:	f083 0301 	eor.w	r3, r3, #1
 8002a12:	b2db      	uxtb	r3, r3
 8002a14:	2b00      	cmp	r3, #0
 8002a16:	d008      	beq.n	8002a2a <cli_show_help+0xca>
 8002a18:	f8d7 30b0 	ldr.w	r3, [r7, #176]	@ 0xb0
 8002a1c:	3b01      	subs	r3, #1
 8002a1e:	009b      	lsls	r3, r3, #2
 8002a20:	33c8      	adds	r3, #200	@ 0xc8
 8002a22:	443b      	add	r3, r7
 8002a24:	f853 3cb4 	ldr.w	r3, [r3, #-180]
 8002a28:	e000      	b.n	8002a2c <cli_show_help+0xcc>
 8002a2a:	4b50      	ldr	r3, [pc, #320]	@ (8002b6c <cli_show_help+0x20c>)
 8002a2c:	f8c7 30c0 	str.w	r3, [r7, #192]	@ 0xc0
  int depth = (trailing_space) ? argc : ((argc > 0) ? argc - 1 : 0);
 8002a30:	f897 30af 	ldrb.w	r3, [r7, #175]	@ 0xaf
 8002a34:	2b00      	cmp	r3, #0
 8002a36:	d002      	beq.n	8002a3e <cli_show_help+0xde>
 8002a38:	f8d7 30b0 	ldr.w	r3, [r7, #176]	@ 0xb0
 8002a3c:	e005      	b.n	8002a4a <cli_show_help+0xea>
 8002a3e:	f8d7 30b0 	ldr.w	r3, [r7, #176]	@ 0xb0
 8002a42:	2b01      	cmp	r3, #1
 8002a44:	bfb8      	it	lt
 8002a46:	2301      	movlt	r3, #1
 8002a48:	3b01      	subs	r3, #1
 8002a4a:	f8c7 30a8 	str.w	r3, [r7, #168]	@ 0xa8
  bool show = (bool)true;
 8002a4e:	2301      	movs	r3, #1
 8002a50:	f887 30bf 	strb.w	r3, [r7, #191]	@ 0xbf

  cli_cmd_handle_t parent = cli_menu_context_parent(cli);
 8002a54:	6878      	ldr	r0, [r7, #4]
 8002a56:	f7ff fcfe 	bl	8002456 <cli_menu_context_parent>
 8002a5a:	f8c7 00b8 	str.w	r0, [r7, #184]	@ 0xb8
  cli_cmd_handle_t h;
  for (int d = 0; d < depth; d++) {
 8002a5e:	2300      	movs	r3, #0
 8002a60:	f8c7 30b4 	str.w	r3, [r7, #180]	@ 0xb4
 8002a64:	e037      	b.n	8002ad6 <cli_show_help+0x176>
    int8_t r = cli_resolve_one(cli, argv[d], parent, &h);
 8002a66:	f8d7 30b4 	ldr.w	r3, [r7, #180]	@ 0xb4
 8002a6a:	009b      	lsls	r3, r3, #2
 8002a6c:	33c8      	adds	r3, #200	@ 0xc8
 8002a6e:	443b      	add	r3, r7
 8002a70:	f853 1cb4 	ldr.w	r1, [r3, #-180]
 8002a74:	f107 0310 	add.w	r3, r7, #16
 8002a78:	f8d7 20b8 	ldr.w	r2, [r7, #184]	@ 0xb8
 8002a7c:	6878      	ldr	r0, [r7, #4]
 8002a7e:	f7ff fba5 	bl	80021cc <cli_resolve_one>
 8002a82:	4603      	mov	r3, r0
 8002a84:	f887 30a7 	strb.w	r3, [r7, #167]	@ 0xa7
    if (r != CLI_OK) {
 8002a88:	f997 30a7 	ldrsb.w	r3, [r7, #167]	@ 0xa7
 8002a8c:	2b00      	cmp	r3, #0
 8002a8e:	d01a      	beq.n	8002ac6 <cli_show_help+0x166>
      if (r == CLI_ERR) {
 8002a90:	f997 30a7 	ldrsb.w	r3, [r7, #167]	@ 0xa7
 8002a94:	f1b3 3fff 	cmp.w	r3, #4294967295
 8002a98:	d10a      	bne.n	8002ab0 <cli_show_help+0x150>
        CLI_WSTR(cli, "\r\n% Unknown command.\r\n");
 8002a9a:	4935      	ldr	r1, [pc, #212]	@ (8002b70 <cli_show_help+0x210>)
 8002a9c:	6878      	ldr	r0, [r7, #4]
 8002a9e:	f7fe fc84 	bl	80013aa <cli_write_str>
        cli_redraw_line(cli);
 8002aa2:	6878      	ldr	r0, [r7, #4]
 8002aa4:	f7fe fd6a 	bl	800157c <cli_redraw_line>
        show = (bool)false;
 8002aa8:	2300      	movs	r3, #0
 8002aaa:	f887 30bf 	strb.w	r3, [r7, #191]	@ 0xbf
      } else {
        CLI_WSTR(cli, "\r\n% Ambiguous command.\r\n");
        cli_redraw_line(cli);
        show = (bool)false;
      }
      break;
 8002aae:	e018      	b.n	8002ae2 <cli_show_help+0x182>
        CLI_WSTR(cli, "\r\n% Ambiguous command.\r\n");
 8002ab0:	4930      	ldr	r1, [pc, #192]	@ (8002b74 <cli_show_help+0x214>)
 8002ab2:	6878      	ldr	r0, [r7, #4]
 8002ab4:	f7fe fc79 	bl	80013aa <cli_write_str>
        cli_redraw_line(cli);
 8002ab8:	6878      	ldr	r0, [r7, #4]
 8002aba:	f7fe fd5f 	bl	800157c <cli_redraw_line>
        show = (bool)false;
 8002abe:	2300      	movs	r3, #0
 8002ac0:	f887 30bf 	strb.w	r3, [r7, #191]	@ 0xbf
      break;
 8002ac4:	e00d      	b.n	8002ae2 <cli_show_help+0x182>
    }
    parent = h;
 8002ac6:	693b      	ldr	r3, [r7, #16]
 8002ac8:	f8c7 30b8 	str.w	r3, [r7, #184]	@ 0xb8
  for (int d = 0; d < depth; d++) {
 8002acc:	f8d7 30b4 	ldr.w	r3, [r7, #180]	@ 0xb4
 8002ad0:	3301      	adds	r3, #1
 8002ad2:	f8c7 30b4 	str.w	r3, [r7, #180]	@ 0xb4
 8002ad6:	f8d7 20b4 	ldr.w	r2, [r7, #180]	@ 0xb4
 8002ada:	f8d7 30a8 	ldr.w	r3, [r7, #168]	@ 0xa8
 8002ade:	429a      	cmp	r2, r3
 8002ae0:	dbc1      	blt.n	8002a66 <cli_show_help+0x106>
  }

  if (show) {
 8002ae2:	f897 30bf 	ldrb.w	r3, [r7, #191]	@ 0xbf
 8002ae6:	2b00      	cmp	r3, #0
 8002ae8:	d03b      	beq.n	8002b62 <cli_show_help+0x202>
    if (!trailing_space && partial[0] != '\0') {
 8002aea:	f897 30af 	ldrb.w	r3, [r7, #175]	@ 0xaf
 8002aee:	f083 0301 	eor.w	r3, r3, #1
 8002af2:	b2db      	uxtb	r3, r3
 8002af4:	2b00      	cmp	r3, #0
 8002af6:	d016      	beq.n	8002b26 <cli_show_help+0x1c6>
 8002af8:	f8d7 30c0 	ldr.w	r3, [r7, #192]	@ 0xc0
 8002afc:	781b      	ldrb	r3, [r3, #0]
 8002afe:	2b00      	cmp	r3, #0
 8002b00:	d011      	beq.n	8002b26 <cli_show_help+0x1c6>
      if (cli_resolve_one(cli, partial, parent, &h) == CLI_OK) {
 8002b02:	f107 0310 	add.w	r3, r7, #16
 8002b06:	f8d7 20b8 	ldr.w	r2, [r7, #184]	@ 0xb8
 8002b0a:	f8d7 10c0 	ldr.w	r1, [r7, #192]	@ 0xc0
 8002b0e:	6878      	ldr	r0, [r7, #4]
 8002b10:	f7ff fb5c 	bl	80021cc <cli_resolve_one>
 8002b14:	4603      	mov	r3, r0
 8002b16:	2b00      	cmp	r3, #0
 8002b18:	d105      	bne.n	8002b26 <cli_show_help+0x1c6>
        parent = h;
 8002b1a:	693b      	ldr	r3, [r7, #16]
 8002b1c:	f8c7 30b8 	str.w	r3, [r7, #184]	@ 0xb8
        partial = "";
 8002b20:	4b12      	ldr	r3, [pc, #72]	@ (8002b6c <cli_show_help+0x20c>)
 8002b22:	f8c7 30c0 	str.w	r3, [r7, #192]	@ 0xc0
      }
    }

    bool any = (bool)false;
 8002b26:	2300      	movs	r3, #0
 8002b28:	73fb      	strb	r3, [r7, #15]
    CLI_WSTR(cli, "\r\n");
 8002b2a:	4913      	ldr	r1, [pc, #76]	@ (8002b78 <cli_show_help+0x218>)
 8002b2c:	6878      	ldr	r0, [r7, #4]
 8002b2e:	f7fe fc3c 	bl	80013aa <cli_write_str>
    cli_foreach_match(cli, partial, parent, cli_print_help_cb, &any);
 8002b32:	f107 030f 	add.w	r3, r7, #15
 8002b36:	9300      	str	r3, [sp, #0]
 8002b38:	4b10      	ldr	r3, [pc, #64]	@ (8002b7c <cli_show_help+0x21c>)
 8002b3a:	f8d7 20b8 	ldr.w	r2, [r7, #184]	@ 0xb8
 8002b3e:	f8d7 10c0 	ldr.w	r1, [r7, #192]	@ 0xc0
 8002b42:	6878      	ldr	r0, [r7, #4]
 8002b44:	f7ff fad4 	bl	80020f0 <cli_foreach_match>
    if (!any) {
 8002b48:	7bfb      	ldrb	r3, [r7, #15]
 8002b4a:	f083 0301 	eor.w	r3, r3, #1
 8002b4e:	b2db      	uxtb	r3, r3
 8002b50:	2b00      	cmp	r3, #0
 8002b52:	d003      	beq.n	8002b5c <cli_show_help+0x1fc>
      CLI_WSTR(cli, "  <cr>\r\n");
 8002b54:	490a      	ldr	r1, [pc, #40]	@ (8002b80 <cli_show_help+0x220>)
 8002b56:	6878      	ldr	r0, [r7, #4]
 8002b58:	f7fe fc27 	bl	80013aa <cli_write_str>
    }
    cli_redraw_line(cli);
 8002b5c:	6878      	ldr	r0, [r7, #4]
 8002b5e:	f7fe fd0d 	bl	800157c <cli_redraw_line>
  }
}
 8002b62:	bf00      	nop
 8002b64:	37c8      	adds	r7, #200	@ 0xc8
 8002b66:	46bd      	mov	sp, r7
 8002b68:	bd80      	pop	{r7, pc}
 8002b6a:	bf00      	nop
 8002b6c:	080068bc 	.word	0x080068bc
 8002b70:	08006bb0 	.word	0x08006bb0
 8002b74:	08006bc8 	.word	0x08006bc8
 8002b78:	08006b24 	.word	0x08006b24
 8002b7c:	08002029 	.word	0x08002029
 8002b80:	080068c0 	.word	0x080068c0

08002b84 <cli_feed>:
 *
 * @return @c CLI_OK keep feeding. @n
 *         @c CLI_ERR_QUIT session ended cleanly. @n
 *         @c CLI_ERR transport / internal error.
 */
static int8_t cli_feed(cli_struct_t *cli, int byte) {
 8002b84:	b580      	push	{r7, lr}
 8002b86:	b084      	sub	sp, #16
 8002b88:	af00      	add	r7, sp, #0
 8002b8a:	6078      	str	r0, [r7, #4]
 8002b8c:	6039      	str	r1, [r7, #0]
  int8_t rc = CLI_ERR;
 8002b8e:	23ff      	movs	r3, #255	@ 0xff
 8002b90:	73fb      	strb	r3, [r7, #15]
  bool printable = (bool)false;
 8002b92:	2300      	movs	r3, #0
 8002b94:	73bb      	strb	r3, [r7, #14]

  if (cli != NULL && cli->session_state != CLI_SESSION_STOP) {
 8002b96:	687b      	ldr	r3, [r7, #4]
 8002b98:	2b00      	cmp	r3, #0
 8002b9a:	f000 821f 	beq.w	8002fdc <cli_feed+0x458>
 8002b9e:	687b      	ldr	r3, [r7, #4]
 8002ba0:	f893 3275 	ldrb.w	r3, [r3, #629]	@ 0x275
 8002ba4:	2b03      	cmp	r3, #3
 8002ba6:	f000 8219 	beq.w	8002fdc <cli_feed+0x458>
    cli_touch_activity_internal(cli);
 8002baa:	6878      	ldr	r0, [r7, #4]
 8002bac:	f7fe fc34 	bl	8001418 <cli_touch_activity_internal>
    rc = CLI_OK;
 8002bb0:	2300      	movs	r3, #0
 8002bb2:	73fb      	strb	r3, [r7, #15]

    if (cli->saw_cr && byte == ASCII_LF) {
 8002bb4:	687b      	ldr	r3, [r7, #4]
 8002bb6:	f893 3428 	ldrb.w	r3, [r3, #1064]	@ 0x428
 8002bba:	2b00      	cmp	r3, #0
 8002bbc:	d007      	beq.n	8002bce <cli_feed+0x4a>
 8002bbe:	683b      	ldr	r3, [r7, #0]
 8002bc0:	2b0a      	cmp	r3, #10
 8002bc2:	d104      	bne.n	8002bce <cli_feed+0x4a>
      cli->saw_cr = (bool)false;
 8002bc4:	687b      	ldr	r3, [r7, #4]
 8002bc6:	2200      	movs	r2, #0
 8002bc8:	f883 2428 	strb.w	r2, [r3, #1064]	@ 0x428
 8002bcc:	e206      	b.n	8002fdc <cli_feed+0x458>
    } else {
      cli->saw_cr = (bool)(byte == ASCII_CR);
 8002bce:	683b      	ldr	r3, [r7, #0]
 8002bd0:	2b0d      	cmp	r3, #13
 8002bd2:	bf0c      	ite	eq
 8002bd4:	2301      	moveq	r3, #1
 8002bd6:	2300      	movne	r3, #0
 8002bd8:	b2da      	uxtb	r2, r3
 8002bda:	687b      	ldr	r3, [r7, #4]
 8002bdc:	f883 2428 	strb.w	r2, [r3, #1064]	@ 0x428

      cli->suppress_help_newline = (bool)false;
 8002be0:	687b      	ldr	r3, [r7, #4]
 8002be2:	2200      	movs	r2, #0
 8002be4:	f883 242a 	strb.w	r2, [r3, #1066]	@ 0x42a

      /* Escape / CSI sequences */
      bool esc_processed = cli_process_escape(cli, byte);
 8002be8:	6839      	ldr	r1, [r7, #0]
 8002bea:	6878      	ldr	r0, [r7, #4]
 8002bec:	f000 fefd 	bl	80039ea <cli_process_escape>
 8002bf0:	4603      	mov	r3, r0
 8002bf2:	737b      	strb	r3, [r7, #13]
      if (!(cli->esc_state != ESC_STATE_NORMAL || byte == 0x1B) || !esc_processed) {
 8002bf4:	687b      	ldr	r3, [r7, #4]
 8002bf6:	f893 3420 	ldrb.w	r3, [r3, #1056]	@ 0x420
 8002bfa:	2b00      	cmp	r3, #0
 8002bfc:	d102      	bne.n	8002c04 <cli_feed+0x80>
 8002bfe:	683b      	ldr	r3, [r7, #0]
 8002c00:	2b1b      	cmp	r3, #27
 8002c02:	d106      	bne.n	8002c12 <cli_feed+0x8e>
 8002c04:	7b7b      	ldrb	r3, [r7, #13]
 8002c06:	f083 0301 	eor.w	r3, r3, #1
 8002c0a:	b2db      	uxtb	r3, r3
 8002c0c:	2b00      	cmp	r3, #0
 8002c0e:	f000 81e5 	beq.w	8002fdc <cli_feed+0x458>
        /* Control characters */
        switch (byte) {
 8002c12:	683b      	ldr	r3, [r7, #0]
 8002c14:	3b01      	subs	r3, #1
 8002c16:	2b7e      	cmp	r3, #126	@ 0x7e
 8002c18:	f200 817f 	bhi.w	8002f1a <cli_feed+0x396>
 8002c1c:	a201      	add	r2, pc, #4	@ (adr r2, 8002c24 <cli_feed+0xa0>)
 8002c1e:	f852 f023 	ldr.w	pc, [r2, r3, lsl #2]
 8002c22:	bf00      	nop
 8002c24:	08002e8d 	.word	0x08002e8d
 8002c28:	08002e9f 	.word	0x08002e9f
 8002c2c:	08002f1b 	.word	0x08002f1b
 8002c30:	08002ecd 	.word	0x08002ecd
 8002c34:	08002e97 	.word	0x08002e97
 8002c38:	08002eab 	.word	0x08002eab
 8002c3c:	08002f1b 	.word	0x08002f1b
 8002c40:	08002e85 	.word	0x08002e85
 8002c44:	08002e7d 	.word	0x08002e7d
 8002c48:	08002e21 	.word	0x08002e21
 8002c4c:	08002eb5 	.word	0x08002eb5
 8002c50:	08002ef5 	.word	0x08002ef5
 8002c54:	08002e21 	.word	0x08002e21
 8002c58:	08002f11 	.word	0x08002f11
 8002c5c:	08002f1b 	.word	0x08002f1b
 8002c60:	08002f05 	.word	0x08002f05
 8002c64:	08002f1b 	.word	0x08002f1b
 8002c68:	08002f1b 	.word	0x08002f1b
 8002c6c:	08002f1b 	.word	0x08002f1b
 8002c70:	08002f1b 	.word	0x08002f1b
 8002c74:	08002ec5 	.word	0x08002ec5
 8002c78:	08002f1b 	.word	0x08002f1b
 8002c7c:	08002ebd 	.word	0x08002ebd
 8002c80:	08002f1b 	.word	0x08002f1b
 8002c84:	08002f1b 	.word	0x08002f1b
 8002c88:	08002f1b 	.word	0x08002f1b
 8002c8c:	08002f1b 	.word	0x08002f1b
 8002c90:	08002f1b 	.word	0x08002f1b
 8002c94:	08002f1b 	.word	0x08002f1b
 8002c98:	08002f1b 	.word	0x08002f1b
 8002c9c:	08002f1b 	.word	0x08002f1b
 8002ca0:	08002f1b 	.word	0x08002f1b
 8002ca4:	08002f1b 	.word	0x08002f1b
 8002ca8:	08002f1b 	.word	0x08002f1b
 8002cac:	08002f1b 	.word	0x08002f1b
 8002cb0:	08002f1b 	.word	0x08002f1b
 8002cb4:	08002f1b 	.word	0x08002f1b
 8002cb8:	08002f1b 	.word	0x08002f1b
 8002cbc:	08002f1b 	.word	0x08002f1b
 8002cc0:	08002f1b 	.word	0x08002f1b
 8002cc4:	08002f1b 	.word	0x08002f1b
 8002cc8:	08002f1b 	.word	0x08002f1b
 8002ccc:	08002f1b 	.word	0x08002f1b
 8002cd0:	08002f1b 	.word	0x08002f1b
 8002cd4:	08002f1b 	.word	0x08002f1b
 8002cd8:	08002f1b 	.word	0x08002f1b
 8002cdc:	08002f1b 	.word	0x08002f1b
 8002ce0:	08002f1b 	.word	0x08002f1b
 8002ce4:	08002f1b 	.word	0x08002f1b
 8002ce8:	08002f1b 	.word	0x08002f1b
 8002cec:	08002f1b 	.word	0x08002f1b
 8002cf0:	08002f1b 	.word	0x08002f1b
 8002cf4:	08002f1b 	.word	0x08002f1b
 8002cf8:	08002f1b 	.word	0x08002f1b
 8002cfc:	08002f1b 	.word	0x08002f1b
 8002d00:	08002f1b 	.word	0x08002f1b
 8002d04:	08002f1b 	.word	0x08002f1b
 8002d08:	08002f1b 	.word	0x08002f1b
 8002d0c:	08002f1b 	.word	0x08002f1b
 8002d10:	08002f1b 	.word	0x08002f1b
 8002d14:	08002f1b 	.word	0x08002f1b
 8002d18:	08002f1b 	.word	0x08002f1b
 8002d1c:	08002f1b 	.word	0x08002f1b
 8002d20:	08002f1b 	.word	0x08002f1b
 8002d24:	08002f1b 	.word	0x08002f1b
 8002d28:	08002f1b 	.word	0x08002f1b
 8002d2c:	08002f1b 	.word	0x08002f1b
 8002d30:	08002f1b 	.word	0x08002f1b
 8002d34:	08002f1b 	.word	0x08002f1b
 8002d38:	08002f1b 	.word	0x08002f1b
 8002d3c:	08002f1b 	.word	0x08002f1b
 8002d40:	08002f1b 	.word	0x08002f1b
 8002d44:	08002f1b 	.word	0x08002f1b
 8002d48:	08002f1b 	.word	0x08002f1b
 8002d4c:	08002f1b 	.word	0x08002f1b
 8002d50:	08002f1b 	.word	0x08002f1b
 8002d54:	08002f1b 	.word	0x08002f1b
 8002d58:	08002f1b 	.word	0x08002f1b
 8002d5c:	08002f1b 	.word	0x08002f1b
 8002d60:	08002f1b 	.word	0x08002f1b
 8002d64:	08002f1b 	.word	0x08002f1b
 8002d68:	08002f1b 	.word	0x08002f1b
 8002d6c:	08002f1b 	.word	0x08002f1b
 8002d70:	08002f1b 	.word	0x08002f1b
 8002d74:	08002f1b 	.word	0x08002f1b
 8002d78:	08002f1b 	.word	0x08002f1b
 8002d7c:	08002f1b 	.word	0x08002f1b
 8002d80:	08002f1b 	.word	0x08002f1b
 8002d84:	08002f1b 	.word	0x08002f1b
 8002d88:	08002f1b 	.word	0x08002f1b
 8002d8c:	08002f1b 	.word	0x08002f1b
 8002d90:	08002f1b 	.word	0x08002f1b
 8002d94:	08002f1b 	.word	0x08002f1b
 8002d98:	08002f1b 	.word	0x08002f1b
 8002d9c:	08002f1b 	.word	0x08002f1b
 8002da0:	08002f1b 	.word	0x08002f1b
 8002da4:	08002f1b 	.word	0x08002f1b
 8002da8:	08002f1b 	.word	0x08002f1b
 8002dac:	08002f1b 	.word	0x08002f1b
 8002db0:	08002f1b 	.word	0x08002f1b
 8002db4:	08002f1b 	.word	0x08002f1b
 8002db8:	08002f1b 	.word	0x08002f1b
 8002dbc:	08002f1b 	.word	0x08002f1b
 8002dc0:	08002f1b 	.word	0x08002f1b
 8002dc4:	08002f1b 	.word	0x08002f1b
 8002dc8:	08002f1b 	.word	0x08002f1b
 8002dcc:	08002f1b 	.word	0x08002f1b
 8002dd0:	08002f1b 	.word	0x08002f1b
 8002dd4:	08002f1b 	.word	0x08002f1b
 8002dd8:	08002f1b 	.word	0x08002f1b
 8002ddc:	08002f1b 	.word	0x08002f1b
 8002de0:	08002f1b 	.word	0x08002f1b
 8002de4:	08002f1b 	.word	0x08002f1b
 8002de8:	08002f1b 	.word	0x08002f1b
 8002dec:	08002f1b 	.word	0x08002f1b
 8002df0:	08002f1b 	.word	0x08002f1b
 8002df4:	08002f1b 	.word	0x08002f1b
 8002df8:	08002f1b 	.word	0x08002f1b
 8002dfc:	08002f1b 	.word	0x08002f1b
 8002e00:	08002f1b 	.word	0x08002f1b
 8002e04:	08002f1b 	.word	0x08002f1b
 8002e08:	08002f1b 	.word	0x08002f1b
 8002e0c:	08002f1b 	.word	0x08002f1b
 8002e10:	08002f1b 	.word	0x08002f1b
 8002e14:	08002f1b 	.word	0x08002f1b
 8002e18:	08002f1b 	.word	0x08002f1b
 8002e1c:	08002e85 	.word	0x08002e85
        /* Enter */
        case ASCII_CR:
          /* fallthrough */
        case ASCII_LF: {
          CLI_WSTR(cli, "\n\r");
 8002e20:	4971      	ldr	r1, [pc, #452]	@ (8002fe8 <cli_feed+0x464>)
 8002e22:	6878      	ldr	r0, [r7, #4]
 8002e24:	f7fe fac1 	bl	80013aa <cli_write_str>
          int8_t exec_rc = cli_submit_line(cli);
 8002e28:	6878      	ldr	r0, [r7, #4]
 8002e2a:	f000 fd25 	bl	8003878 <cli_submit_line>
 8002e2e:	4603      	mov	r3, r0
 8002e30:	733b      	strb	r3, [r7, #12]
          if (exec_rc == CLI_ERR_QUIT) {
 8002e32:	f997 300c 	ldrsb.w	r3, [r7, #12]
 8002e36:	f113 0f02 	cmn.w	r3, #2
 8002e3a:	d106      	bne.n	8002e4a <cli_feed+0x2c6>
            cli->session_state = CLI_SESSION_STOP;
 8002e3c:	687b      	ldr	r3, [r7, #4]
 8002e3e:	2203      	movs	r2, #3
 8002e40:	f883 2275 	strb.w	r2, [r3, #629]	@ 0x275
            rc = CLI_ERR_QUIT;
 8002e44:	23fe      	movs	r3, #254	@ 0xfe
 8002e46:	73fb      	strb	r3, [r7, #15]
          } else if (cli->session_state == CLI_SESSION_RUN) {
            cli_show_prompt(cli);
          } else {
            /* To silence MISRA */
          }
        } break;
 8002e48:	e070      	b.n	8002f2c <cli_feed+0x3a8>
          } else if (exec_rc == CLI_ERR_AUTH) {
 8002e4a:	f997 300c 	ldrsb.w	r3, [r7, #12]
 8002e4e:	f113 0f04 	cmn.w	r3, #4
 8002e52:	d106      	bne.n	8002e62 <cli_feed+0x2de>
            cli->session_state = CLI_SESSION_STOP;
 8002e54:	687b      	ldr	r3, [r7, #4]
 8002e56:	2203      	movs	r2, #3
 8002e58:	f883 2275 	strb.w	r2, [r3, #629]	@ 0x275
            rc = exec_rc;
 8002e5c:	7b3b      	ldrb	r3, [r7, #12]
 8002e5e:	73fb      	strb	r3, [r7, #15]
        } break;
 8002e60:	e064      	b.n	8002f2c <cli_feed+0x3a8>
          } else if (exec_rc == CLI_EXEC_REPLAY_INPUT) {
 8002e62:	f997 300c 	ldrsb.w	r3, [r7, #12]
 8002e66:	2b01      	cmp	r3, #1
 8002e68:	d060      	beq.n	8002f2c <cli_feed+0x3a8>
          } else if (cli->session_state == CLI_SESSION_RUN) {
 8002e6a:	687b      	ldr	r3, [r7, #4]
 8002e6c:	f893 3275 	ldrb.w	r3, [r3, #629]	@ 0x275
 8002e70:	2b02      	cmp	r3, #2
 8002e72:	d15b      	bne.n	8002f2c <cli_feed+0x3a8>
            cli_show_prompt(cli);
 8002e74:	6878      	ldr	r0, [r7, #4]
 8002e76:	f7fe fdb8 	bl	80019ea <cli_show_prompt>
        } break;
 8002e7a:	e057      	b.n	8002f2c <cli_feed+0x3a8>

        /* Tab — completion */
#if CLI_ENABLE_TAB_COMPLETION
        case ASCII_TAB:
          cli_tab_complete(cli);
 8002e7c:	6878      	ldr	r0, [r7, #4]
 8002e7e:	f7ff fb3f 	bl	8002500 <cli_tab_complete>
          break;
 8002e82:	e056      	b.n	8002f32 <cli_feed+0x3ae>
#endif

        /* Backspace / DEL */
        case ASCII_BS:
        case ASCII_DEL:
          cli_backspace(cli);
 8002e84:	6878      	ldr	r0, [r7, #4]
 8002e86:	f7fe fd11 	bl	80018ac <cli_backspace>
          break;
 8002e8a:	e052      	b.n	8002f32 <cli_feed+0x3ae>

        /* Ctrl+A — beginning of line */
        case 0x01:
          cli_move_cursor(cli, 0);
 8002e8c:	2100      	movs	r1, #0
 8002e8e:	6878      	ldr	r0, [r7, #4]
 8002e90:	f7fe fbed 	bl	800166e <cli_move_cursor>
          break;
 8002e94:	e04d      	b.n	8002f32 <cli_feed+0x3ae>

        /* Ctrl+E — end of line */
        case 0x05:
          cli_move_cursor_end(cli);
 8002e96:	6878      	ldr	r0, [r7, #4]
 8002e98:	f7fe fbda 	bl	8001650 <cli_move_cursor_end>
          break;
 8002e9c:	e049      	b.n	8002f32 <cli_feed+0x3ae>

        /* Ctrl+B — back one char */
        case 0x02:
          cli_move_cursor_delta(cli, -1);
 8002e9e:	f04f 31ff 	mov.w	r1, #4294967295
 8002ea2:	6878      	ldr	r0, [r7, #4]
 8002ea4:	f7fe fba6 	bl	80015f4 <cli_move_cursor_delta>
          break;
 8002ea8:	e043      	b.n	8002f32 <cli_feed+0x3ae>

        /* Ctrl+F — forward one char */
        case 0x06:
          cli_move_cursor_delta(cli, 1);
 8002eaa:	2101      	movs	r1, #1
 8002eac:	6878      	ldr	r0, [r7, #4]
 8002eae:	f7fe fba1 	bl	80015f4 <cli_move_cursor_delta>
          break;
 8002eb2:	e03e      	b.n	8002f32 <cli_feed+0x3ae>

        /* Ctrl+K — kill to EOL */
        case 0x0B:
          cli_kill_line(cli);
 8002eb4:	6878      	ldr	r0, [r7, #4]
 8002eb6:	f7fe fd14 	bl	80018e2 <cli_kill_line>
          break;
 8002eba:	e03a      	b.n	8002f32 <cli_feed+0x3ae>

        /* Ctrl+W — kill word backward */
        case 0x17:
          cli_kill_word(cli);
 8002ebc:	6878      	ldr	r0, [r7, #4]
 8002ebe:	f7fe fd4d 	bl	800195c <cli_kill_word>
          break;
 8002ec2:	e036      	b.n	8002f32 <cli_feed+0x3ae>

        /* Ctrl+U — kill whole line */
        case 0x15:
          cli_clear_input(cli);
 8002ec4:	6878      	ldr	r0, [r7, #4]
 8002ec6:	f7fe fd77 	bl	80019b8 <cli_clear_input>
          break;
 8002eca:	e032      	b.n	8002f32 <cli_feed+0x3ae>

        /* Ctrl+D — delete char under cursor */
        case 0x04:
          if (cli->input_len == 0) {
 8002ecc:	687b      	ldr	r3, [r7, #4]
 8002ece:	f8d3 31a0 	ldr.w	r3, [r3, #416]	@ 0x1a0
 8002ed2:	2b00      	cmp	r3, #0
 8002ed4:	d10a      	bne.n	8002eec <cli_feed+0x368>
            /* EOF on empty line -> quit */
            CLI_WSTR(cli, "\r\n");
 8002ed6:	4945      	ldr	r1, [pc, #276]	@ (8002fec <cli_feed+0x468>)
 8002ed8:	6878      	ldr	r0, [r7, #4]
 8002eda:	f7fe fa66 	bl	80013aa <cli_write_str>
            cli->session_state = CLI_SESSION_STOP;
 8002ede:	687b      	ldr	r3, [r7, #4]
 8002ee0:	2203      	movs	r2, #3
 8002ee2:	f883 2275 	strb.w	r2, [r3, #629]	@ 0x275
            rc = CLI_ERR_QUIT;
 8002ee6:	23fe      	movs	r3, #254	@ 0xfe
 8002ee8:	73fb      	strb	r3, [r7, #15]
          } else {
            cli_delete_char(cli);
          }
          break;
 8002eea:	e022      	b.n	8002f32 <cli_feed+0x3ae>
            cli_delete_char(cli);
 8002eec:	6878      	ldr	r0, [r7, #4]
 8002eee:	f7fe fc74 	bl	80017da <cli_delete_char>
          break;
 8002ef2:	e01e      	b.n	8002f32 <cli_feed+0x3ae>

        /* Ctrl+L — clear screen and redraw */
        case 0x0C:
          CLI_WSTR(cli, "\x1b"
 8002ef4:	493e      	ldr	r1, [pc, #248]	@ (8002ff0 <cli_feed+0x46c>)
 8002ef6:	6878      	ldr	r0, [r7, #4]
 8002ef8:	f7fe fa57 	bl	80013aa <cli_write_str>
                        "[2J\x1b"
                        "[H");
          cli_redraw_line(cli);
 8002efc:	6878      	ldr	r0, [r7, #4]
 8002efe:	f7fe fb3d 	bl	800157c <cli_redraw_line>
          break;
 8002f02:	e016      	b.n	8002f32 <cli_feed+0x3ae>

#if CLI_ENABLE_HISTORY
        /* Ctrl+P — history up (previous command) */
        case 0x10:
          cli_history_navigate(cli, CLI_HISTORY_NAV_PREV);
 8002f04:	f04f 31ff 	mov.w	r1, #4294967295
 8002f08:	6878      	ldr	r0, [r7, #4]
 8002f0a:	f7fe ff9f 	bl	8001e4c <cli_history_navigate>
          break;
 8002f0e:	e010      	b.n	8002f32 <cli_feed+0x3ae>

        /* Ctrl+N — history down (next command) */
        case 0x0E:
          cli_history_navigate(cli, CLI_HISTORY_NAV_NEXT);
 8002f10:	2101      	movs	r1, #1
 8002f12:	6878      	ldr	r0, [r7, #4]
 8002f14:	f7fe ff9a 	bl	8001e4c <cli_history_navigate>
          break;
 8002f18:	e00b      	b.n	8002f32 <cli_feed+0x3ae>
#endif /* CLI_ENABLE_HISTORY */

        /* Ignore other control characters */
        default:
          if (byte >= 0x20 && byte <= 0x7E) {
 8002f1a:	683b      	ldr	r3, [r7, #0]
 8002f1c:	2b1f      	cmp	r3, #31
 8002f1e:	dd07      	ble.n	8002f30 <cli_feed+0x3ac>
 8002f20:	683b      	ldr	r3, [r7, #0]
 8002f22:	2b7e      	cmp	r3, #126	@ 0x7e
 8002f24:	dc04      	bgt.n	8002f30 <cli_feed+0x3ac>
            printable = (bool)true;
 8002f26:	2301      	movs	r3, #1
 8002f28:	73bb      	strb	r3, [r7, #14]
          }
          break;
 8002f2a:	e001      	b.n	8002f30 <cli_feed+0x3ac>
        } break;
 8002f2c:	bf00      	nop
 8002f2e:	e000      	b.n	8002f32 <cli_feed+0x3ae>
          break;
 8002f30:	bf00      	nop
        }

        if (printable) {
 8002f32:	7bbb      	ldrb	r3, [r7, #14]
 8002f34:	2b00      	cmp	r3, #0
 8002f36:	d051      	beq.n	8002fdc <cli_feed+0x458>
          if (byte == ASCII_QUESTION) {
 8002f38:	683b      	ldr	r3, [r7, #0]
 8002f3a:	2b3f      	cmp	r3, #63	@ 0x3f
 8002f3c:	d148      	bne.n	8002fd0 <cli_feed+0x44c>
            cli_len_t help_cursor = cli->cursor;
 8002f3e:	687b      	ldr	r3, [r7, #4]
 8002f40:	f8d3 31a4 	ldr.w	r3, [r3, #420]	@ 0x1a4
 8002f44:	60bb      	str	r3, [r7, #8]
            cli_insert_char(cli, '?');
 8002f46:	213f      	movs	r1, #63	@ 0x3f
 8002f48:	6878      	ldr	r0, [r7, #4]
 8002f4a:	f7fe fbcf 	bl	80016ec <cli_insert_char>
            if (cli->ansi_supported) {
 8002f4e:	687b      	ldr	r3, [r7, #4]
 8002f50:	f893 3429 	ldrb.w	r3, [r3, #1065]	@ 0x429
 8002f54:	2b00      	cmp	r3, #0
 8002f56:	d006      	beq.n	8002f66 <cli_feed+0x3e2>
              cli_show_help(cli);
 8002f58:	6878      	ldr	r0, [r7, #4]
 8002f5a:	f7ff fd01 	bl	8002960 <cli_show_help>
              cli_backspace(cli); /* remove the '?' after showing help */
 8002f5e:	6878      	ldr	r0, [r7, #4]
 8002f60:	f7fe fca4 	bl	80018ac <cli_backspace>
 8002f64:	e02f      	b.n	8002fc6 <cli_feed+0x442>
            } else {
              /* Dumb terminal: remove '?' before redraw; do not emit backspace cleanup bytes. */
              if (help_cursor < cli->input_len) {
 8002f66:	687b      	ldr	r3, [r7, #4]
 8002f68:	f8d3 31a0 	ldr.w	r3, [r3, #416]	@ 0x1a0
 8002f6c:	68ba      	ldr	r2, [r7, #8]
 8002f6e:	429a      	cmp	r2, r3
 8002f70:	da26      	bge.n	8002fc0 <cli_feed+0x43c>
                (void)memmove(&cli->input[help_cursor], &cli->input[help_cursor + 1],
 8002f72:	68bb      	ldr	r3, [r7, #8]
 8002f74:	f503 73a0 	add.w	r3, r3, #320	@ 0x140
 8002f78:	687a      	ldr	r2, [r7, #4]
 8002f7a:	18d0      	adds	r0, r2, r3
 8002f7c:	68bb      	ldr	r3, [r7, #8]
 8002f7e:	3301      	adds	r3, #1
 8002f80:	f503 73a0 	add.w	r3, r3, #320	@ 0x140
 8002f84:	687a      	ldr	r2, [r7, #4]
 8002f86:	18d1      	adds	r1, r2, r3
                              (size_t)(cli->input_len - help_cursor - 1));
 8002f88:	687b      	ldr	r3, [r7, #4]
 8002f8a:	f8d3 21a0 	ldr.w	r2, [r3, #416]	@ 0x1a0
 8002f8e:	68bb      	ldr	r3, [r7, #8]
 8002f90:	1ad3      	subs	r3, r2, r3
 8002f92:	3b01      	subs	r3, #1
                (void)memmove(&cli->input[help_cursor], &cli->input[help_cursor + 1],
 8002f94:	461a      	mov	r2, r3
 8002f96:	f002 ff25 	bl	8005de4 <memmove>
                cli->input_len--;
 8002f9a:	687b      	ldr	r3, [r7, #4]
 8002f9c:	f8d3 31a0 	ldr.w	r3, [r3, #416]	@ 0x1a0
 8002fa0:	1e5a      	subs	r2, r3, #1
 8002fa2:	687b      	ldr	r3, [r7, #4]
 8002fa4:	f8c3 21a0 	str.w	r2, [r3, #416]	@ 0x1a0
                cli->input[cli->input_len] = '\0';
 8002fa8:	687b      	ldr	r3, [r7, #4]
 8002faa:	f8d3 31a0 	ldr.w	r3, [r3, #416]	@ 0x1a0
 8002fae:	687a      	ldr	r2, [r7, #4]
 8002fb0:	4413      	add	r3, r2
 8002fb2:	2200      	movs	r2, #0
 8002fb4:	f883 2140 	strb.w	r2, [r3, #320]	@ 0x140
                cli->cursor = help_cursor;
 8002fb8:	687b      	ldr	r3, [r7, #4]
 8002fba:	68ba      	ldr	r2, [r7, #8]
 8002fbc:	f8c3 21a4 	str.w	r2, [r3, #420]	@ 0x1a4
              }
              cli_show_help(cli);
 8002fc0:	6878      	ldr	r0, [r7, #4]
 8002fc2:	f7ff fccd 	bl	8002960 <cli_show_help>
            }
            cli->suppress_help_newline = (bool)true;
 8002fc6:	687b      	ldr	r3, [r7, #4]
 8002fc8:	2201      	movs	r2, #1
 8002fca:	f883 242a 	strb.w	r2, [r3, #1066]	@ 0x42a
 8002fce:	e005      	b.n	8002fdc <cli_feed+0x458>
          } else {
            /* Printable character — insert at cursor */
            cli_insert_char(cli, (char)byte);
 8002fd0:	683b      	ldr	r3, [r7, #0]
 8002fd2:	b2db      	uxtb	r3, r3
 8002fd4:	4619      	mov	r1, r3
 8002fd6:	6878      	ldr	r0, [r7, #4]
 8002fd8:	f7fe fb88 	bl	80016ec <cli_insert_char>
        }
      }
    }
  }

  return rc;
 8002fdc:	f997 300f 	ldrsb.w	r3, [r7, #15]
}
 8002fe0:	4618      	mov	r0, r3
 8002fe2:	3710      	adds	r7, #16
 8002fe4:	46bd      	mov	sp, r7
 8002fe6:	bd80      	pop	{r7, pc}
 8002fe8:	08006be4 	.word	0x08006be4
 8002fec:	08006b24 	.word	0x08006b24
 8002ff0:	080068cc 	.word	0x080068cc

08002ff4 <cli_execute_command>:
 * @param[in] parent  Node handle to match children of.
 *
 * @return @c CLI_OK, @c CLI_ERR, @c CLI_ERR_QUIT, or @c CLI_ERR_AMBIG.
 */
static int8_t cli_execute_command(cli_struct_t *cli, const char *argv[], cli_argc_t argc,
                                  cli_argc_t depth, cli_cmd_handle_t parent) {
 8002ff4:	b590      	push	{r4, r7, lr}
 8002ff6:	b08b      	sub	sp, #44	@ 0x2c
 8002ff8:	af00      	add	r7, sp, #0
 8002ffa:	60f8      	str	r0, [r7, #12]
 8002ffc:	60b9      	str	r1, [r7, #8]
 8002ffe:	607a      	str	r2, [r7, #4]
 8003000:	603b      	str	r3, [r7, #0]
  int8_t rc = CLI_ERR;
 8003002:	23ff      	movs	r3, #255	@ 0xff
 8003004:	f887 3027 	strb.w	r3, [r7, #39]	@ 0x27
  bool done = (bool)false;
 8003008:	2300      	movs	r3, #0
 800300a:	f887 3026 	strb.w	r3, [r7, #38]	@ 0x26

  for (; depth < argc && !done; depth++) {
 800300e:	e08f      	b.n	8003130 <cli_execute_command+0x13c>
    cli_cmd_handle_t h;
    int8_t r = cli_resolve_one(cli, argv[depth], parent, &h);
 8003010:	683b      	ldr	r3, [r7, #0]
 8003012:	009b      	lsls	r3, r3, #2
 8003014:	68ba      	ldr	r2, [r7, #8]
 8003016:	4413      	add	r3, r2
 8003018:	6819      	ldr	r1, [r3, #0]
 800301a:	f107 0314 	add.w	r3, r7, #20
 800301e:	6bba      	ldr	r2, [r7, #56]	@ 0x38
 8003020:	68f8      	ldr	r0, [r7, #12]
 8003022:	f7ff f8d3 	bl	80021cc <cli_resolve_one>
 8003026:	4603      	mov	r3, r0
 8003028:	f887 3025 	strb.w	r3, [r7, #37]	@ 0x25

    if (r == CLI_ERR) {
 800302c:	f997 3025 	ldrsb.w	r3, [r7, #37]	@ 0x25
 8003030:	f1b3 3fff 	cmp.w	r3, #4294967295
 8003034:	d114      	bne.n	8003060 <cli_execute_command+0x6c>
      CLI_WSTR(cli, "% Unknown command: ");
 8003036:	495f      	ldr	r1, [pc, #380]	@ (80031b4 <cli_execute_command+0x1c0>)
 8003038:	68f8      	ldr	r0, [r7, #12]
 800303a:	f7fe f9b6 	bl	80013aa <cli_write_str>
      cli_write_str(cli, argv[depth]);
 800303e:	683b      	ldr	r3, [r7, #0]
 8003040:	009b      	lsls	r3, r3, #2
 8003042:	68ba      	ldr	r2, [r7, #8]
 8003044:	4413      	add	r3, r2
 8003046:	681b      	ldr	r3, [r3, #0]
 8003048:	4619      	mov	r1, r3
 800304a:	68f8      	ldr	r0, [r7, #12]
 800304c:	f7fe f9ad 	bl	80013aa <cli_write_str>
      CLI_WSTR(cli, "\r\n");
 8003050:	4959      	ldr	r1, [pc, #356]	@ (80031b8 <cli_execute_command+0x1c4>)
 8003052:	68f8      	ldr	r0, [r7, #12]
 8003054:	f7fe f9a9 	bl	80013aa <cli_write_str>
      done = (bool)true;
 8003058:	2301      	movs	r3, #1
 800305a:	f887 3026 	strb.w	r3, [r7, #38]	@ 0x26
 800305e:	e064      	b.n	800312a <cli_execute_command+0x136>
    } else if (r == CLI_ERR_AMBIG) {
 8003060:	f997 3025 	ldrsb.w	r3, [r7, #37]	@ 0x25
 8003064:	f113 0f05 	cmn.w	r3, #5
 8003068:	d117      	bne.n	800309a <cli_execute_command+0xa6>
      CLI_WSTR(cli, "% Ambiguous command: ");
 800306a:	4954      	ldr	r1, [pc, #336]	@ (80031bc <cli_execute_command+0x1c8>)
 800306c:	68f8      	ldr	r0, [r7, #12]
 800306e:	f7fe f99c 	bl	80013aa <cli_write_str>
      cli_write_str(cli, argv[depth]);
 8003072:	683b      	ldr	r3, [r7, #0]
 8003074:	009b      	lsls	r3, r3, #2
 8003076:	68ba      	ldr	r2, [r7, #8]
 8003078:	4413      	add	r3, r2
 800307a:	681b      	ldr	r3, [r3, #0]
 800307c:	4619      	mov	r1, r3
 800307e:	68f8      	ldr	r0, [r7, #12]
 8003080:	f7fe f993 	bl	80013aa <cli_write_str>
      CLI_WSTR(cli, "\r\n");
 8003084:	494c      	ldr	r1, [pc, #304]	@ (80031b8 <cli_execute_command+0x1c4>)
 8003086:	68f8      	ldr	r0, [r7, #12]
 8003088:	f7fe f98f 	bl	80013aa <cli_write_str>
      rc = CLI_ERR_AMBIG;
 800308c:	23fb      	movs	r3, #251	@ 0xfb
 800308e:	f887 3027 	strb.w	r3, [r7, #39]	@ 0x27
      done = (bool)true;
 8003092:	2301      	movs	r3, #1
 8003094:	f887 3026 	strb.w	r3, [r7, #38]	@ 0x26
 8003098:	e047      	b.n	800312a <cli_execute_command+0x136>
    } else {
      // --- Execution Path ---
      const cli_cmd_struct_t *cmd = &cli->cmd_pool[h];
 800309a:	68fb      	ldr	r3, [r7, #12]
 800309c:	699a      	ldr	r2, [r3, #24]
 800309e:	697b      	ldr	r3, [r7, #20]
 80030a0:	4619      	mov	r1, r3
 80030a2:	2364      	movs	r3, #100	@ 0x64
 80030a4:	fb01 f303 	mul.w	r3, r1, r3
 80030a8:	4413      	add	r3, r2
 80030aa:	623b      	str	r3, [r7, #32]
      bool has_children = cli_cmd_has_children(cli, h);
 80030ac:	697b      	ldr	r3, [r7, #20]
 80030ae:	4619      	mov	r1, r3
 80030b0:	68f8      	ldr	r0, [r7, #12]
 80030b2:	f7ff f97a 	bl	80023aa <cli_cmd_has_children>
 80030b6:	4603      	mov	r3, r0
 80030b8:	77fb      	strb	r3, [r7, #31]

      /* If this node has children and more tokens remain, descend to next level */
      if (has_children && depth + 1 < argc) {
 80030ba:	7ffb      	ldrb	r3, [r7, #31]
 80030bc:	2b00      	cmp	r3, #0
 80030be:	d007      	beq.n	80030d0 <cli_execute_command+0xdc>
 80030c0:	683b      	ldr	r3, [r7, #0]
 80030c2:	3301      	adds	r3, #1
 80030c4:	687a      	ldr	r2, [r7, #4]
 80030c6:	429a      	cmp	r2, r3
 80030c8:	dd02      	ble.n	80030d0 <cli_execute_command+0xdc>
        parent = h;
 80030ca:	697b      	ldr	r3, [r7, #20]
 80030cc:	63bb      	str	r3, [r7, #56]	@ 0x38
 80030ce:	e02c      	b.n	800312a <cli_execute_command+0x136>
        /* continue implied by loop increment */
      } else {
        /* Execute this node's callback with remaining tokens as args */
        if (cmd->callback != NULL) {
 80030d0:	6a3b      	ldr	r3, [r7, #32]
 80030d2:	681b      	ldr	r3, [r3, #0]
 80030d4:	2b00      	cmp	r3, #0
 80030d6:	d021      	beq.n	800311c <cli_execute_command+0x128>
          cli_argc_t rem_argc = argc - depth;
 80030d8:	687a      	ldr	r2, [r7, #4]
 80030da:	683b      	ldr	r3, [r7, #0]
 80030dc:	1ad3      	subs	r3, r2, r3
 80030de:	61bb      	str	r3, [r7, #24]
          rc = cmd->callback(cli, cmd->name, rem_argc, &argv[depth]);
 80030e0:	6a3b      	ldr	r3, [r7, #32]
 80030e2:	681c      	ldr	r4, [r3, #0]
 80030e4:	6a3b      	ldr	r3, [r7, #32]
 80030e6:	1d19      	adds	r1, r3, #4
 80030e8:	683b      	ldr	r3, [r7, #0]
 80030ea:	009b      	lsls	r3, r3, #2
 80030ec:	68ba      	ldr	r2, [r7, #8]
 80030ee:	4413      	add	r3, r2
 80030f0:	69ba      	ldr	r2, [r7, #24]
 80030f2:	68f8      	ldr	r0, [r7, #12]
 80030f4:	47a0      	blx	r4
 80030f6:	4603      	mov	r3, r0
 80030f8:	f887 3027 	strb.w	r3, [r7, #39]	@ 0x27

          if (rc == CLI_OK && has_children && rem_argc == 1) {
 80030fc:	f997 3027 	ldrsb.w	r3, [r7, #39]	@ 0x27
 8003100:	2b00      	cmp	r3, #0
 8003102:	d10f      	bne.n	8003124 <cli_execute_command+0x130>
 8003104:	7ffb      	ldrb	r3, [r7, #31]
 8003106:	2b00      	cmp	r3, #0
 8003108:	d00c      	beq.n	8003124 <cli_execute_command+0x130>
 800310a:	69bb      	ldr	r3, [r7, #24]
 800310c:	2b01      	cmp	r3, #1
 800310e:	d109      	bne.n	8003124 <cli_execute_command+0x130>
            cli_context_set_to_node(cli, h);
 8003110:	697b      	ldr	r3, [r7, #20]
 8003112:	4619      	mov	r1, r3
 8003114:	68f8      	ldr	r0, [r7, #12]
 8003116:	f7ff f991 	bl	800243c <cli_context_set_to_node>
 800311a:	e003      	b.n	8003124 <cli_execute_command+0x130>
          }
        } else {
          CLI_WSTR(cli, "% Incomplete command.\r\n");
 800311c:	4928      	ldr	r1, [pc, #160]	@ (80031c0 <cli_execute_command+0x1cc>)
 800311e:	68f8      	ldr	r0, [r7, #12]
 8003120:	f7fe f943 	bl	80013aa <cli_write_str>
        }
        done = (bool)true;
 8003124:	2301      	movs	r3, #1
 8003126:	f887 3026 	strb.w	r3, [r7, #38]	@ 0x26
  for (; depth < argc && !done; depth++) {
 800312a:	683b      	ldr	r3, [r7, #0]
 800312c:	3301      	adds	r3, #1
 800312e:	603b      	str	r3, [r7, #0]
 8003130:	683a      	ldr	r2, [r7, #0]
 8003132:	687b      	ldr	r3, [r7, #4]
 8003134:	429a      	cmp	r2, r3
 8003136:	da07      	bge.n	8003148 <cli_execute_command+0x154>
 8003138:	f897 3026 	ldrb.w	r3, [r7, #38]	@ 0x26
 800313c:	f083 0301 	eor.w	r3, r3, #1
 8003140:	b2db      	uxtb	r3, r3
 8003142:	2b00      	cmp	r3, #0
 8003144:	f47f af64 	bne.w	8003010 <cli_execute_command+0x1c>
  }

  /* Handle natural exhaustion (partial match) */
  /* If the loop finished naturally (depth == argc) and the parent node has a
     callback, call it (allows parent aggregation, e.g. "usage commands"). */
  if (depth == argc && (cli_cmd_handle_t)0 <= parent && parent < cli->cmd_pool_size &&
 8003148:	683a      	ldr	r2, [r7, #0]
 800314a:	687b      	ldr	r3, [r7, #4]
 800314c:	429a      	cmp	r2, r3
 800314e:	d12b      	bne.n	80031a8 <cli_execute_command+0x1b4>
 8003150:	6bbb      	ldr	r3, [r7, #56]	@ 0x38
 8003152:	2b00      	cmp	r3, #0
 8003154:	db28      	blt.n	80031a8 <cli_execute_command+0x1b4>
 8003156:	68fb      	ldr	r3, [r7, #12]
 8003158:	69db      	ldr	r3, [r3, #28]
 800315a:	6bba      	ldr	r2, [r7, #56]	@ 0x38
 800315c:	429a      	cmp	r2, r3
 800315e:	da23      	bge.n	80031a8 <cli_execute_command+0x1b4>
      cli->cmd_pool[parent].callback) {
 8003160:	68fb      	ldr	r3, [r7, #12]
 8003162:	699a      	ldr	r2, [r3, #24]
 8003164:	6bbb      	ldr	r3, [r7, #56]	@ 0x38
 8003166:	2164      	movs	r1, #100	@ 0x64
 8003168:	fb01 f303 	mul.w	r3, r1, r3
 800316c:	4413      	add	r3, r2
 800316e:	681b      	ldr	r3, [r3, #0]
  if (depth == argc && (cli_cmd_handle_t)0 <= parent && parent < cli->cmd_pool_size &&
 8003170:	2b00      	cmp	r3, #0
 8003172:	d019      	beq.n	80031a8 <cli_execute_command+0x1b4>
    rc = cli->cmd_pool[parent].callback(cli, cli->cmd_pool[parent].name, 0, &argv[depth]);
 8003174:	68fb      	ldr	r3, [r7, #12]
 8003176:	699a      	ldr	r2, [r3, #24]
 8003178:	6bbb      	ldr	r3, [r7, #56]	@ 0x38
 800317a:	2164      	movs	r1, #100	@ 0x64
 800317c:	fb01 f303 	mul.w	r3, r1, r3
 8003180:	4413      	add	r3, r2
 8003182:	681c      	ldr	r4, [r3, #0]
 8003184:	68fb      	ldr	r3, [r7, #12]
 8003186:	699a      	ldr	r2, [r3, #24]
 8003188:	6bbb      	ldr	r3, [r7, #56]	@ 0x38
 800318a:	2164      	movs	r1, #100	@ 0x64
 800318c:	fb01 f303 	mul.w	r3, r1, r3
 8003190:	4413      	add	r3, r2
 8003192:	1d19      	adds	r1, r3, #4
 8003194:	683b      	ldr	r3, [r7, #0]
 8003196:	009b      	lsls	r3, r3, #2
 8003198:	68ba      	ldr	r2, [r7, #8]
 800319a:	4413      	add	r3, r2
 800319c:	2200      	movs	r2, #0
 800319e:	68f8      	ldr	r0, [r7, #12]
 80031a0:	47a0      	blx	r4
 80031a2:	4603      	mov	r3, r0
 80031a4:	f887 3027 	strb.w	r3, [r7, #39]	@ 0x27
  }

  return rc;
 80031a8:	f997 3027 	ldrsb.w	r3, [r7, #39]	@ 0x27
}
 80031ac:	4618      	mov	r0, r3
 80031ae:	372c      	adds	r7, #44	@ 0x2c
 80031b0:	46bd      	mov	sp, r7
 80031b2:	bd90      	pop	{r4, r7, pc}
 80031b4:	08006be8 	.word	0x08006be8
 80031b8:	08006b24 	.word	0x08006b24
 80031bc:	08006bfc 	.word	0x08006bfc
 80031c0:	08006c14 	.word	0x08006c14

080031c4 <cli_execute>:
 * @param[in] cli  Active CLI session.
 *
 * @return @c CLI_OK on success, @c CLI_ERR_QUIT on exit/quit, @c CLI_ERR on
 * failure.
 */
static int8_t cli_execute(cli_struct_t *cli) {
 80031c4:	b580      	push	{r7, lr}
 80031c6:	b098      	sub	sp, #96	@ 0x60
 80031c8:	af02      	add	r7, sp, #8
 80031ca:	6078      	str	r0, [r7, #4]
  int8_t rc = CLI_OK;
 80031cc:	2300      	movs	r3, #0
 80031ce:	f887 3057 	strb.w	r3, [r7, #87]	@ 0x57

  /* Trim leading/trailing whitespace */
  char *start = cli->input;
 80031d2:	687b      	ldr	r3, [r7, #4]
 80031d4:	f503 73a0 	add.w	r3, r3, #320	@ 0x140
 80031d8:	653b      	str	r3, [r7, #80]	@ 0x50
  while (*start == ' ' || *start == '\t') {
 80031da:	e002      	b.n	80031e2 <cli_execute+0x1e>
    start++;
 80031dc:	6d3b      	ldr	r3, [r7, #80]	@ 0x50
 80031de:	3301      	adds	r3, #1
 80031e0:	653b      	str	r3, [r7, #80]	@ 0x50
  while (*start == ' ' || *start == '\t') {
 80031e2:	6d3b      	ldr	r3, [r7, #80]	@ 0x50
 80031e4:	781b      	ldrb	r3, [r3, #0]
 80031e6:	2b20      	cmp	r3, #32
 80031e8:	d0f8      	beq.n	80031dc <cli_execute+0x18>
 80031ea:	6d3b      	ldr	r3, [r7, #80]	@ 0x50
 80031ec:	781b      	ldrb	r3, [r3, #0]
 80031ee:	2b09      	cmp	r3, #9
 80031f0:	d0f4      	beq.n	80031dc <cli_execute+0x18>
  }

  cli_len_t slen = (cli_len_t)strlen(start);
 80031f2:	6d38      	ldr	r0, [r7, #80]	@ 0x50
 80031f4:	f7fc ffb4 	bl	8000160 <strlen>
 80031f8:	4603      	mov	r3, r0
 80031fa:	64fb      	str	r3, [r7, #76]	@ 0x4c
  while (slen > 0 && (start[slen - 1] == ' ' || start[slen - 1] == '\t')) {
 80031fc:	e007      	b.n	800320e <cli_execute+0x4a>
    start[--slen] = '\0';
 80031fe:	6cfb      	ldr	r3, [r7, #76]	@ 0x4c
 8003200:	3b01      	subs	r3, #1
 8003202:	64fb      	str	r3, [r7, #76]	@ 0x4c
 8003204:	6cfb      	ldr	r3, [r7, #76]	@ 0x4c
 8003206:	6d3a      	ldr	r2, [r7, #80]	@ 0x50
 8003208:	4413      	add	r3, r2
 800320a:	2200      	movs	r2, #0
 800320c:	701a      	strb	r2, [r3, #0]
  while (slen > 0 && (start[slen - 1] == ' ' || start[slen - 1] == '\t')) {
 800320e:	6cfb      	ldr	r3, [r7, #76]	@ 0x4c
 8003210:	2b00      	cmp	r3, #0
 8003212:	dd0d      	ble.n	8003230 <cli_execute+0x6c>
 8003214:	6cfb      	ldr	r3, [r7, #76]	@ 0x4c
 8003216:	3b01      	subs	r3, #1
 8003218:	6d3a      	ldr	r2, [r7, #80]	@ 0x50
 800321a:	4413      	add	r3, r2
 800321c:	781b      	ldrb	r3, [r3, #0]
 800321e:	2b20      	cmp	r3, #32
 8003220:	d0ed      	beq.n	80031fe <cli_execute+0x3a>
 8003222:	6cfb      	ldr	r3, [r7, #76]	@ 0x4c
 8003224:	3b01      	subs	r3, #1
 8003226:	6d3a      	ldr	r2, [r7, #80]	@ 0x50
 8003228:	4413      	add	r3, r2
 800322a:	781b      	ldrb	r3, [r3, #0]
 800322c:	2b09      	cmp	r3, #9
 800322e:	d0e6      	beq.n	80031fe <cli_execute+0x3a>
  }

  if (slen > 0) {
 8003230:	6cfb      	ldr	r3, [r7, #76]	@ 0x4c
 8003232:	2b00      	cmp	r3, #0
 8003234:	dd4a      	ble.n	80032cc <cli_execute+0x108>
#if CLI_ENABLE_HISTORY
#if CLI_HISTORY_INDEX_SELECTION
    char history_line[CLI_MAX_INPUT_LEN];
    (void)cli_strlcpy(history_line, start, CLI_MAX_INPUT_LEN);
#else
    cli_history_add(cli, cli->input);
 8003236:	687b      	ldr	r3, [r7, #4]
 8003238:	f503 73a0 	add.w	r3, r3, #320	@ 0x140
 800323c:	4619      	mov	r1, r3
 800323e:	6878      	ldr	r0, [r7, #4]
 8003240:	f7fe fcac 	bl	8001b9c <cli_history_add>
#if CLI_ENABLE_PIPE_FILTER
    (void)cli_parse_filter(cli, start);
#endif

    const char *argv[CLI_MAX_ARGS];
    cli_argc_t argc = cli_tokenize(start, argv, CLI_MAX_ARGS);
 8003244:	f107 030c 	add.w	r3, r7, #12
 8003248:	220c      	movs	r2, #12
 800324a:	4619      	mov	r1, r3
 800324c:	6d38      	ldr	r0, [r7, #80]	@ 0x50
 800324e:	f7fe fe99 	bl	8001f84 <cli_tokenize>
 8003252:	6478      	str	r0, [r7, #68]	@ 0x44

    if (argc > 0) {
 8003254:	6c7b      	ldr	r3, [r7, #68]	@ 0x44
 8003256:	2b00      	cmp	r3, #0
 8003258:	dd38      	ble.n	80032cc <cli_execute+0x108>
      cli_cmd_handle_t start_parent = CLI_CMD_INVALID;
 800325a:	f04f 33ff 	mov.w	r3, #4294967295
 800325e:	64bb      	str	r3, [r7, #72]	@ 0x48
      cli_cmd_handle_t menu_parent = cli_menu_context_parent(cli);
 8003260:	6878      	ldr	r0, [r7, #4]
 8003262:	f7ff f8f8 	bl	8002456 <cli_menu_context_parent>
 8003266:	6438      	str	r0, [r7, #64]	@ 0x40

      bool has_match = cli_has_any_match(cli, argv[0], menu_parent);
 8003268:	68fb      	ldr	r3, [r7, #12]
 800326a:	6c3a      	ldr	r2, [r7, #64]	@ 0x40
 800326c:	4619      	mov	r1, r3
 800326e:	6878      	ldr	r0, [r7, #4]
 8003270:	f7ff f840 	bl	80022f4 <cli_has_any_match>
 8003274:	4603      	mov	r3, r0
 8003276:	f887 303f 	strb.w	r3, [r7, #63]	@ 0x3f
      if (menu_parent != CLI_CMD_ROOT && has_match) {
 800327a:	6c3b      	ldr	r3, [r7, #64]	@ 0x40
 800327c:	f113 0f02 	cmn.w	r3, #2
 8003280:	d005      	beq.n	800328e <cli_execute+0xca>
 8003282:	f897 303f 	ldrb.w	r3, [r7, #63]	@ 0x3f
 8003286:	2b00      	cmp	r3, #0
 8003288:	d001      	beq.n	800328e <cli_execute+0xca>
        start_parent = menu_parent;
 800328a:	6c3b      	ldr	r3, [r7, #64]	@ 0x40
 800328c:	64bb      	str	r3, [r7, #72]	@ 0x48
      }

      if (start_parent == CLI_CMD_INVALID) {
 800328e:	6cbb      	ldr	r3, [r7, #72]	@ 0x48
 8003290:	f1b3 3fff 	cmp.w	r3, #4294967295
 8003294:	d10e      	bne.n	80032b4 <cli_execute+0xf0>
        start_parent = cli_has_any_match(cli, argv[0], CLI_CMD_ROOT) ? CLI_CMD_ROOT : menu_parent;
 8003296:	68fb      	ldr	r3, [r7, #12]
 8003298:	f06f 0201 	mvn.w	r2, #1
 800329c:	4619      	mov	r1, r3
 800329e:	6878      	ldr	r0, [r7, #4]
 80032a0:	f7ff f828 	bl	80022f4 <cli_has_any_match>
 80032a4:	4603      	mov	r3, r0
 80032a6:	2b00      	cmp	r3, #0
 80032a8:	d101      	bne.n	80032ae <cli_execute+0xea>
 80032aa:	6c3b      	ldr	r3, [r7, #64]	@ 0x40
 80032ac:	e001      	b.n	80032b2 <cli_execute+0xee>
 80032ae:	f06f 0301 	mvn.w	r3, #1
 80032b2:	64bb      	str	r3, [r7, #72]	@ 0x48
      }

      rc = cli_execute_command(cli, argv, argc, 0, start_parent);
 80032b4:	f107 010c 	add.w	r1, r7, #12
 80032b8:	6cbb      	ldr	r3, [r7, #72]	@ 0x48
 80032ba:	9300      	str	r3, [sp, #0]
 80032bc:	2300      	movs	r3, #0
 80032be:	6c7a      	ldr	r2, [r7, #68]	@ 0x44
 80032c0:	6878      	ldr	r0, [r7, #4]
 80032c2:	f7ff fe97 	bl	8002ff4 <cli_execute_command>
 80032c6:	4603      	mov	r3, r0
 80032c8:	f887 3057 	strb.w	r3, [r7, #87]	@ 0x57
#if CLI_ENABLE_PIPE_FILTER
  cli_filter_flush(cli);
  cli_filter_reset(cli);
#endif

  return rc;
 80032cc:	f997 3057 	ldrsb.w	r3, [r7, #87]	@ 0x57
}
 80032d0:	4618      	mov	r0, r3
 80032d2:	3758      	adds	r7, #88	@ 0x58
 80032d4:	46bd      	mov	sp, r7
 80032d6:	bd80      	pop	{r7, pc}

080032d8 <cli_auth_reset_work>:
#if CLI_ENABLE_AUTH
/**
 * @brief Clear the in-progress username and password collection buffers.
 * @param[in] cli  Active CLI session.
 */
static void cli_auth_reset_work(cli_struct_t *cli) {
 80032d8:	b580      	push	{r7, lr}
 80032da:	b082      	sub	sp, #8
 80032dc:	af00      	add	r7, sp, #0
 80032de:	6078      	str	r0, [r7, #4]
  cli->auth_username[0] = '\0';
 80032e0:	687b      	ldr	r3, [r7, #4]
 80032e2:	2200      	movs	r2, #0
 80032e4:	f883 22c5 	strb.w	r2, [r3, #709]	@ 0x2c5
  cli_reset_input(cli);
 80032e8:	6878      	ldr	r0, [r7, #4]
 80032ea:	f000 faad 	bl	8003848 <cli_reset_input>
}
 80032ee:	bf00      	nop
 80032f0:	3708      	adds	r7, #8
 80032f2:	46bd      	mov	sp, r7
 80032f4:	bd80      	pop	{r7, pc}
	...

080032f8 <cli_auth_prompt_username>:

/**
 * @brief Reset auth work buffers and print the @c "Username: " prompt.
 * @param[in] cli  Active CLI session.
 */
static void cli_auth_prompt_username(cli_struct_t *cli) {
 80032f8:	b580      	push	{r7, lr}
 80032fa:	b082      	sub	sp, #8
 80032fc:	af00      	add	r7, sp, #0
 80032fe:	6078      	str	r0, [r7, #4]
  cli_auth_reset_work(cli);
 8003300:	6878      	ldr	r0, [r7, #4]
 8003302:	f7ff ffe9 	bl	80032d8 <cli_auth_reset_work>
  cli->auth_state = CLI_AUTH_USERNAME;
 8003306:	687b      	ldr	r3, [r7, #4]
 8003308:	2201      	movs	r2, #1
 800330a:	f883 2284 	strb.w	r2, [r3, #644]	@ 0x284
  CLI_WSTR(cli, "Username: ");
 800330e:	4905      	ldr	r1, [pc, #20]	@ (8003324 <cli_auth_prompt_username+0x2c>)
 8003310:	6878      	ldr	r0, [r7, #4]
 8003312:	f7fe f84a 	bl	80013aa <cli_write_str>
  cli_flush(cli);
 8003316:	6878      	ldr	r0, [r7, #4]
 8003318:	f7fe f86c 	bl	80013f4 <cli_flush>
}
 800331c:	bf00      	nop
 800331e:	3708      	adds	r7, #8
 8003320:	46bd      	mov	sp, r7
 8003322:	bd80      	pop	{r7, pc}
 8003324:	08006c2c 	.word	0x08006c2c

08003328 <cli_auth_lockout_expired>:
/**
 * @brief Test whether the current auth lockout period has expired.
 * @param[in] cli  Active CLI session.
 * @return @c true if the lockout has expired or is not active.
 */
static bool cli_auth_lockout_expired(const cli_struct_t *cli) {
 8003328:	b580      	push	{r7, lr}
 800332a:	b086      	sub	sp, #24
 800332c:	af00      	add	r7, sp, #0
 800332e:	6078      	str	r0, [r7, #4]
  bool expired = (bool)true;
 8003330:	2301      	movs	r3, #1
 8003332:	75fb      	strb	r3, [r7, #23]

  if (cli != NULL) {
 8003334:	687b      	ldr	r3, [r7, #4]
 8003336:	2b00      	cmp	r3, #0
 8003338:	d026      	beq.n	8003388 <cli_auth_lockout_expired+0x60>
#if CLI_ENABLE_TIME_SOURCE
    if (cli->auth_failure_mode == CLI_AUTH_FAILURE_MODE_LOCKOUT &&
 800333a:	687b      	ldr	r3, [r7, #4]
 800333c:	f893 32e0 	ldrb.w	r3, [r3, #736]	@ 0x2e0
 8003340:	2b01      	cmp	r3, #1
 8003342:	d121      	bne.n	8003388 <cli_auth_lockout_expired+0x60>
        cli->auth_lockout_seconds != 0UL && cli->time_source) {
 8003344:	687b      	ldr	r3, [r7, #4]
 8003346:	f8d3 32e4 	ldr.w	r3, [r3, #740]	@ 0x2e4
    if (cli->auth_failure_mode == CLI_AUTH_FAILURE_MODE_LOCKOUT &&
 800334a:	2b00      	cmp	r3, #0
 800334c:	d01c      	beq.n	8003388 <cli_auth_lockout_expired+0x60>
        cli->auth_lockout_seconds != 0UL && cli->time_source) {
 800334e:	687b      	ldr	r3, [r7, #4]
 8003350:	f8d3 3418 	ldr.w	r3, [r3, #1048]	@ 0x418
 8003354:	2b00      	cmp	r3, #0
 8003356:	d017      	beq.n	8003388 <cli_auth_lockout_expired+0x60>

      uint32_t now = cli->time_source(cli->time_source_ctx);
 8003358:	687b      	ldr	r3, [r7, #4]
 800335a:	f8d3 3418 	ldr.w	r3, [r3, #1048]	@ 0x418
 800335e:	687a      	ldr	r2, [r7, #4]
 8003360:	f8d2 241c 	ldr.w	r2, [r2, #1052]	@ 0x41c
 8003364:	4610      	mov	r0, r2
 8003366:	4798      	blx	r3
 8003368:	6138      	str	r0, [r7, #16]
      uint32_t elapsed = now - cli->auth_lockout_started_ts;
 800336a:	687b      	ldr	r3, [r7, #4]
 800336c:	f8d3 32e8 	ldr.w	r3, [r3, #744]	@ 0x2e8
 8003370:	693a      	ldr	r2, [r7, #16]
 8003372:	1ad3      	subs	r3, r2, r3
 8003374:	60fb      	str	r3, [r7, #12]

      expired = (elapsed >= cli->auth_lockout_seconds);
 8003376:	687b      	ldr	r3, [r7, #4]
 8003378:	f8d3 32e4 	ldr.w	r3, [r3, #740]	@ 0x2e4
 800337c:	68fa      	ldr	r2, [r7, #12]
 800337e:	429a      	cmp	r2, r3
 8003380:	bf2c      	ite	cs
 8003382:	2301      	movcs	r3, #1
 8003384:	2300      	movcc	r3, #0
 8003386:	75fb      	strb	r3, [r7, #23]
    }
#endif
  }

  return expired;
 8003388:	7dfb      	ldrb	r3, [r7, #23]
}
 800338a:	4618      	mov	r0, r3
 800338c:	3718      	adds	r7, #24
 800338e:	46bd      	mov	sp, r7
 8003390:	bd80      	pop	{r7, pc}

08003392 <cli_state_is_auth_input>:

static bool cli_state_is_auth_input(const cli_struct_t *cli) {
 8003392:	b480      	push	{r7}
 8003394:	b083      	sub	sp, #12
 8003396:	af00      	add	r7, sp, #0
 8003398:	6078      	str	r0, [r7, #4]
  return cli &&
 800339a:	687b      	ldr	r3, [r7, #4]
 800339c:	2b00      	cmp	r3, #0
 800339e:	d015      	beq.n	80033cc <cli_state_is_auth_input+0x3a>
         (cli->auth_state == CLI_AUTH_USERNAME || cli->auth_state == CLI_AUTH_PASSWORD ||
 80033a0:	687b      	ldr	r3, [r7, #4]
 80033a2:	f893 3284 	ldrb.w	r3, [r3, #644]	@ 0x284
  return cli &&
 80033a6:	2b01      	cmp	r3, #1
 80033a8:	d00e      	beq.n	80033c8 <cli_state_is_auth_input+0x36>
         (cli->auth_state == CLI_AUTH_USERNAME || cli->auth_state == CLI_AUTH_PASSWORD ||
 80033aa:	687b      	ldr	r3, [r7, #4]
 80033ac:	f893 3284 	ldrb.w	r3, [r3, #644]	@ 0x284
 80033b0:	2b02      	cmp	r3, #2
 80033b2:	d009      	beq.n	80033c8 <cli_state_is_auth_input+0x36>
          cli->auth_state == CLI_AUTH_ENABLE_MODE_PASSWORD || cli->auth_state == CLI_AUTH_LOCKOUT);
 80033b4:	687b      	ldr	r3, [r7, #4]
 80033b6:	f893 3284 	ldrb.w	r3, [r3, #644]	@ 0x284
         (cli->auth_state == CLI_AUTH_USERNAME || cli->auth_state == CLI_AUTH_PASSWORD ||
 80033ba:	2b03      	cmp	r3, #3
 80033bc:	d004      	beq.n	80033c8 <cli_state_is_auth_input+0x36>
          cli->auth_state == CLI_AUTH_ENABLE_MODE_PASSWORD || cli->auth_state == CLI_AUTH_LOCKOUT);
 80033be:	687b      	ldr	r3, [r7, #4]
 80033c0:	f893 3284 	ldrb.w	r3, [r3, #644]	@ 0x284
 80033c4:	2b04      	cmp	r3, #4
 80033c6:	d101      	bne.n	80033cc <cli_state_is_auth_input+0x3a>
  return cli &&
 80033c8:	2301      	movs	r3, #1
 80033ca:	e000      	b.n	80033ce <cli_state_is_auth_input+0x3c>
 80033cc:	2300      	movs	r3, #0
 80033ce:	f003 0301 	and.w	r3, r3, #1
 80033d2:	b2db      	uxtb	r3, r3
}
 80033d4:	4618      	mov	r0, r3
 80033d6:	370c      	adds	r7, #12
 80033d8:	46bd      	mov	sp, r7
 80033da:	bc80      	pop	{r7}
 80033dc:	4770      	bx	lr
	...

080033e0 <cli_auth_verify>:
 *
 * @param[in] cli  Active CLI session.
 *
 * @return @c CLI_OK to continue, @c CLI_ERR_AUTH on permanent failure.
 */
static int8_t cli_auth_verify(cli_struct_t *cli) {
 80033e0:	b580      	push	{r7, lr}
 80033e2:	b084      	sub	sp, #16
 80033e4:	af00      	add	r7, sp, #0
 80033e6:	6078      	str	r0, [r7, #4]
  int8_t ok = CLI_ERR_AUTH;
 80033e8:	23fc      	movs	r3, #252	@ 0xfc
 80033ea:	73fb      	strb	r3, [r7, #15]
  int8_t rc = CLI_OK;
 80033ec:	2300      	movs	r3, #0
 80033ee:	73bb      	strb	r3, [r7, #14]

  cli->mode_login = CLI_MODE_EXEC;
 80033f0:	687b      	ldr	r3, [r7, #4]
 80033f2:	2201      	movs	r2, #1
 80033f4:	f8c3 21b0 	str.w	r2, [r3, #432]	@ 0x1b0

  if (cli->authorization_cb != NULL) {
 80033f8:	687b      	ldr	r3, [r7, #4]
 80033fa:	f8d3 32f0 	ldr.w	r3, [r3, #752]	@ 0x2f0
 80033fe:	2b00      	cmp	r3, #0
 8003400:	d00d      	beq.n	800341e <cli_auth_verify+0x3e>
    ok = cli->authorization_cb(cli->auth_username, cli->input);
 8003402:	687b      	ldr	r3, [r7, #4]
 8003404:	f8d3 32f0 	ldr.w	r3, [r3, #752]	@ 0x2f0
 8003408:	687a      	ldr	r2, [r7, #4]
 800340a:	f202 20c5 	addw	r0, r2, #709	@ 0x2c5
 800340e:	687a      	ldr	r2, [r7, #4]
 8003410:	f502 72a0 	add.w	r2, r2, #320	@ 0x140
 8003414:	4611      	mov	r1, r2
 8003416:	4798      	blx	r3
 8003418:	4603      	mov	r3, r0
 800341a:	73fb      	strb	r3, [r7, #15]
 800341c:	e050      	b.n	80034c0 <cli_auth_verify+0xe0>
  } else {
    for (cli_len_t i = 0; i < cli->num_users; i++) {
 800341e:	2300      	movs	r3, #0
 8003420:	60bb      	str	r3, [r7, #8]
 8003422:	e045      	b.n	80034b0 <cli_auth_verify+0xd0>
      if (strcmp(cli->users[i], cli->auth_username) == 0 &&
 8003424:	68bb      	ldr	r3, [r7, #8]
 8003426:	3328      	adds	r3, #40	@ 0x28
 8003428:	011b      	lsls	r3, r3, #4
 800342a:	687a      	ldr	r2, [r7, #4]
 800342c:	4413      	add	r3, r2
 800342e:	1d5a      	adds	r2, r3, #5
 8003430:	687b      	ldr	r3, [r7, #4]
 8003432:	f203 23c5 	addw	r3, r3, #709	@ 0x2c5
 8003436:	4619      	mov	r1, r3
 8003438:	4610      	mov	r0, r2
 800343a:	f7fc fe87 	bl	800014c <strcmp>
 800343e:	4603      	mov	r3, r0
 8003440:	2b00      	cmp	r3, #0
 8003442:	d132      	bne.n	80034aa <cli_auth_verify+0xca>
          strcmp(cli->passwords[i], cli->input) == 0) {
 8003444:	68bb      	ldr	r3, [r7, #8]
 8003446:	332a      	adds	r3, #42	@ 0x2a
 8003448:	011b      	lsls	r3, r3, #4
 800344a:	687a      	ldr	r2, [r7, #4]
 800344c:	4413      	add	r3, r2
 800344e:	1d5a      	adds	r2, r3, #5
 8003450:	687b      	ldr	r3, [r7, #4]
 8003452:	f503 73a0 	add.w	r3, r3, #320	@ 0x140
 8003456:	4619      	mov	r1, r3
 8003458:	4610      	mov	r0, r2
 800345a:	f7fc fe77 	bl	800014c <strcmp>
 800345e:	4603      	mov	r3, r0
      if (strcmp(cli->users[i], cli->auth_username) == 0 &&
 8003460:	2b00      	cmp	r3, #0
 8003462:	d122      	bne.n	80034aa <cli_auth_verify+0xca>
        ok = CLI_OK;
 8003464:	2300      	movs	r3, #0
 8003466:	73fb      	strb	r3, [r7, #15]
        cli_set_privilege(cli, cli->user_privileges[i]);
 8003468:	687a      	ldr	r2, [r7, #4]
 800346a:	68bb      	ldr	r3, [r7, #8]
 800346c:	4413      	add	r3, r2
 800346e:	f203 23d5 	addw	r3, r3, #725	@ 0x2d5
 8003472:	781b      	ldrb	r3, [r3, #0]
 8003474:	4619      	mov	r1, r3
 8003476:	6878      	ldr	r0, [r7, #4]
 8003478:	f7fd fdaa 	bl	8000fd0 <cli_set_privilege>
        if (cli->user_privileges[i] >= CLI_PRIV_PRIVILEGED) {
 800347c:	687a      	ldr	r2, [r7, #4]
 800347e:	68bb      	ldr	r3, [r7, #8]
 8003480:	4413      	add	r3, r2
 8003482:	f203 23d5 	addw	r3, r3, #725	@ 0x2d5
 8003486:	781b      	ldrb	r3, [r3, #0]
 8003488:	2b09      	cmp	r3, #9
 800348a:	d918      	bls.n	80034be <cli_auth_verify+0xde>
          cli->mode_login = CLI_MODE_ENABLE;
 800348c:	687b      	ldr	r3, [r7, #4]
 800348e:	2202      	movs	r2, #2
 8003490:	f8c3 21b0 	str.w	r2, [r3, #432]	@ 0x1b0
          cli->mode_prev = cli->mode;
 8003494:	687b      	ldr	r3, [r7, #4]
 8003496:	f8d3 21a8 	ldr.w	r2, [r3, #424]	@ 0x1a8
 800349a:	687b      	ldr	r3, [r7, #4]
 800349c:	f8c3 21ac 	str.w	r2, [r3, #428]	@ 0x1ac
          cli_set_mode(cli, CLI_MODE_ENABLE);
 80034a0:	2102      	movs	r1, #2
 80034a2:	6878      	ldr	r0, [r7, #4]
 80034a4:	f7fd fd6e 	bl	8000f84 <cli_set_mode>
        }
        break;
 80034a8:	e009      	b.n	80034be <cli_auth_verify+0xde>
    for (cli_len_t i = 0; i < cli->num_users; i++) {
 80034aa:	68bb      	ldr	r3, [r7, #8]
 80034ac:	3301      	adds	r3, #1
 80034ae:	60bb      	str	r3, [r7, #8]
 80034b0:	687b      	ldr	r3, [r7, #4]
 80034b2:	f8d3 32d8 	ldr.w	r3, [r3, #728]	@ 0x2d8
 80034b6:	68ba      	ldr	r2, [r7, #8]
 80034b8:	429a      	cmp	r2, r3
 80034ba:	dbb3      	blt.n	8003424 <cli_auth_verify+0x44>
 80034bc:	e000      	b.n	80034c0 <cli_auth_verify+0xe0>
        break;
 80034be:	bf00      	nop
      }
    }
  }

  if (ok == CLI_OK) {
 80034c0:	f997 300f 	ldrsb.w	r3, [r7, #15]
 80034c4:	2b00      	cmp	r3, #0
 80034c6:	d106      	bne.n	80034d6 <cli_auth_verify+0xf6>
    cli->auth_state = CLI_AUTH_AUTHENTICATED;
 80034c8:	687b      	ldr	r3, [r7, #4]
 80034ca:	2205      	movs	r2, #5
 80034cc:	f883 2284 	strb.w	r2, [r3, #644]	@ 0x284
    rc = CLI_OK;
 80034d0:	2300      	movs	r3, #0
 80034d2:	73bb      	strb	r3, [r7, #14]
 80034d4:	e03c      	b.n	8003550 <cli_auth_verify+0x170>
  } else {
    cli->auth_attempts++;
 80034d6:	687b      	ldr	r3, [r7, #4]
 80034d8:	f8d3 32dc 	ldr.w	r3, [r3, #732]	@ 0x2dc
 80034dc:	1c5a      	adds	r2, r3, #1
 80034de:	687b      	ldr	r3, [r7, #4]
 80034e0:	f8c3 22dc 	str.w	r2, [r3, #732]	@ 0x2dc
    CLI_WSTR(cli, "% Authentication failed.\r\n");
 80034e4:	491d      	ldr	r1, [pc, #116]	@ (800355c <cli_auth_verify+0x17c>)
 80034e6:	6878      	ldr	r0, [r7, #4]
 80034e8:	f7fd ff5f 	bl	80013aa <cli_write_str>

    if (cli->auth_attempts >= 3) {
 80034ec:	687b      	ldr	r3, [r7, #4]
 80034ee:	f8d3 32dc 	ldr.w	r3, [r3, #732]	@ 0x2dc
 80034f2:	2b02      	cmp	r3, #2
 80034f4:	dd27      	ble.n	8003546 <cli_auth_verify+0x166>
      CLI_WSTR(cli, "% Too many failed attempts.\r\n");
 80034f6:	491a      	ldr	r1, [pc, #104]	@ (8003560 <cli_auth_verify+0x180>)
 80034f8:	6878      	ldr	r0, [r7, #4]
 80034fa:	f7fd ff56 	bl	80013aa <cli_write_str>
      if (cli->auth_failure_mode == CLI_AUTH_FAILURE_MODE_LOCKOUT) {
 80034fe:	687b      	ldr	r3, [r7, #4]
 8003500:	f893 32e0 	ldrb.w	r3, [r3, #736]	@ 0x2e0
 8003504:	2b01      	cmp	r3, #1
 8003506:	d117      	bne.n	8003538 <cli_auth_verify+0x158>
        cli->auth_state = CLI_AUTH_LOCKOUT;
 8003508:	687b      	ldr	r3, [r7, #4]
 800350a:	2204      	movs	r2, #4
 800350c:	f883 2284 	strb.w	r2, [r3, #644]	@ 0x284
#if CLI_ENABLE_TIME_SOURCE
        if (cli->time_source != NULL) {
 8003510:	687b      	ldr	r3, [r7, #4]
 8003512:	f8d3 3418 	ldr.w	r3, [r3, #1048]	@ 0x418
 8003516:	2b00      	cmp	r3, #0
 8003518:	d00b      	beq.n	8003532 <cli_auth_verify+0x152>
          cli->auth_lockout_started_ts = cli->time_source(cli->time_source_ctx);
 800351a:	687b      	ldr	r3, [r7, #4]
 800351c:	f8d3 3418 	ldr.w	r3, [r3, #1048]	@ 0x418
 8003520:	687a      	ldr	r2, [r7, #4]
 8003522:	f8d2 241c 	ldr.w	r2, [r2, #1052]	@ 0x41c
 8003526:	4610      	mov	r0, r2
 8003528:	4798      	blx	r3
 800352a:	4602      	mov	r2, r0
 800352c:	687b      	ldr	r3, [r7, #4]
 800352e:	f8c3 22e8 	str.w	r2, [r3, #744]	@ 0x2e8
        }
#endif
        rc = CLI_OK;
 8003532:	2300      	movs	r3, #0
 8003534:	73bb      	strb	r3, [r7, #14]
 8003536:	e00b      	b.n	8003550 <cli_auth_verify+0x170>
      } else {
        cli->session_state = CLI_SESSION_STOP;
 8003538:	687b      	ldr	r3, [r7, #4]
 800353a:	2203      	movs	r2, #3
 800353c:	f883 2275 	strb.w	r2, [r3, #629]	@ 0x275
        rc = CLI_ERR_AUTH;
 8003540:	23fc      	movs	r3, #252	@ 0xfc
 8003542:	73bb      	strb	r3, [r7, #14]
 8003544:	e004      	b.n	8003550 <cli_auth_verify+0x170>
      }
    } else {
      cli_auth_prompt_username(cli);
 8003546:	6878      	ldr	r0, [r7, #4]
 8003548:	f7ff fed6 	bl	80032f8 <cli_auth_prompt_username>
      rc = CLI_OK;
 800354c:	2300      	movs	r3, #0
 800354e:	73bb      	strb	r3, [r7, #14]
    }
  }

  return rc;
 8003550:	f997 300e 	ldrsb.w	r3, [r7, #14]
}
 8003554:	4618      	mov	r0, r3
 8003556:	3710      	adds	r7, #16
 8003558:	46bd      	mov	sp, r7
 800355a:	bd80      	pop	{r7, pc}
 800355c:	08006c38 	.word	0x08006c38
 8003560:	08006c54 	.word	0x08006c54

08003564 <cli_auth_secret_input>:

static bool cli_auth_secret_input(const cli_struct_t *cli) {
 8003564:	b480      	push	{r7}
 8003566:	b083      	sub	sp, #12
 8003568:	af00      	add	r7, sp, #0
 800356a:	6078      	str	r0, [r7, #4]
  return cli &&
 800356c:	687b      	ldr	r3, [r7, #4]
 800356e:	2b00      	cmp	r3, #0
 8003570:	d00b      	beq.n	800358a <cli_auth_secret_input+0x26>
         (cli->auth_state == CLI_AUTH_PASSWORD || cli->auth_state == CLI_AUTH_ENABLE_MODE_PASSWORD);
 8003572:	687b      	ldr	r3, [r7, #4]
 8003574:	f893 3284 	ldrb.w	r3, [r3, #644]	@ 0x284
  return cli &&
 8003578:	2b02      	cmp	r3, #2
 800357a:	d004      	beq.n	8003586 <cli_auth_secret_input+0x22>
         (cli->auth_state == CLI_AUTH_PASSWORD || cli->auth_state == CLI_AUTH_ENABLE_MODE_PASSWORD);
 800357c:	687b      	ldr	r3, [r7, #4]
 800357e:	f893 3284 	ldrb.w	r3, [r3, #644]	@ 0x284
 8003582:	2b03      	cmp	r3, #3
 8003584:	d101      	bne.n	800358a <cli_auth_secret_input+0x26>
  return cli &&
 8003586:	2301      	movs	r3, #1
 8003588:	e000      	b.n	800358c <cli_auth_secret_input+0x28>
 800358a:	2300      	movs	r3, #0
 800358c:	f003 0301 	and.w	r3, r3, #1
 8003590:	b2db      	uxtb	r3, r3
}
 8003592:	4618      	mov	r0, r3
 8003594:	370c      	adds	r7, #12
 8003596:	46bd      	mov	sp, r7
 8003598:	bc80      	pop	{r7}
 800359a:	4770      	bx	lr

0800359c <cli_auth_input_limit>:

static cli_len_t cli_auth_input_limit(const cli_struct_t *cli) {
 800359c:	b480      	push	{r7}
 800359e:	b085      	sub	sp, #20
 80035a0:	af00      	add	r7, sp, #0
 80035a2:	6078      	str	r0, [r7, #4]
  cli_len_t limit = CLI_MAX_INPUT_LEN;
 80035a4:	2360      	movs	r3, #96	@ 0x60
 80035a6:	60fb      	str	r3, [r7, #12]

  if (cli != NULL) {
 80035a8:	687b      	ldr	r3, [r7, #4]
 80035aa:	2b00      	cmp	r3, #0
 80035ac:	d016      	beq.n	80035dc <cli_auth_input_limit+0x40>
    if (cli->auth_state == CLI_AUTH_USERNAME) {
 80035ae:	687b      	ldr	r3, [r7, #4]
 80035b0:	f893 3284 	ldrb.w	r3, [r3, #644]	@ 0x284
 80035b4:	2b01      	cmp	r3, #1
 80035b6:	d102      	bne.n	80035be <cli_auth_input_limit+0x22>
      limit = CLI_MAX_USERNAME_LEN;
 80035b8:	2310      	movs	r3, #16
 80035ba:	60fb      	str	r3, [r7, #12]
 80035bc:	e00e      	b.n	80035dc <cli_auth_input_limit+0x40>
    } else if (cli->auth_state == CLI_AUTH_PASSWORD) {
 80035be:	687b      	ldr	r3, [r7, #4]
 80035c0:	f893 3284 	ldrb.w	r3, [r3, #644]	@ 0x284
 80035c4:	2b02      	cmp	r3, #2
 80035c6:	d102      	bne.n	80035ce <cli_auth_input_limit+0x32>
      limit = CLI_MAX_PASSWORD_LEN;
 80035c8:	2310      	movs	r3, #16
 80035ca:	60fb      	str	r3, [r7, #12]
 80035cc:	e006      	b.n	80035dc <cli_auth_input_limit+0x40>
    } else if (cli->auth_state == CLI_AUTH_ENABLE_MODE_PASSWORD) {
 80035ce:	687b      	ldr	r3, [r7, #4]
 80035d0:	f893 3284 	ldrb.w	r3, [r3, #644]	@ 0x284
 80035d4:	2b03      	cmp	r3, #3
 80035d6:	d101      	bne.n	80035dc <cli_auth_input_limit+0x40>
      limit = CLI_MAX_ENABLE_SECRET_LEN;
 80035d8:	2310      	movs	r3, #16
 80035da:	60fb      	str	r3, [r7, #12]
    } else {
      /* To silence MISRA */
    }
  }

  return limit;
 80035dc:	68fb      	ldr	r3, [r7, #12]
}
 80035de:	4618      	mov	r0, r3
 80035e0:	3714      	adds	r7, #20
 80035e2:	46bd      	mov	sp, r7
 80035e4:	bc80      	pop	{r7}
 80035e6:	4770      	bx	lr

080035e8 <cli_auth_submit_line>:

static int8_t cli_auth_submit_line(cli_struct_t *cli) {
 80035e8:	b580      	push	{r7, lr}
 80035ea:	b084      	sub	sp, #16
 80035ec:	af00      	add	r7, sp, #0
 80035ee:	6078      	str	r0, [r7, #4]
  int8_t rc = CLI_OK;
 80035f0:	2300      	movs	r3, #0
 80035f2:	73fb      	strb	r3, [r7, #15]

  if (cli->auth_state == CLI_AUTH_USERNAME) {
 80035f4:	687b      	ldr	r3, [r7, #4]
 80035f6:	f893 3284 	ldrb.w	r3, [r3, #644]	@ 0x284
 80035fa:	2b01      	cmp	r3, #1
 80035fc:	d118      	bne.n	8003630 <cli_auth_submit_line+0x48>
    (void)cli_strlcpy(cli->auth_username, cli->input, CLI_MAX_USERNAME_LEN);
 80035fe:	687b      	ldr	r3, [r7, #4]
 8003600:	f203 20c5 	addw	r0, r3, #709	@ 0x2c5
 8003604:	687b      	ldr	r3, [r7, #4]
 8003606:	f503 73a0 	add.w	r3, r3, #320	@ 0x140
 800360a:	2210      	movs	r2, #16
 800360c:	4619      	mov	r1, r3
 800360e:	f7fd fe41 	bl	8001294 <cli_strlcpy>
    cli_reset_input(cli);
 8003612:	6878      	ldr	r0, [r7, #4]
 8003614:	f000 f918 	bl	8003848 <cli_reset_input>
    cli->auth_state = CLI_AUTH_PASSWORD;
 8003618:	687b      	ldr	r3, [r7, #4]
 800361a:	2202      	movs	r2, #2
 800361c:	f883 2284 	strb.w	r2, [r3, #644]	@ 0x284
    CLI_WSTR(cli, "Password: ");
 8003620:	4934      	ldr	r1, [pc, #208]	@ (80036f4 <cli_auth_submit_line+0x10c>)
 8003622:	6878      	ldr	r0, [r7, #4]
 8003624:	f7fd fec1 	bl	80013aa <cli_write_str>
    cli_flush(cli);
 8003628:	6878      	ldr	r0, [r7, #4]
 800362a:	f7fd fee3 	bl	80013f4 <cli_flush>
 800362e:	e05a      	b.n	80036e6 <cli_auth_submit_line+0xfe>

  } else if (cli->auth_state == CLI_AUTH_PASSWORD) {
 8003630:	687b      	ldr	r3, [r7, #4]
 8003632:	f893 3284 	ldrb.w	r3, [r3, #644]	@ 0x284
 8003636:	2b02      	cmp	r3, #2
 8003638:	d108      	bne.n	800364c <cli_auth_submit_line+0x64>
    rc = cli_auth_verify(cli);
 800363a:	6878      	ldr	r0, [r7, #4]
 800363c:	f7ff fed0 	bl	80033e0 <cli_auth_verify>
 8003640:	4603      	mov	r3, r0
 8003642:	73fb      	strb	r3, [r7, #15]
    cli_reset_input(cli);
 8003644:	6878      	ldr	r0, [r7, #4]
 8003646:	f000 f8ff 	bl	8003848 <cli_reset_input>
 800364a:	e04c      	b.n	80036e6 <cli_auth_submit_line+0xfe>

  } else if (cli->auth_state == CLI_AUTH_ENABLE_MODE_PASSWORD) {
 800364c:	687b      	ldr	r3, [r7, #4]
 800364e:	f893 3284 	ldrb.w	r3, [r3, #644]	@ 0x284
 8003652:	2b03      	cmp	r3, #3
 8003654:	d147      	bne.n	80036e6 <cli_auth_submit_line+0xfe>
    int ok;

    if (cli->enable_privilege_cb != NULL) {
 8003656:	687b      	ldr	r3, [r7, #4]
 8003658:	f8d3 3308 	ldr.w	r3, [r3, #776]	@ 0x308
 800365c:	2b00      	cmp	r3, #0
 800365e:	d00d      	beq.n	800367c <cli_auth_submit_line+0x94>
      ok = cli->enable_privilege_cb(cli->auth_username, cli->input);
 8003660:	687b      	ldr	r3, [r7, #4]
 8003662:	f8d3 3308 	ldr.w	r3, [r3, #776]	@ 0x308
 8003666:	687a      	ldr	r2, [r7, #4]
 8003668:	f202 20c5 	addw	r0, r2, #709	@ 0x2c5
 800366c:	687a      	ldr	r2, [r7, #4]
 800366e:	f502 72a0 	add.w	r2, r2, #320	@ 0x140
 8003672:	4611      	mov	r1, r2
 8003674:	4798      	blx	r3
 8003676:	4603      	mov	r3, r0
 8003678:	60bb      	str	r3, [r7, #8]
 800367a:	e011      	b.n	80036a0 <cli_auth_submit_line+0xb8>
    } else {
      ok = (strcmp(cli->input, cli->enable_privilege_secret) == 0) ? CLI_OK : CLI_ERR_AUTH;
 800367c:	687b      	ldr	r3, [r7, #4]
 800367e:	f503 72a0 	add.w	r2, r3, #320	@ 0x140
 8003682:	687b      	ldr	r3, [r7, #4]
 8003684:	f503 733d 	add.w	r3, r3, #756	@ 0x2f4
 8003688:	4619      	mov	r1, r3
 800368a:	4610      	mov	r0, r2
 800368c:	f7fc fd5e 	bl	800014c <strcmp>
 8003690:	4603      	mov	r3, r0
 8003692:	2b00      	cmp	r3, #0
 8003694:	d101      	bne.n	800369a <cli_auth_submit_line+0xb2>
 8003696:	2300      	movs	r3, #0
 8003698:	e001      	b.n	800369e <cli_auth_submit_line+0xb6>
 800369a:	f06f 0303 	mvn.w	r3, #3
 800369e:	60bb      	str	r3, [r7, #8]
    }

    if (ok == CLI_OK) {
 80036a0:	68bb      	ldr	r3, [r7, #8]
 80036a2:	2b00      	cmp	r3, #0
 80036a4:	d108      	bne.n	80036b8 <cli_auth_submit_line+0xd0>
      cli_set_privilege(cli, CLI_PRIV_PRIVILEGED);
 80036a6:	210a      	movs	r1, #10
 80036a8:	6878      	ldr	r0, [r7, #4]
 80036aa:	f7fd fc91 	bl	8000fd0 <cli_set_privilege>
      cli_set_mode(cli, CLI_MODE_ENABLE);
 80036ae:	2102      	movs	r1, #2
 80036b0:	6878      	ldr	r0, [r7, #4]
 80036b2:	f7fd fc67 	bl	8000f84 <cli_set_mode>
 80036b6:	e00f      	b.n	80036d8 <cli_auth_submit_line+0xf0>
    } else {
      CLI_WSTR(cli, "% Access denied.\r\n");
 80036b8:	490f      	ldr	r1, [pc, #60]	@ (80036f8 <cli_auth_submit_line+0x110>)
 80036ba:	6878      	ldr	r0, [r7, #4]
 80036bc:	f7fd fe75 	bl	80013aa <cli_write_str>
      cli->mode = cli->mode_prev;
 80036c0:	687b      	ldr	r3, [r7, #4]
 80036c2:	f8d3 21ac 	ldr.w	r2, [r3, #428]	@ 0x1ac
 80036c6:	687b      	ldr	r3, [r7, #4]
 80036c8:	f8c3 21a8 	str.w	r2, [r3, #424]	@ 0x1a8
      cli->privilege = cli->enable_privilege_prev;
 80036cc:	687b      	ldr	r3, [r7, #4]
 80036ce:	f893 2304 	ldrb.w	r2, [r3, #772]	@ 0x304
 80036d2:	687b      	ldr	r3, [r7, #4]
 80036d4:	f883 2274 	strb.w	r2, [r3, #628]	@ 0x274
    }

    cli->auth_state = CLI_AUTH_AUTHENTICATED;
 80036d8:	687b      	ldr	r3, [r7, #4]
 80036da:	2205      	movs	r2, #5
 80036dc:	f883 2284 	strb.w	r2, [r3, #644]	@ 0x284
    cli_reset_input(cli);
 80036e0:	6878      	ldr	r0, [r7, #4]
 80036e2:	f000 f8b1 	bl	8003848 <cli_reset_input>
  } else {
    /* To silence MISRA */
  }

  return rc;
 80036e6:	f997 300f 	ldrsb.w	r3, [r7, #15]
}
 80036ea:	4618      	mov	r0, r3
 80036ec:	3710      	adds	r7, #16
 80036ee:	46bd      	mov	sp, r7
 80036f0:	bd80      	pop	{r7, pc}
 80036f2:	bf00      	nop
 80036f4:	0800685c 	.word	0x0800685c
 80036f8:	08006c74 	.word	0x08006c74

080036fc <cli_auth_handle>:

static int8_t cli_auth_handle(cli_struct_t *cli, int byte) {
 80036fc:	b580      	push	{r7, lr}
 80036fe:	b084      	sub	sp, #16
 8003700:	af00      	add	r7, sp, #0
 8003702:	6078      	str	r0, [r7, #4]
 8003704:	6039      	str	r1, [r7, #0]
  int8_t rc = CLI_OK;
 8003706:	2300      	movs	r3, #0
 8003708:	73fb      	strb	r3, [r7, #15]
  bool done = (bool)false;
 800370a:	2300      	movs	r3, #0
 800370c:	73bb      	strb	r3, [r7, #14]

  if (cli->saw_cr && byte == ASCII_LF) {
 800370e:	687b      	ldr	r3, [r7, #4]
 8003710:	f893 3428 	ldrb.w	r3, [r3, #1064]	@ 0x428
 8003714:	2b00      	cmp	r3, #0
 8003716:	d009      	beq.n	800372c <cli_auth_handle+0x30>
 8003718:	683b      	ldr	r3, [r7, #0]
 800371a:	2b0a      	cmp	r3, #10
 800371c:	d106      	bne.n	800372c <cli_auth_handle+0x30>
    cli->saw_cr = (bool)false;
 800371e:	687b      	ldr	r3, [r7, #4]
 8003720:	2200      	movs	r2, #0
 8003722:	f883 2428 	strb.w	r2, [r3, #1064]	@ 0x428
    done = (bool)true;
 8003726:	2301      	movs	r3, #1
 8003728:	73bb      	strb	r3, [r7, #14]
 800372a:	e016      	b.n	800375a <cli_auth_handle+0x5e>
  } else {
    cli->saw_cr = (bool)(byte == ASCII_CR);
 800372c:	683b      	ldr	r3, [r7, #0]
 800372e:	2b0d      	cmp	r3, #13
 8003730:	bf0c      	ite	eq
 8003732:	2301      	moveq	r3, #1
 8003734:	2300      	movne	r3, #0
 8003736:	b2da      	uxtb	r2, r3
 8003738:	687b      	ldr	r3, [r7, #4]
 800373a:	f883 2428 	strb.w	r2, [r3, #1064]	@ 0x428

    if (cli->esc_state != ESC_STATE_NORMAL || byte == 0x1B) {
 800373e:	687b      	ldr	r3, [r7, #4]
 8003740:	f893 3420 	ldrb.w	r3, [r3, #1056]	@ 0x420
 8003744:	2b00      	cmp	r3, #0
 8003746:	d102      	bne.n	800374e <cli_auth_handle+0x52>
 8003748:	683b      	ldr	r3, [r7, #0]
 800374a:	2b1b      	cmp	r3, #27
 800374c:	d105      	bne.n	800375a <cli_auth_handle+0x5e>
      (void)cli_process_escape(cli, byte);
 800374e:	6839      	ldr	r1, [r7, #0]
 8003750:	6878      	ldr	r0, [r7, #4]
 8003752:	f000 f94a 	bl	80039ea <cli_process_escape>
      done = (bool)true;
 8003756:	2301      	movs	r3, #1
 8003758:	73bb      	strb	r3, [r7, #14]
    }
  }

  if (!done) {
 800375a:	7bbb      	ldrb	r3, [r7, #14]
 800375c:	f083 0301 	eor.w	r3, r3, #1
 8003760:	b2db      	uxtb	r3, r3
 8003762:	2b00      	cmp	r3, #0
 8003764:	d067      	beq.n	8003836 <cli_auth_handle+0x13a>
    switch (byte) {
 8003766:	683b      	ldr	r3, [r7, #0]
 8003768:	2b15      	cmp	r3, #21
 800376a:	dc25      	bgt.n	80037b8 <cli_auth_handle+0xbc>
 800376c:	683b      	ldr	r3, [r7, #0]
 800376e:	2b08      	cmp	r3, #8
 8003770:	db51      	blt.n	8003816 <cli_auth_handle+0x11a>
 8003772:	683b      	ldr	r3, [r7, #0]
 8003774:	3b08      	subs	r3, #8
 8003776:	2b0d      	cmp	r3, #13
 8003778:	d84d      	bhi.n	8003816 <cli_auth_handle+0x11a>
 800377a:	a201      	add	r2, pc, #4	@ (adr r2, 8003780 <cli_auth_handle+0x84>)
 800377c:	f852 f023 	ldr.w	pc, [r2, r3, lsl #2]
 8003780:	08003807 	.word	0x08003807
 8003784:	08003817 	.word	0x08003817
 8003788:	080037c1 	.word	0x080037c1
 800378c:	0800380f 	.word	0x0800380f
 8003790:	08003817 	.word	0x08003817
 8003794:	080037c1 	.word	0x080037c1
 8003798:	08003817 	.word	0x08003817
 800379c:	08003817 	.word	0x08003817
 80037a0:	08003817 	.word	0x08003817
 80037a4:	08003817 	.word	0x08003817
 80037a8:	08003817 	.word	0x08003817
 80037ac:	08003817 	.word	0x08003817
 80037b0:	08003817 	.word	0x08003817
 80037b4:	0800380f 	.word	0x0800380f
 80037b8:	683b      	ldr	r3, [r7, #0]
 80037ba:	2b7f      	cmp	r3, #127	@ 0x7f
 80037bc:	d023      	beq.n	8003806 <cli_auth_handle+0x10a>
 80037be:	e02a      	b.n	8003816 <cli_auth_handle+0x11a>
    case ASCII_CR:
    case ASCII_LF: {
      int8_t exec_rc;

      CLI_WSTR(cli, "\n\r");
 80037c0:	4920      	ldr	r1, [pc, #128]	@ (8003844 <cli_auth_handle+0x148>)
 80037c2:	6878      	ldr	r0, [r7, #4]
 80037c4:	f7fd fdf1 	bl	80013aa <cli_write_str>
      exec_rc = cli_auth_submit_line(cli);
 80037c8:	6878      	ldr	r0, [r7, #4]
 80037ca:	f7ff ff0d 	bl	80035e8 <cli_auth_submit_line>
 80037ce:	4603      	mov	r3, r0
 80037d0:	737b      	strb	r3, [r7, #13]

      if (exec_rc == CLI_ERR_AUTH) {
 80037d2:	f997 300d 	ldrsb.w	r3, [r7, #13]
 80037d6:	f113 0f04 	cmn.w	r3, #4
 80037da:	d106      	bne.n	80037ea <cli_auth_handle+0xee>
        cli->session_state = CLI_SESSION_STOP;
 80037dc:	687b      	ldr	r3, [r7, #4]
 80037de:	2203      	movs	r2, #3
 80037e0:	f883 2275 	strb.w	r2, [r3, #629]	@ 0x275
        rc = CLI_ERR_AUTH;
 80037e4:	23fc      	movs	r3, #252	@ 0xfc
 80037e6:	73fb      	strb	r3, [r7, #15]
      } else if (cli->auth_state == CLI_AUTH_NONE || cli->auth_state == CLI_AUTH_AUTHENTICATED) {
        cli_show_prompt(cli);
      } else {
        /* To silence MISRA */
      }
    } break;
 80037e8:	e022      	b.n	8003830 <cli_auth_handle+0x134>
      } else if (cli->auth_state == CLI_AUTH_NONE || cli->auth_state == CLI_AUTH_AUTHENTICATED) {
 80037ea:	687b      	ldr	r3, [r7, #4]
 80037ec:	f893 3284 	ldrb.w	r3, [r3, #644]	@ 0x284
 80037f0:	2b00      	cmp	r3, #0
 80037f2:	d004      	beq.n	80037fe <cli_auth_handle+0x102>
 80037f4:	687b      	ldr	r3, [r7, #4]
 80037f6:	f893 3284 	ldrb.w	r3, [r3, #644]	@ 0x284
 80037fa:	2b05      	cmp	r3, #5
 80037fc:	d118      	bne.n	8003830 <cli_auth_handle+0x134>
        cli_show_prompt(cli);
 80037fe:	6878      	ldr	r0, [r7, #4]
 8003800:	f7fe f8f3 	bl	80019ea <cli_show_prompt>
    } break;
 8003804:	e014      	b.n	8003830 <cli_auth_handle+0x134>

    case ASCII_BS:
    case ASCII_DEL:
      cli_auth_backspace(cli);
 8003806:	6878      	ldr	r0, [r7, #4]
 8003808:	f000 f856 	bl	80038b8 <cli_auth_backspace>
      break;
 800380c:	e013      	b.n	8003836 <cli_auth_handle+0x13a>

    case 0x0B:
    case 0x15:
      cli_auth_clear_input(cli);
 800380e:	6878      	ldr	r0, [r7, #4]
 8003810:	f000 f886 	bl	8003920 <cli_auth_clear_input>
      break;
 8003814:	e00f      	b.n	8003836 <cli_auth_handle+0x13a>

    default:
      if (byte >= 0x20 && byte <= 0x7E) {
 8003816:	683b      	ldr	r3, [r7, #0]
 8003818:	2b1f      	cmp	r3, #31
 800381a:	dd0b      	ble.n	8003834 <cli_auth_handle+0x138>
 800381c:	683b      	ldr	r3, [r7, #0]
 800381e:	2b7e      	cmp	r3, #126	@ 0x7e
 8003820:	dc08      	bgt.n	8003834 <cli_auth_handle+0x138>
        cli_auth_insert_char(cli, (char)byte);
 8003822:	683b      	ldr	r3, [r7, #0]
 8003824:	b2db      	uxtb	r3, r3
 8003826:	4619      	mov	r1, r3
 8003828:	6878      	ldr	r0, [r7, #4]
 800382a:	f000 f89a 	bl	8003962 <cli_auth_insert_char>
      }
      break;
 800382e:	e001      	b.n	8003834 <cli_auth_handle+0x138>
    } break;
 8003830:	bf00      	nop
 8003832:	e000      	b.n	8003836 <cli_auth_handle+0x13a>
      break;
 8003834:	bf00      	nop
    }
  }

  return rc;
 8003836:	f997 300f 	ldrsb.w	r3, [r7, #15]
}
 800383a:	4618      	mov	r0, r3
 800383c:	3710      	adds	r7, #16
 800383e:	46bd      	mov	sp, r7
 8003840:	bd80      	pop	{r7, pc}
 8003842:	bf00      	nop
 8003844:	08006be4 	.word	0x08006be4

08003848 <cli_reset_input>:
#endif

static void cli_reset_input(cli_struct_t *cli) {
 8003848:	b480      	push	{r7}
 800384a:	b083      	sub	sp, #12
 800384c:	af00      	add	r7, sp, #0
 800384e:	6078      	str	r0, [r7, #4]
  if (cli != NULL) {
 8003850:	687b      	ldr	r3, [r7, #4]
 8003852:	2b00      	cmp	r3, #0
 8003854:	d00b      	beq.n	800386e <cli_reset_input+0x26>
    cli->input[0] = '\0';
 8003856:	687b      	ldr	r3, [r7, #4]
 8003858:	2200      	movs	r2, #0
 800385a:	f883 2140 	strb.w	r2, [r3, #320]	@ 0x140
    cli->input_len = 0;
 800385e:	687b      	ldr	r3, [r7, #4]
 8003860:	2200      	movs	r2, #0
 8003862:	f8c3 21a0 	str.w	r2, [r3, #416]	@ 0x1a0
    cli->cursor = 0;
 8003866:	687b      	ldr	r3, [r7, #4]
 8003868:	2200      	movs	r2, #0
 800386a:	f8c3 21a4 	str.w	r2, [r3, #420]	@ 0x1a4
  }
}
 800386e:	bf00      	nop
 8003870:	370c      	adds	r7, #12
 8003872:	46bd      	mov	sp, r7
 8003874:	bc80      	pop	{r7}
 8003876:	4770      	bx	lr

08003878 <cli_submit_line>:

static int8_t cli_submit_line(cli_struct_t *cli) {
 8003878:	b580      	push	{r7, lr}
 800387a:	b084      	sub	sp, #16
 800387c:	af00      	add	r7, sp, #0
 800387e:	6078      	str	r0, [r7, #4]
  int8_t rc = CLI_ERR;
 8003880:	23ff      	movs	r3, #255	@ 0xff
 8003882:	73fb      	strb	r3, [r7, #15]

  if (cli != NULL) {
 8003884:	687b      	ldr	r3, [r7, #4]
 8003886:	2b00      	cmp	r3, #0
 8003888:	d00f      	beq.n	80038aa <cli_submit_line+0x32>
    rc = cli_execute(cli);
 800388a:	6878      	ldr	r0, [r7, #4]
 800388c:	f7ff fc9a 	bl	80031c4 <cli_execute>
 8003890:	4603      	mov	r3, r0
 8003892:	73fb      	strb	r3, [r7, #15]
    if (rc == CLI_EXEC_REPLAY_INPUT) {
 8003894:	f997 300f 	ldrsb.w	r3, [r7, #15]
 8003898:	2b01      	cmp	r3, #1
 800389a:	d103      	bne.n	80038a4 <cli_submit_line+0x2c>
      cli_redraw_line(cli);
 800389c:	6878      	ldr	r0, [r7, #4]
 800389e:	f7fd fe6d 	bl	800157c <cli_redraw_line>
 80038a2:	e002      	b.n	80038aa <cli_submit_line+0x32>
    } else {
      cli_reset_input(cli);
 80038a4:	6878      	ldr	r0, [r7, #4]
 80038a6:	f7ff ffcf 	bl	8003848 <cli_reset_input>
    }
  }

  return rc;
 80038aa:	f997 300f 	ldrsb.w	r3, [r7, #15]
}
 80038ae:	4618      	mov	r0, r3
 80038b0:	3710      	adds	r7, #16
 80038b2:	46bd      	mov	sp, r7
 80038b4:	bd80      	pop	{r7, pc}
	...

080038b8 <cli_auth_backspace>:

#if CLI_ENABLE_AUTH
static void cli_auth_backspace(cli_struct_t *cli) {
 80038b8:	b580      	push	{r7, lr}
 80038ba:	b082      	sub	sp, #8
 80038bc:	af00      	add	r7, sp, #0
 80038be:	6078      	str	r0, [r7, #4]
  if (cli != NULL && cli->input_len > 0) {
 80038c0:	687b      	ldr	r3, [r7, #4]
 80038c2:	2b00      	cmp	r3, #0
 80038c4:	d026      	beq.n	8003914 <cli_auth_backspace+0x5c>
 80038c6:	687b      	ldr	r3, [r7, #4]
 80038c8:	f8d3 31a0 	ldr.w	r3, [r3, #416]	@ 0x1a0
 80038cc:	2b00      	cmp	r3, #0
 80038ce:	dd21      	ble.n	8003914 <cli_auth_backspace+0x5c>
    cli->input_len--;
 80038d0:	687b      	ldr	r3, [r7, #4]
 80038d2:	f8d3 31a0 	ldr.w	r3, [r3, #416]	@ 0x1a0
 80038d6:	1e5a      	subs	r2, r3, #1
 80038d8:	687b      	ldr	r3, [r7, #4]
 80038da:	f8c3 21a0 	str.w	r2, [r3, #416]	@ 0x1a0
    cli->input[cli->input_len] = '\0';
 80038de:	687b      	ldr	r3, [r7, #4]
 80038e0:	f8d3 31a0 	ldr.w	r3, [r3, #416]	@ 0x1a0
 80038e4:	687a      	ldr	r2, [r7, #4]
 80038e6:	4413      	add	r3, r2
 80038e8:	2200      	movs	r2, #0
 80038ea:	f883 2140 	strb.w	r2, [r3, #320]	@ 0x140
    cli->cursor = cli->input_len;
 80038ee:	687b      	ldr	r3, [r7, #4]
 80038f0:	f8d3 21a0 	ldr.w	r2, [r3, #416]	@ 0x1a0
 80038f4:	687b      	ldr	r3, [r7, #4]
 80038f6:	f8c3 21a4 	str.w	r2, [r3, #420]	@ 0x1a4
    if (!cli_auth_secret_input(cli)) {
 80038fa:	6878      	ldr	r0, [r7, #4]
 80038fc:	f7ff fe32 	bl	8003564 <cli_auth_secret_input>
 8003900:	4603      	mov	r3, r0
 8003902:	f083 0301 	eor.w	r3, r3, #1
 8003906:	b2db      	uxtb	r3, r3
 8003908:	2b00      	cmp	r3, #0
 800390a:	d003      	beq.n	8003914 <cli_auth_backspace+0x5c>
      CLI_WSTR(cli, "\x08"
 800390c:	4903      	ldr	r1, [pc, #12]	@ (800391c <cli_auth_backspace+0x64>)
 800390e:	6878      	ldr	r0, [r7, #4]
 8003910:	f7fd fd4b 	bl	80013aa <cli_write_str>
                    " \x08");
    }
  }
}
 8003914:	bf00      	nop
 8003916:	3708      	adds	r7, #8
 8003918:	46bd      	mov	sp, r7
 800391a:	bd80      	pop	{r7, pc}
 800391c:	08006c88 	.word	0x08006c88

08003920 <cli_auth_clear_input>:

static void cli_auth_clear_input(cli_struct_t *cli) {
 8003920:	b580      	push	{r7, lr}
 8003922:	b082      	sub	sp, #8
 8003924:	af00      	add	r7, sp, #0
 8003926:	6078      	str	r0, [r7, #4]
  if (cli != NULL) {
 8003928:	687b      	ldr	r3, [r7, #4]
 800392a:	2b00      	cmp	r3, #0
 800392c:	d015      	beq.n	800395a <cli_auth_clear_input+0x3a>
    if (!cli_auth_secret_input(cli)) {
 800392e:	6878      	ldr	r0, [r7, #4]
 8003930:	f7ff fe18 	bl	8003564 <cli_auth_secret_input>
 8003934:	4603      	mov	r3, r0
 8003936:	f083 0301 	eor.w	r3, r3, #1
 800393a:	b2db      	uxtb	r3, r3
 800393c:	2b00      	cmp	r3, #0
 800393e:	d009      	beq.n	8003954 <cli_auth_clear_input+0x34>
      while (cli->input_len > 0) {
 8003940:	e002      	b.n	8003948 <cli_auth_clear_input+0x28>
        cli_auth_backspace(cli);
 8003942:	6878      	ldr	r0, [r7, #4]
 8003944:	f7ff ffb8 	bl	80038b8 <cli_auth_backspace>
      while (cli->input_len > 0) {
 8003948:	687b      	ldr	r3, [r7, #4]
 800394a:	f8d3 31a0 	ldr.w	r3, [r3, #416]	@ 0x1a0
 800394e:	2b00      	cmp	r3, #0
 8003950:	dcf7      	bgt.n	8003942 <cli_auth_clear_input+0x22>
      }
    } else {
      cli_reset_input(cli);
    }
  }
}
 8003952:	e002      	b.n	800395a <cli_auth_clear_input+0x3a>
      cli_reset_input(cli);
 8003954:	6878      	ldr	r0, [r7, #4]
 8003956:	f7ff ff77 	bl	8003848 <cli_reset_input>
}
 800395a:	bf00      	nop
 800395c:	3708      	adds	r7, #8
 800395e:	46bd      	mov	sp, r7
 8003960:	bd80      	pop	{r7, pc}

08003962 <cli_auth_insert_char>:

static void cli_auth_insert_char(cli_struct_t *cli, char c) {
 8003962:	b590      	push	{r4, r7, lr}
 8003964:	b083      	sub	sp, #12
 8003966:	af00      	add	r7, sp, #0
 8003968:	6078      	str	r0, [r7, #4]
 800396a:	460b      	mov	r3, r1
 800396c:	70fb      	strb	r3, [r7, #3]
  if (cli != NULL) {
 800396e:	687b      	ldr	r3, [r7, #4]
 8003970:	2b00      	cmp	r3, #0
 8003972:	d036      	beq.n	80039e2 <cli_auth_insert_char+0x80>
    if (cli->input_len < cli_auth_input_limit(cli) - 1) {
 8003974:	687b      	ldr	r3, [r7, #4]
 8003976:	f8d3 41a0 	ldr.w	r4, [r3, #416]	@ 0x1a0
 800397a:	6878      	ldr	r0, [r7, #4]
 800397c:	f7ff fe0e 	bl	800359c <cli_auth_input_limit>
 8003980:	4603      	mov	r3, r0
 8003982:	3b01      	subs	r3, #1
 8003984:	429c      	cmp	r4, r3
 8003986:	da28      	bge.n	80039da <cli_auth_insert_char+0x78>
      cli->input[cli->input_len++] = c;
 8003988:	687b      	ldr	r3, [r7, #4]
 800398a:	f8d3 31a0 	ldr.w	r3, [r3, #416]	@ 0x1a0
 800398e:	1c59      	adds	r1, r3, #1
 8003990:	687a      	ldr	r2, [r7, #4]
 8003992:	f8c2 11a0 	str.w	r1, [r2, #416]	@ 0x1a0
 8003996:	687a      	ldr	r2, [r7, #4]
 8003998:	4413      	add	r3, r2
 800399a:	78fa      	ldrb	r2, [r7, #3]
 800399c:	f883 2140 	strb.w	r2, [r3, #320]	@ 0x140
      cli->input[cli->input_len] = '\0';
 80039a0:	687b      	ldr	r3, [r7, #4]
 80039a2:	f8d3 31a0 	ldr.w	r3, [r3, #416]	@ 0x1a0
 80039a6:	687a      	ldr	r2, [r7, #4]
 80039a8:	4413      	add	r3, r2
 80039aa:	2200      	movs	r2, #0
 80039ac:	f883 2140 	strb.w	r2, [r3, #320]	@ 0x140
      cli->cursor = cli->input_len;
 80039b0:	687b      	ldr	r3, [r7, #4]
 80039b2:	f8d3 21a0 	ldr.w	r2, [r3, #416]	@ 0x1a0
 80039b6:	687b      	ldr	r3, [r7, #4]
 80039b8:	f8c3 21a4 	str.w	r2, [r3, #420]	@ 0x1a4
      if (!cli_auth_secret_input(cli)) {
 80039bc:	6878      	ldr	r0, [r7, #4]
 80039be:	f7ff fdd1 	bl	8003564 <cli_auth_secret_input>
 80039c2:	4603      	mov	r3, r0
 80039c4:	f083 0301 	eor.w	r3, r3, #1
 80039c8:	b2db      	uxtb	r3, r3
 80039ca:	2b00      	cmp	r3, #0
 80039cc:	d009      	beq.n	80039e2 <cli_auth_insert_char+0x80>
        cli_write_char(cli, c);
 80039ce:	78fb      	ldrb	r3, [r7, #3]
 80039d0:	4619      	mov	r1, r3
 80039d2:	6878      	ldr	r0, [r7, #4]
 80039d4:	f7fd fcfe 	bl	80013d4 <cli_write_char>
      }
    } else {
      cli_write_char(cli, ASCII_BELL);
    }
  }
}
 80039d8:	e003      	b.n	80039e2 <cli_auth_insert_char+0x80>
      cli_write_char(cli, ASCII_BELL);
 80039da:	2107      	movs	r1, #7
 80039dc:	6878      	ldr	r0, [r7, #4]
 80039de:	f7fd fcf9 	bl	80013d4 <cli_write_char>
}
 80039e2:	bf00      	nop
 80039e4:	370c      	adds	r7, #12
 80039e6:	46bd      	mov	sp, r7
 80039e8:	bd90      	pop	{r4, r7, pc}

080039ea <cli_process_escape>:
 *
 * For example: Up Arrow sends: 0x1B (ESC), then [, then A often read as \033[A
 *
 * @return 1 if the byte was consumed by the escape machine, 0 if not.
 */
static bool cli_process_escape(cli_struct_t *cli, int b) {
 80039ea:	b580      	push	{r7, lr}
 80039ec:	b084      	sub	sp, #16
 80039ee:	af00      	add	r7, sp, #0
 80039f0:	6078      	str	r0, [r7, #4]
 80039f2:	6039      	str	r1, [r7, #0]
  bool consumed = (bool)false;
 80039f4:	2300      	movs	r3, #0
 80039f6:	73fb      	strb	r3, [r7, #15]

  switch (cli->esc_state) {
 80039f8:	687b      	ldr	r3, [r7, #4]
 80039fa:	f893 3420 	ldrb.w	r3, [r3, #1056]	@ 0x420
 80039fe:	2b02      	cmp	r3, #2
 8003a00:	d026      	beq.n	8003a50 <cli_process_escape+0x66>
 8003a02:	2b02      	cmp	r3, #2
 8003a04:	dc44      	bgt.n	8003a90 <cli_process_escape+0xa6>
 8003a06:	2b00      	cmp	r3, #0
 8003a08:	d002      	beq.n	8003a10 <cli_process_escape+0x26>
 8003a0a:	2b01      	cmp	r3, #1
 8003a0c:	d00e      	beq.n	8003a2c <cli_process_escape+0x42>
 8003a0e:	e03f      	b.n	8003a90 <cli_process_escape+0xa6>
  case ESC_STATE_NORMAL:
    if (b == ASCII_ESC) {
 8003a10:	683b      	ldr	r3, [r7, #0]
 8003a12:	2b1b      	cmp	r3, #27
 8003a14:	d141      	bne.n	8003a9a <cli_process_escape+0xb0>
      cli->esc_state = ESC_STATE_ESC;
 8003a16:	687b      	ldr	r3, [r7, #4]
 8003a18:	2201      	movs	r2, #1
 8003a1a:	f883 2420 	strb.w	r2, [r3, #1056]	@ 0x420
      cli->esc_param = 0;
 8003a1e:	687b      	ldr	r3, [r7, #4]
 8003a20:	2200      	movs	r2, #0
 8003a22:	f8c3 2424 	str.w	r2, [r3, #1060]	@ 0x424
      consumed = (bool)true; /* consumed */
 8003a26:	2301      	movs	r3, #1
 8003a28:	73fb      	strb	r3, [r7, #15]
    }
    break; /* not an escape byte */
 8003a2a:	e036      	b.n	8003a9a <cli_process_escape+0xb0>

  case ESC_STATE_ESC:
    if (b == ASCII_LSBRACKET || b == ASCII_CAP_O) {
 8003a2c:	683b      	ldr	r3, [r7, #0]
 8003a2e:	2b5b      	cmp	r3, #91	@ 0x5b
 8003a30:	d002      	beq.n	8003a38 <cli_process_escape+0x4e>
 8003a32:	683b      	ldr	r3, [r7, #0]
 8003a34:	2b4f      	cmp	r3, #79	@ 0x4f
 8003a36:	d106      	bne.n	8003a46 <cli_process_escape+0x5c>
      cli->esc_state = ESC_STATE_CSI;
 8003a38:	687b      	ldr	r3, [r7, #4]
 8003a3a:	2202      	movs	r2, #2
 8003a3c:	f883 2420 	strb.w	r2, [r3, #1056]	@ 0x420
      consumed = (bool)true;
 8003a40:	2301      	movs	r3, #1
 8003a42:	73fb      	strb	r3, [r7, #15]
    } else {
      cli->esc_state = ESC_STATE_NORMAL;
    }
    break;
 8003a44:	e02a      	b.n	8003a9c <cli_process_escape+0xb2>
      cli->esc_state = ESC_STATE_NORMAL;
 8003a46:	687b      	ldr	r3, [r7, #4]
 8003a48:	2200      	movs	r2, #0
 8003a4a:	f883 2420 	strb.w	r2, [r3, #1056]	@ 0x420
    break;
 8003a4e:	e025      	b.n	8003a9c <cli_process_escape+0xb2>

  case ESC_STATE_CSI:
    if (b >= ASCII_DIGIT_0 && b <= ASCII_DIGIT_9) {
 8003a50:	683b      	ldr	r3, [r7, #0]
 8003a52:	2b2f      	cmp	r3, #47	@ 0x2f
 8003a54:	dd13      	ble.n	8003a7e <cli_process_escape+0x94>
 8003a56:	683b      	ldr	r3, [r7, #0]
 8003a58:	2b39      	cmp	r3, #57	@ 0x39
 8003a5a:	dc10      	bgt.n	8003a7e <cli_process_escape+0x94>
      cli->esc_param = cli->esc_param * 10 + (b - ASCII_DIGIT_0);
 8003a5c:	687b      	ldr	r3, [r7, #4]
 8003a5e:	f8d3 2424 	ldr.w	r2, [r3, #1060]	@ 0x424
 8003a62:	4613      	mov	r3, r2
 8003a64:	009b      	lsls	r3, r3, #2
 8003a66:	4413      	add	r3, r2
 8003a68:	005b      	lsls	r3, r3, #1
 8003a6a:	461a      	mov	r2, r3
 8003a6c:	683b      	ldr	r3, [r7, #0]
 8003a6e:	3b30      	subs	r3, #48	@ 0x30
 8003a70:	441a      	add	r2, r3
 8003a72:	687b      	ldr	r3, [r7, #4]
 8003a74:	f8c3 2424 	str.w	r2, [r3, #1060]	@ 0x424
      consumed = (bool)true;
 8003a78:	2301      	movs	r3, #1
 8003a7a:	73fb      	strb	r3, [r7, #15]
    } else {
      handle_csi(cli, (char)b);
      consumed = (bool)true;
    }
    break;
 8003a7c:	e00e      	b.n	8003a9c <cli_process_escape+0xb2>
      handle_csi(cli, (char)b);
 8003a7e:	683b      	ldr	r3, [r7, #0]
 8003a80:	b2db      	uxtb	r3, r3
 8003a82:	4619      	mov	r1, r3
 8003a84:	6878      	ldr	r0, [r7, #4]
 8003a86:	f000 f80f 	bl	8003aa8 <handle_csi>
      consumed = (bool)true;
 8003a8a:	2301      	movs	r3, #1
 8003a8c:	73fb      	strb	r3, [r7, #15]
    break;
 8003a8e:	e005      	b.n	8003a9c <cli_process_escape+0xb2>

  default:
    cli->esc_state = ESC_STATE_NORMAL;
 8003a90:	687b      	ldr	r3, [r7, #4]
 8003a92:	2200      	movs	r2, #0
 8003a94:	f883 2420 	strb.w	r2, [r3, #1056]	@ 0x420
    break;
 8003a98:	e000      	b.n	8003a9c <cli_process_escape+0xb2>
    break; /* not an escape byte */
 8003a9a:	bf00      	nop
  }

  return consumed;
 8003a9c:	7bfb      	ldrb	r3, [r7, #15]
}
 8003a9e:	4618      	mov	r0, r3
 8003aa0:	3710      	adds	r7, #16
 8003aa2:	46bd      	mov	sp, r7
 8003aa4:	bd80      	pop	{r7, pc}
	...

08003aa8 <handle_csi>:
 * operations.
 *
 * @param[in] cli    Active CLI session.
 * @param[in] final  The final byte of the CSI sequence.
 */
static void handle_csi(cli_struct_t *cli, char final) {
 8003aa8:	b580      	push	{r7, lr}
 8003aaa:	b082      	sub	sp, #8
 8003aac:	af00      	add	r7, sp, #0
 8003aae:	6078      	str	r0, [r7, #4]
 8003ab0:	460b      	mov	r3, r1
 8003ab2:	70fb      	strb	r3, [r7, #3]
  switch (final) {
 8003ab4:	78fb      	ldrb	r3, [r7, #3]
 8003ab6:	2b48      	cmp	r3, #72	@ 0x48
 8003ab8:	dc18      	bgt.n	8003aec <handle_csi+0x44>
 8003aba:	2b41      	cmp	r3, #65	@ 0x41
 8003abc:	db5e      	blt.n	8003b7c <handle_csi+0xd4>
 8003abe:	3b41      	subs	r3, #65	@ 0x41
 8003ac0:	2b07      	cmp	r3, #7
 8003ac2:	d85b      	bhi.n	8003b7c <handle_csi+0xd4>
 8003ac4:	a201      	add	r2, pc, #4	@ (adr r2, 8003acc <handle_csi+0x24>)
 8003ac6:	f852 f023 	ldr.w	pc, [r2, r3, lsl #2]
 8003aca:	bf00      	nop
 8003acc:	08003af3 	.word	0x08003af3
 8003ad0:	08003aff 	.word	0x08003aff
 8003ad4:	08003b09 	.word	0x08003b09
 8003ad8:	08003b13 	.word	0x08003b13
 8003adc:	08003b7d 	.word	0x08003b7d
 8003ae0:	08003b29 	.word	0x08003b29
 8003ae4:	08003b7d 	.word	0x08003b7d
 8003ae8:	08003b1f 	.word	0x08003b1f
 8003aec:	2b7e      	cmp	r3, #126	@ 0x7e
 8003aee:	d01f      	beq.n	8003b30 <handle_csi+0x88>
    }
    break;

  default:
    /* To silence MISRA */
    break;
 8003af0:	e044      	b.n	8003b7c <handle_csi+0xd4>
    cli_history_navigate(cli, CLI_HISTORY_NAV_PREV);
 8003af2:	f04f 31ff 	mov.w	r1, #4294967295
 8003af6:	6878      	ldr	r0, [r7, #4]
 8003af8:	f7fe f9a8 	bl	8001e4c <cli_history_navigate>
    break; /* Up    */
 8003afc:	e041      	b.n	8003b82 <handle_csi+0xda>
    cli_history_navigate(cli, CLI_HISTORY_NAV_NEXT);
 8003afe:	2101      	movs	r1, #1
 8003b00:	6878      	ldr	r0, [r7, #4]
 8003b02:	f7fe f9a3 	bl	8001e4c <cli_history_navigate>
    break; /* Down  */
 8003b06:	e03c      	b.n	8003b82 <handle_csi+0xda>
    cli_move_cursor_delta(cli, 1);
 8003b08:	2101      	movs	r1, #1
 8003b0a:	6878      	ldr	r0, [r7, #4]
 8003b0c:	f7fd fd72 	bl	80015f4 <cli_move_cursor_delta>
    break; /* Right */
 8003b10:	e037      	b.n	8003b82 <handle_csi+0xda>
    cli_move_cursor_delta(cli, -1);
 8003b12:	f04f 31ff 	mov.w	r1, #4294967295
 8003b16:	6878      	ldr	r0, [r7, #4]
 8003b18:	f7fd fd6c 	bl	80015f4 <cli_move_cursor_delta>
    break; /* Left  */
 8003b1c:	e031      	b.n	8003b82 <handle_csi+0xda>
    cli_move_cursor(cli, 0);
 8003b1e:	2100      	movs	r1, #0
 8003b20:	6878      	ldr	r0, [r7, #4]
 8003b22:	f7fd fda4 	bl	800166e <cli_move_cursor>
    break; /* Home  */
 8003b26:	e02c      	b.n	8003b82 <handle_csi+0xda>
    cli_move_cursor_end(cli);
 8003b28:	6878      	ldr	r0, [r7, #4]
 8003b2a:	f7fd fd91 	bl	8001650 <cli_move_cursor_end>
    break; /* End   */
 8003b2e:	e028      	b.n	8003b82 <handle_csi+0xda>
    if (cli->esc_param == 1 || cli->esc_param == 7) {
 8003b30:	687b      	ldr	r3, [r7, #4]
 8003b32:	f8d3 3424 	ldr.w	r3, [r3, #1060]	@ 0x424
 8003b36:	2b01      	cmp	r3, #1
 8003b38:	d004      	beq.n	8003b44 <handle_csi+0x9c>
 8003b3a:	687b      	ldr	r3, [r7, #4]
 8003b3c:	f8d3 3424 	ldr.w	r3, [r3, #1060]	@ 0x424
 8003b40:	2b07      	cmp	r3, #7
 8003b42:	d104      	bne.n	8003b4e <handle_csi+0xa6>
      cli_move_cursor(cli, 0);
 8003b44:	2100      	movs	r1, #0
 8003b46:	6878      	ldr	r0, [r7, #4]
 8003b48:	f7fd fd91 	bl	800166e <cli_move_cursor>
    break;
 8003b4c:	e018      	b.n	8003b80 <handle_csi+0xd8>
    } else if (cli->esc_param == 3) {
 8003b4e:	687b      	ldr	r3, [r7, #4]
 8003b50:	f8d3 3424 	ldr.w	r3, [r3, #1060]	@ 0x424
 8003b54:	2b03      	cmp	r3, #3
 8003b56:	d103      	bne.n	8003b60 <handle_csi+0xb8>
      cli_delete_char(cli);
 8003b58:	6878      	ldr	r0, [r7, #4]
 8003b5a:	f7fd fe3e 	bl	80017da <cli_delete_char>
    break;
 8003b5e:	e00f      	b.n	8003b80 <handle_csi+0xd8>
    } else if (cli->esc_param == 4 || cli->esc_param == 8) {
 8003b60:	687b      	ldr	r3, [r7, #4]
 8003b62:	f8d3 3424 	ldr.w	r3, [r3, #1060]	@ 0x424
 8003b66:	2b04      	cmp	r3, #4
 8003b68:	d004      	beq.n	8003b74 <handle_csi+0xcc>
 8003b6a:	687b      	ldr	r3, [r7, #4]
 8003b6c:	f8d3 3424 	ldr.w	r3, [r3, #1060]	@ 0x424
 8003b70:	2b08      	cmp	r3, #8
 8003b72:	d105      	bne.n	8003b80 <handle_csi+0xd8>
      cli_move_cursor_end(cli);
 8003b74:	6878      	ldr	r0, [r7, #4]
 8003b76:	f7fd fd6b 	bl	8001650 <cli_move_cursor_end>
    break;
 8003b7a:	e001      	b.n	8003b80 <handle_csi+0xd8>
    break;
 8003b7c:	bf00      	nop
 8003b7e:	e000      	b.n	8003b82 <handle_csi+0xda>
    break;
 8003b80:	bf00      	nop
  }
  cli->esc_state = ESC_STATE_NORMAL;
 8003b82:	687b      	ldr	r3, [r7, #4]
 8003b84:	2200      	movs	r2, #0
 8003b86:	f883 2420 	strb.w	r2, [r3, #1056]	@ 0x420
  cli->esc_param = 0;
 8003b8a:	687b      	ldr	r3, [r7, #4]
 8003b8c:	2200      	movs	r2, #0
 8003b8e:	f8c3 2424 	str.w	r2, [r3, #1060]	@ 0x424
}
 8003b92:	bf00      	nop
 8003b94:	3708      	adds	r7, #8
 8003b96:	46bd      	mov	sp, r7
 8003b98:	bd80      	pop	{r7, pc}
 8003b9a:	bf00      	nop

08003b9c <parse_i64>:
  }

  return ok;
}

bool parse_i64(const char *s, int64_t *out) {
 8003b9c:	e92d 4fb0 	stmdb	sp!, {r4, r5, r7, r8, r9, sl, fp, lr}
 8003ba0:	b094      	sub	sp, #80	@ 0x50
 8003ba2:	af00      	add	r7, sp, #0
 8003ba4:	62f8      	str	r0, [r7, #44]	@ 0x2c
 8003ba6:	62b9      	str	r1, [r7, #40]	@ 0x28
  uint64_t uv = 0;
 8003ba8:	f04f 0200 	mov.w	r2, #0
 8003bac:	f04f 0300 	mov.w	r3, #0
 8003bb0:	e9c7 2312 	strd	r2, r3, [r7, #72]	@ 0x48
  bool ok = (s != NULL && out != NULL);
 8003bb4:	6afb      	ldr	r3, [r7, #44]	@ 0x2c
 8003bb6:	2b00      	cmp	r3, #0
 8003bb8:	d004      	beq.n	8003bc4 <parse_i64+0x28>
 8003bba:	6abb      	ldr	r3, [r7, #40]	@ 0x28
 8003bbc:	2b00      	cmp	r3, #0
 8003bbe:	d001      	beq.n	8003bc4 <parse_i64+0x28>
 8003bc0:	2301      	movs	r3, #1
 8003bc2:	e000      	b.n	8003bc6 <parse_i64+0x2a>
 8003bc4:	2300      	movs	r3, #0
 8003bc6:	f887 3047 	strb.w	r3, [r7, #71]	@ 0x47
 8003bca:	f897 3047 	ldrb.w	r3, [r7, #71]	@ 0x47
 8003bce:	f003 0301 	and.w	r3, r3, #1
 8003bd2:	f887 3047 	strb.w	r3, [r7, #71]	@ 0x47
  bool neg = false;
 8003bd6:	2300      	movs	r3, #0
 8003bd8:	f887 3046 	strb.w	r3, [r7, #70]	@ 0x46

  if (ok) {
 8003bdc:	f897 3047 	ldrb.w	r3, [r7, #71]	@ 0x47
 8003be0:	2b00      	cmp	r3, #0
 8003be2:	d007      	beq.n	8003bf4 <parse_i64+0x58>
    ok = (s[0] != '\0');
 8003be4:	6afb      	ldr	r3, [r7, #44]	@ 0x2c
 8003be6:	781b      	ldrb	r3, [r3, #0]
 8003be8:	2b00      	cmp	r3, #0
 8003bea:	bf14      	ite	ne
 8003bec:	2301      	movne	r3, #1
 8003bee:	2300      	moveq	r3, #0
 8003bf0:	f887 3047 	strb.w	r3, [r7, #71]	@ 0x47
  }

  if (s != NULL && ok) {
 8003bf4:	6afb      	ldr	r3, [r7, #44]	@ 0x2c
 8003bf6:	2b00      	cmp	r3, #0
 8003bf8:	d016      	beq.n	8003c28 <parse_i64+0x8c>
 8003bfa:	f897 3047 	ldrb.w	r3, [r7, #71]	@ 0x47
 8003bfe:	2b00      	cmp	r3, #0
 8003c00:	d012      	beq.n	8003c28 <parse_i64+0x8c>
    neg = (*s == '-');
 8003c02:	6afb      	ldr	r3, [r7, #44]	@ 0x2c
 8003c04:	781b      	ldrb	r3, [r3, #0]
 8003c06:	2b2d      	cmp	r3, #45	@ 0x2d
 8003c08:	bf0c      	ite	eq
 8003c0a:	2301      	moveq	r3, #1
 8003c0c:	2300      	movne	r3, #0
 8003c0e:	f887 3046 	strb.w	r3, [r7, #70]	@ 0x46
    if (neg || *s == '+') {
 8003c12:	f897 3046 	ldrb.w	r3, [r7, #70]	@ 0x46
 8003c16:	2b00      	cmp	r3, #0
 8003c18:	d103      	bne.n	8003c22 <parse_i64+0x86>
 8003c1a:	6afb      	ldr	r3, [r7, #44]	@ 0x2c
 8003c1c:	781b      	ldrb	r3, [r3, #0]
 8003c1e:	2b2b      	cmp	r3, #43	@ 0x2b
 8003c20:	d102      	bne.n	8003c28 <parse_i64+0x8c>
      s++;
 8003c22:	6afb      	ldr	r3, [r7, #44]	@ 0x2c
 8003c24:	3301      	adds	r3, #1
 8003c26:	62fb      	str	r3, [r7, #44]	@ 0x2c
    }

    /* Sign-only input is accepted as zero for compatibility with existing API tests. */
  }

  if (s != NULL && ok) {
 8003c28:	6afb      	ldr	r3, [r7, #44]	@ 0x2c
 8003c2a:	2b00      	cmp	r3, #0
 8003c2c:	f000 8095 	beq.w	8003d5a <parse_i64+0x1be>
 8003c30:	f897 3047 	ldrb.w	r3, [r7, #71]	@ 0x47
 8003c34:	2b00      	cmp	r3, #0
 8003c36:	f000 8090 	beq.w	8003d5a <parse_i64+0x1be>
    uint64_t limit = (uint64_t)INT64_MAX;
 8003c3a:	f04f 32ff 	mov.w	r2, #4294967295
 8003c3e:	f06f 4300 	mvn.w	r3, #2147483648	@ 0x80000000
 8003c42:	e9c7 230e 	strd	r2, r3, [r7, #56]	@ 0x38
    if (neg) {
 8003c46:	f897 3046 	ldrb.w	r3, [r7, #70]	@ 0x46
 8003c4a:	2b00      	cmp	r3, #0
 8003c4c:	d066      	beq.n	8003d1c <parse_i64+0x180>
      limit++;
 8003c4e:	e9d7 230e 	ldrd	r2, r3, [r7, #56]	@ 0x38
 8003c52:	1c54      	adds	r4, r2, #1
 8003c54:	f143 0500 	adc.w	r5, r3, #0
 8003c58:	e9c7 450e 	strd	r4, r5, [r7, #56]	@ 0x38
    }

    while (is_dec_digit(*s) && ok) {
 8003c5c:	e05e      	b.n	8003d1c <parse_i64+0x180>
      uint8_t digit = dec_value(*s);
 8003c5e:	6afb      	ldr	r3, [r7, #44]	@ 0x2c
 8003c60:	781b      	ldrb	r3, [r3, #0]
 8003c62:	4618      	mov	r0, r3
 8003c64:	f000 f907 	bl	8003e76 <dec_value>
 8003c68:	4603      	mov	r3, r0
 8003c6a:	f887 3037 	strb.w	r3, [r7, #55]	@ 0x37
      ok = (uv <= ((limit - (uint64_t)digit) / 10ULL));
 8003c6e:	f897 3037 	ldrb.w	r3, [r7, #55]	@ 0x37
 8003c72:	2200      	movs	r2, #0
 8003c74:	469a      	mov	sl, r3
 8003c76:	4693      	mov	fp, r2
 8003c78:	e9d7 230e 	ldrd	r2, r3, [r7, #56]	@ 0x38
 8003c7c:	ebb2 010a 	subs.w	r1, r2, sl
 8003c80:	6239      	str	r1, [r7, #32]
 8003c82:	eb63 030b 	sbc.w	r3, r3, fp
 8003c86:	627b      	str	r3, [r7, #36]	@ 0x24
 8003c88:	f04f 020a 	mov.w	r2, #10
 8003c8c:	f04f 0300 	mov.w	r3, #0
 8003c90:	e9d7 0108 	ldrd	r0, r1, [r7, #32]
 8003c94:	f7fc fa6c 	bl	8000170 <__aeabi_uldivmod>
 8003c98:	4602      	mov	r2, r0
 8003c9a:	460b      	mov	r3, r1
 8003c9c:	4610      	mov	r0, r2
 8003c9e:	4619      	mov	r1, r3
 8003ca0:	e9d7 2312 	ldrd	r2, r3, [r7, #72]	@ 0x48
 8003ca4:	4290      	cmp	r0, r2
 8003ca6:	eb71 0303 	sbcs.w	r3, r1, r3
 8003caa:	bf2c      	ite	cs
 8003cac:	2301      	movcs	r3, #1
 8003cae:	2300      	movcc	r3, #0
 8003cb0:	f887 3047 	strb.w	r3, [r7, #71]	@ 0x47
      if (ok) {
 8003cb4:	f897 3047 	ldrb.w	r3, [r7, #71]	@ 0x47
 8003cb8:	2b00      	cmp	r3, #0
 8003cba:	d02f      	beq.n	8003d1c <parse_i64+0x180>
        uv = (uv * 10ULL) + (uint64_t)digit;
 8003cbc:	e9d7 4512 	ldrd	r4, r5, [r7, #72]	@ 0x48
 8003cc0:	4622      	mov	r2, r4
 8003cc2:	462b      	mov	r3, r5
 8003cc4:	f04f 0000 	mov.w	r0, #0
 8003cc8:	f04f 0100 	mov.w	r1, #0
 8003ccc:	0099      	lsls	r1, r3, #2
 8003cce:	ea41 7192 	orr.w	r1, r1, r2, lsr #30
 8003cd2:	0090      	lsls	r0, r2, #2
 8003cd4:	4602      	mov	r2, r0
 8003cd6:	460b      	mov	r3, r1
 8003cd8:	eb12 0804 	adds.w	r8, r2, r4
 8003cdc:	eb43 0905 	adc.w	r9, r3, r5
 8003ce0:	eb18 0308 	adds.w	r3, r8, r8
 8003ce4:	60bb      	str	r3, [r7, #8]
 8003ce6:	eb49 0309 	adc.w	r3, r9, r9
 8003cea:	60fb      	str	r3, [r7, #12]
 8003cec:	e9d7 8902 	ldrd	r8, r9, [r7, #8]
 8003cf0:	4642      	mov	r2, r8
 8003cf2:	464b      	mov	r3, r9
 8003cf4:	f897 1037 	ldrb.w	r1, [r7, #55]	@ 0x37
 8003cf8:	2000      	movs	r0, #0
 8003cfa:	61b9      	str	r1, [r7, #24]
 8003cfc:	61f8      	str	r0, [r7, #28]
 8003cfe:	e9d7 4506 	ldrd	r4, r5, [r7, #24]
 8003d02:	4621      	mov	r1, r4
 8003d04:	1851      	adds	r1, r2, r1
 8003d06:	6039      	str	r1, [r7, #0]
 8003d08:	4629      	mov	r1, r5
 8003d0a:	414b      	adcs	r3, r1
 8003d0c:	607b      	str	r3, [r7, #4]
 8003d0e:	e9d7 3400 	ldrd	r3, r4, [r7]
 8003d12:	e9c7 3412 	strd	r3, r4, [r7, #72]	@ 0x48
        s++;
 8003d16:	6afb      	ldr	r3, [r7, #44]	@ 0x2c
 8003d18:	3301      	adds	r3, #1
 8003d1a:	62fb      	str	r3, [r7, #44]	@ 0x2c
    while (is_dec_digit(*s) && ok) {
 8003d1c:	6afb      	ldr	r3, [r7, #44]	@ 0x2c
 8003d1e:	781b      	ldrb	r3, [r3, #0]
 8003d20:	4618      	mov	r0, r3
 8003d22:	f000 f892 	bl	8003e4a <is_dec_digit>
 8003d26:	4603      	mov	r3, r0
 8003d28:	2b00      	cmp	r3, #0
 8003d2a:	d003      	beq.n	8003d34 <parse_i64+0x198>
 8003d2c:	f897 3047 	ldrb.w	r3, [r7, #71]	@ 0x47
 8003d30:	2b00      	cmp	r3, #0
 8003d32:	d194      	bne.n	8003c5e <parse_i64+0xc2>
      }
    }

    ok = (ok && *s == '\0');
 8003d34:	f897 3047 	ldrb.w	r3, [r7, #71]	@ 0x47
 8003d38:	2b00      	cmp	r3, #0
 8003d3a:	d005      	beq.n	8003d48 <parse_i64+0x1ac>
 8003d3c:	6afb      	ldr	r3, [r7, #44]	@ 0x2c
 8003d3e:	781b      	ldrb	r3, [r3, #0]
 8003d40:	2b00      	cmp	r3, #0
 8003d42:	d101      	bne.n	8003d48 <parse_i64+0x1ac>
 8003d44:	2301      	movs	r3, #1
 8003d46:	e000      	b.n	8003d4a <parse_i64+0x1ae>
 8003d48:	2300      	movs	r3, #0
 8003d4a:	f887 3047 	strb.w	r3, [r7, #71]	@ 0x47
 8003d4e:	f897 3047 	ldrb.w	r3, [r7, #71]	@ 0x47
 8003d52:	f003 0301 	and.w	r3, r3, #1
 8003d56:	f887 3047 	strb.w	r3, [r7, #71]	@ 0x47
  }

  if (out != NULL && ok) {
 8003d5a:	6abb      	ldr	r3, [r7, #40]	@ 0x28
 8003d5c:	2b00      	cmp	r3, #0
 8003d5e:	d029      	beq.n	8003db4 <parse_i64+0x218>
 8003d60:	f897 3047 	ldrb.w	r3, [r7, #71]	@ 0x47
 8003d64:	2b00      	cmp	r3, #0
 8003d66:	d025      	beq.n	8003db4 <parse_i64+0x218>
    if (neg) {
 8003d68:	f897 3046 	ldrb.w	r3, [r7, #70]	@ 0x46
 8003d6c:	2b00      	cmp	r3, #0
 8003d6e:	d01c      	beq.n	8003daa <parse_i64+0x20e>
      if (uv == ((uint64_t)INT64_MAX + 1ULL)) {
 8003d70:	e9d7 2312 	ldrd	r2, r3, [r7, #72]	@ 0x48
 8003d74:	f103 4100 	add.w	r1, r3, #2147483648	@ 0x80000000
 8003d78:	ea52 0301 	orrs.w	r3, r2, r1
 8003d7c:	d107      	bne.n	8003d8e <parse_i64+0x1f2>
        *out = INT64_MIN;
 8003d7e:	6ab9      	ldr	r1, [r7, #40]	@ 0x28
 8003d80:	f04f 0200 	mov.w	r2, #0
 8003d84:	f04f 4300 	mov.w	r3, #2147483648	@ 0x80000000
 8003d88:	e9c1 2300 	strd	r2, r3, [r1]
 8003d8c:	e012      	b.n	8003db4 <parse_i64+0x218>
      } else {
        *out = -(int64_t)uv;
 8003d8e:	e9d7 2312 	ldrd	r2, r3, [r7, #72]	@ 0x48
 8003d92:	2100      	movs	r1, #0
 8003d94:	4250      	negs	r0, r2
 8003d96:	6138      	str	r0, [r7, #16]
 8003d98:	eb61 0303 	sbc.w	r3, r1, r3
 8003d9c:	617b      	str	r3, [r7, #20]
 8003d9e:	6abb      	ldr	r3, [r7, #40]	@ 0x28
 8003da0:	e9d7 1204 	ldrd	r1, r2, [r7, #16]
 8003da4:	e9c3 1200 	strd	r1, r2, [r3]
 8003da8:	e004      	b.n	8003db4 <parse_i64+0x218>
      }
    } else {
      *out = (int64_t)uv;
 8003daa:	e9d7 2312 	ldrd	r2, r3, [r7, #72]	@ 0x48
 8003dae:	6ab9      	ldr	r1, [r7, #40]	@ 0x28
 8003db0:	e9c1 2300 	strd	r2, r3, [r1]
    }
  }

  return ok;
 8003db4:	f897 3047 	ldrb.w	r3, [r7, #71]	@ 0x47
}
 8003db8:	4618      	mov	r0, r3
 8003dba:	3750      	adds	r7, #80	@ 0x50
 8003dbc:	46bd      	mov	sp, r7
 8003dbe:	e8bd 8fb0 	ldmia.w	sp!, {r4, r5, r7, r8, r9, sl, fp, pc}

08003dc2 <parse_i32>:
  }

  return ok;
}

bool parse_i32(const char *s, int32_t *out) {
 8003dc2:	b580      	push	{r7, lr}
 8003dc4:	b086      	sub	sp, #24
 8003dc6:	af00      	add	r7, sp, #0
 8003dc8:	6078      	str	r0, [r7, #4]
 8003dca:	6039      	str	r1, [r7, #0]
  int64_t tmp = 0LL;
 8003dcc:	f04f 0200 	mov.w	r2, #0
 8003dd0:	f04f 0300 	mov.w	r3, #0
 8003dd4:	e9c7 2302 	strd	r2, r3, [r7, #8]
  bool ok = (out != NULL);
 8003dd8:	683b      	ldr	r3, [r7, #0]
 8003dda:	2b00      	cmp	r3, #0
 8003ddc:	bf14      	ite	ne
 8003dde:	2301      	movne	r3, #1
 8003de0:	2300      	moveq	r3, #0
 8003de2:	75fb      	strb	r3, [r7, #23]

  if (ok) {
 8003de4:	7dfb      	ldrb	r3, [r7, #23]
 8003de6:	2b00      	cmp	r3, #0
 8003de8:	d020      	beq.n	8003e2c <parse_i32+0x6a>
    ok = parse_i64(s, &tmp);
 8003dea:	f107 0308 	add.w	r3, r7, #8
 8003dee:	4619      	mov	r1, r3
 8003df0:	6878      	ldr	r0, [r7, #4]
 8003df2:	f7ff fed3 	bl	8003b9c <parse_i64>
 8003df6:	4603      	mov	r3, r0
 8003df8:	75fb      	strb	r3, [r7, #23]
    ok = (ok && tmp >= INT32_MIN && tmp <= INT32_MAX);
 8003dfa:	7dfb      	ldrb	r3, [r7, #23]
 8003dfc:	2b00      	cmp	r3, #0
 8003dfe:	d00f      	beq.n	8003e20 <parse_i32+0x5e>
 8003e00:	e9d7 2302 	ldrd	r2, r3, [r7, #8]
 8003e04:	f1b2 4f00 	cmp.w	r2, #2147483648	@ 0x80000000
 8003e08:	f173 33ff 	sbcs.w	r3, r3, #4294967295
 8003e0c:	db08      	blt.n	8003e20 <parse_i32+0x5e>
 8003e0e:	e9d7 2302 	ldrd	r2, r3, [r7, #8]
 8003e12:	f1b2 4f00 	cmp.w	r2, #2147483648	@ 0x80000000
 8003e16:	f173 0300 	sbcs.w	r3, r3, #0
 8003e1a:	da01      	bge.n	8003e20 <parse_i32+0x5e>
 8003e1c:	2301      	movs	r3, #1
 8003e1e:	e000      	b.n	8003e22 <parse_i32+0x60>
 8003e20:	2300      	movs	r3, #0
 8003e22:	75fb      	strb	r3, [r7, #23]
 8003e24:	7dfb      	ldrb	r3, [r7, #23]
 8003e26:	f003 0301 	and.w	r3, r3, #1
 8003e2a:	75fb      	strb	r3, [r7, #23]
  }

  if (out != NULL && ok) {
 8003e2c:	683b      	ldr	r3, [r7, #0]
 8003e2e:	2b00      	cmp	r3, #0
 8003e30:	d006      	beq.n	8003e40 <parse_i32+0x7e>
 8003e32:	7dfb      	ldrb	r3, [r7, #23]
 8003e34:	2b00      	cmp	r3, #0
 8003e36:	d003      	beq.n	8003e40 <parse_i32+0x7e>
    *out = (int32_t)tmp;
 8003e38:	e9d7 2302 	ldrd	r2, r3, [r7, #8]
 8003e3c:	683b      	ldr	r3, [r7, #0]
 8003e3e:	601a      	str	r2, [r3, #0]
  }

  return ok;
 8003e40:	7dfb      	ldrb	r3, [r7, #23]
}
 8003e42:	4618      	mov	r0, r3
 8003e44:	3718      	adds	r7, #24
 8003e46:	46bd      	mov	sp, r7
 8003e48:	bd80      	pop	{r7, pc}

08003e4a <is_dec_digit>:

/*=======================================================================================
 * Private Functions
 *=======================================================================================*/

static bool is_dec_digit(char c) {
 8003e4a:	b480      	push	{r7}
 8003e4c:	b083      	sub	sp, #12
 8003e4e:	af00      	add	r7, sp, #0
 8003e50:	4603      	mov	r3, r0
 8003e52:	71fb      	strb	r3, [r7, #7]
  return (c >= '0' && c <= '9');
 8003e54:	79fb      	ldrb	r3, [r7, #7]
 8003e56:	2b2f      	cmp	r3, #47	@ 0x2f
 8003e58:	d904      	bls.n	8003e64 <is_dec_digit+0x1a>
 8003e5a:	79fb      	ldrb	r3, [r7, #7]
 8003e5c:	2b39      	cmp	r3, #57	@ 0x39
 8003e5e:	d801      	bhi.n	8003e64 <is_dec_digit+0x1a>
 8003e60:	2301      	movs	r3, #1
 8003e62:	e000      	b.n	8003e66 <is_dec_digit+0x1c>
 8003e64:	2300      	movs	r3, #0
 8003e66:	f003 0301 	and.w	r3, r3, #1
 8003e6a:	b2db      	uxtb	r3, r3
}
 8003e6c:	4618      	mov	r0, r3
 8003e6e:	370c      	adds	r7, #12
 8003e70:	46bd      	mov	sp, r7
 8003e72:	bc80      	pop	{r7}
 8003e74:	4770      	bx	lr

08003e76 <dec_value>:

static bool is_hex_digit(char c) {
  return ((c >= '0' && c <= '9') || (c >= 'a' && c <= 'f') || (c >= 'A' && c <= 'F'));
}

static uint8_t dec_value(char c) {
 8003e76:	b480      	push	{r7}
 8003e78:	b083      	sub	sp, #12
 8003e7a:	af00      	add	r7, sp, #0
 8003e7c:	4603      	mov	r3, r0
 8003e7e:	71fb      	strb	r3, [r7, #7]
  return (uint8_t)((uint8_t)c - (uint8_t)'0');
 8003e80:	79fb      	ldrb	r3, [r7, #7]
 8003e82:	3b30      	subs	r3, #48	@ 0x30
 8003e84:	b2db      	uxtb	r3, r3
}
 8003e86:	4618      	mov	r0, r3
 8003e88:	370c      	adds	r7, #12
 8003e8a:	46bd      	mov	sp, r7
 8003e8c:	bc80      	pop	{r7}
 8003e8e:	4770      	bx	lr

08003e90 <__NVIC_SystemReset>:
/**
  \brief   System Reset
  \details Initiates a system reset request to reset the MCU.
 */
__NO_RETURN __STATIC_INLINE void __NVIC_SystemReset(void)
{
 8003e90:	b480      	push	{r7}
 8003e92:	af00      	add	r7, sp, #0
  \details Acts as a special kind of Data Memory Barrier.
           It completes when all explicit memory accesses before this instruction complete.
 */
__STATIC_FORCEINLINE void __DSB(void)
{
  __ASM volatile ("dsb 0xF":::"memory");
 8003e94:	f3bf 8f4f 	dsb	sy
}
 8003e98:	bf00      	nop
  __DSB();                                                          /* Ensure all outstanding memory accesses included
                                                                       buffered write are completed before reset */
  SCB->AIRCR  = (uint32_t)((0x5FAUL << SCB_AIRCR_VECTKEY_Pos)    |
                           (SCB->AIRCR & SCB_AIRCR_PRIGROUP_Msk) |
 8003e9a:	4b06      	ldr	r3, [pc, #24]	@ (8003eb4 <__NVIC_SystemReset+0x24>)
 8003e9c:	68db      	ldr	r3, [r3, #12]
 8003e9e:	f403 62e0 	and.w	r2, r3, #1792	@ 0x700
  SCB->AIRCR  = (uint32_t)((0x5FAUL << SCB_AIRCR_VECTKEY_Pos)    |
 8003ea2:	4904      	ldr	r1, [pc, #16]	@ (8003eb4 <__NVIC_SystemReset+0x24>)
 8003ea4:	4b04      	ldr	r3, [pc, #16]	@ (8003eb8 <__NVIC_SystemReset+0x28>)
 8003ea6:	4313      	orrs	r3, r2
 8003ea8:	60cb      	str	r3, [r1, #12]
  __ASM volatile ("dsb 0xF":::"memory");
 8003eaa:	f3bf 8f4f 	dsb	sy
}
 8003eae:	bf00      	nop
                            SCB_AIRCR_SYSRESETREQ_Msk    );         /* Keep priority group unchanged */
  __DSB();                                                          /* Ensure completion of memory access */

  for(;;)                                                           /* wait until reset */
  {
    __NOP();
 8003eb0:	bf00      	nop
 8003eb2:	e7fd      	b.n	8003eb0 <__NVIC_SystemReset+0x20>
 8003eb4:	e000ed00 	.word	0xe000ed00
 8003eb8:	05fa0004 	.word	0x05fa0004

08003ebc <cli_demo_setup>:
 * @brief Initialize and start the CLI demo session on the given UART.
 *
 * @param[in] huart STM32 HAL UART handle used by the transport.
 */

void cli_demo_setup(UART_HandleTypeDef *huart) {
 8003ebc:	b580      	push	{r7, lr}
 8003ebe:	b092      	sub	sp, #72	@ 0x48
 8003ec0:	af02      	add	r7, sp, #8
 8003ec2:	6078      	str	r0, [r7, #4]
  cli_platform_struct_t platform;
  cli_transport_struct_t transport;
  GPIO_InitTypeDef gpio_led = {0};
 8003ec4:	f107 030c 	add.w	r3, r7, #12
 8003ec8:	2200      	movs	r2, #0
 8003eca:	601a      	str	r2, [r3, #0]
 8003ecc:	605a      	str	r2, [r3, #4]
 8003ece:	609a      	str	r2, [r3, #8]
 8003ed0:	60da      	str	r2, [r3, #12]
  uint8_t can_setup = 1U;
 8003ed2:	2301      	movs	r3, #1
 8003ed4:	f887 303f 	strb.w	r3, [r7, #63]	@ 0x3f

  if (huart == NULL) {
 8003ed8:	687b      	ldr	r3, [r7, #4]
 8003eda:	2b00      	cmp	r3, #0
 8003edc:	d102      	bne.n	8003ee4 <cli_demo_setup+0x28>
    can_setup = 0U;
 8003ede:	2300      	movs	r3, #0
 8003ee0:	f887 303f 	strb.w	r3, [r7, #63]	@ 0x3f
  }

  if (can_setup == 1U) {
 8003ee4:	f897 303f 	ldrb.w	r3, [r7, #63]	@ 0x3f
 8003ee8:	2b01      	cmp	r3, #1
 8003eea:	d179      	bne.n	8003fe0 <cli_demo_setup+0x124>
    cli_demo_shutdown();
 8003eec:	f000 f8a2 	bl	8004034 <cli_demo_shutdown>

    /* Init on-board LED pin */
    __HAL_RCC_GPIOC_CLK_ENABLE();
 8003ef0:	4b3d      	ldr	r3, [pc, #244]	@ (8003fe8 <cli_demo_setup+0x12c>)
 8003ef2:	699b      	ldr	r3, [r3, #24]
 8003ef4:	4a3c      	ldr	r2, [pc, #240]	@ (8003fe8 <cli_demo_setup+0x12c>)
 8003ef6:	f043 0310 	orr.w	r3, r3, #16
 8003efa:	6193      	str	r3, [r2, #24]
 8003efc:	4b3a      	ldr	r3, [pc, #232]	@ (8003fe8 <cli_demo_setup+0x12c>)
 8003efe:	699b      	ldr	r3, [r3, #24]
 8003f00:	f003 0310 	and.w	r3, r3, #16
 8003f04:	60bb      	str	r3, [r7, #8]
 8003f06:	68bb      	ldr	r3, [r7, #8]
    gpio_led.Pin = LED_PIN;
 8003f08:	2320      	movs	r3, #32
 8003f0a:	60fb      	str	r3, [r7, #12]
    gpio_led.Mode = GPIO_MODE_OUTPUT_PP;
 8003f0c:	2301      	movs	r3, #1
 8003f0e:	613b      	str	r3, [r7, #16]
    gpio_led.Speed = GPIO_SPEED_FREQ_LOW;
 8003f10:	2302      	movs	r3, #2
 8003f12:	61bb      	str	r3, [r7, #24]
    HAL_GPIO_Init(LED_PORT, &gpio_led);
 8003f14:	f107 030c 	add.w	r3, r7, #12
 8003f18:	4619      	mov	r1, r3
 8003f1a:	4834      	ldr	r0, [pc, #208]	@ (8003fec <cli_demo_setup+0x130>)
 8003f1c:	f000 febe 	bl	8004c9c <HAL_GPIO_Init>
		
    memset(&platform, 0, sizeof(platform));
 8003f20:	f107 0334 	add.w	r3, r7, #52	@ 0x34
 8003f24:	2208      	movs	r2, #8
 8003f26:	2100      	movs	r1, #0
 8003f28:	4618      	mov	r0, r3
 8003f2a:	f001 ff74 	bl	8005e16 <memset>
    platform.now_sec = stm32_now_sec;
 8003f2e:	4b30      	ldr	r3, [pc, #192]	@ (8003ff0 <cli_demo_setup+0x134>)
 8003f30:	637b      	str	r3, [r7, #52]	@ 0x34
    platform.now_sec_ctx = NULL;
 8003f32:	2300      	movs	r3, #0
 8003f34:	63bb      	str	r3, [r7, #56]	@ 0x38

    cli_transport_serial_init(&transport, huart);
 8003f36:	f107 031c 	add.w	r3, r7, #28
 8003f3a:	6879      	ldr	r1, [r7, #4]
 8003f3c:	4618      	mov	r0, r3
 8003f3e:	f000 fae1 	bl	8004504 <cli_transport_serial_init>

    cli_init(&s_cli, "MCU", &transport, &platform, s_cmd_pool, sizeof(s_cmd_pool) / sizeof(s_cmd_pool[0]));
 8003f42:	f107 0334 	add.w	r3, r7, #52	@ 0x34
 8003f46:	f107 021c 	add.w	r2, r7, #28
 8003f4a:	2114      	movs	r1, #20
 8003f4c:	9101      	str	r1, [sp, #4]
 8003f4e:	4929      	ldr	r1, [pc, #164]	@ (8003ff4 <cli_demo_setup+0x138>)
 8003f50:	9100      	str	r1, [sp, #0]
 8003f52:	4929      	ldr	r1, [pc, #164]	@ (8003ff8 <cli_demo_setup+0x13c>)
 8003f54:	4829      	ldr	r0, [pc, #164]	@ (8003ffc <cli_demo_setup+0x140>)
 8003f56:	f7fc fd63 	bl	8000a20 <cli_init>
    cli_register_commands(&s_cli);
 8003f5a:	4828      	ldr	r0, [pc, #160]	@ (8003ffc <cli_demo_setup+0x140>)
 8003f5c:	f000 f9d6 	bl	800430c <cli_register_commands>
		
    cli_set_exit_root_policy(&s_cli, CLI_EXIT_ROOT_POLICY_RESET_SESSION);
 8003f60:	2101      	movs	r1, #1
 8003f62:	4826      	ldr	r0, [pc, #152]	@ (8003ffc <cli_demo_setup+0x140>)
 8003f64:	f7fd f872 	bl	800104c <cli_set_exit_root_policy>
    cli_set_quit_policy(&s_cli, CLI_QUIT_POLICY_RESET_SESSION);
 8003f68:	2101      	movs	r1, #1
 8003f6a:	4824      	ldr	r0, [pc, #144]	@ (8003ffc <cli_demo_setup+0x140>)
 8003f6c:	f7fd f880 	bl	8001070 <cli_set_quit_policy>

    s_session_id++;
 8003f70:	4b23      	ldr	r3, [pc, #140]	@ (8004000 <cli_demo_setup+0x144>)
 8003f72:	681b      	ldr	r3, [r3, #0]
 8003f74:	3301      	adds	r3, #1
 8003f76:	4a22      	ldr	r2, [pc, #136]	@ (8004000 <cli_demo_setup+0x144>)
 8003f78:	6013      	str	r3, [r2, #0]
    memset(&s_app, 0, sizeof(s_app));
 8003f7a:	220c      	movs	r2, #12
 8003f7c:	2100      	movs	r1, #0
 8003f7e:	4821      	ldr	r0, [pc, #132]	@ (8004004 <cli_demo_setup+0x148>)
 8003f80:	f001 ff49 	bl	8005e16 <memset>
    s_app.session_id = s_session_id;
 8003f84:	4b1e      	ldr	r3, [pc, #120]	@ (8004000 <cli_demo_setup+0x144>)
 8003f86:	681b      	ldr	r3, [r3, #0]
 8003f88:	4a1e      	ldr	r2, [pc, #120]	@ (8004004 <cli_demo_setup+0x148>)
 8003f8a:	6013      	str	r3, [r2, #0]
    s_app.rx_packets = 12345U;
 8003f8c:	4b1d      	ldr	r3, [pc, #116]	@ (8004004 <cli_demo_setup+0x148>)
 8003f8e:	f243 0239 	movw	r2, #12345	@ 0x3039
 8003f92:	605a      	str	r2, [r3, #4]
    s_app.tx_packets = 11000U;
 8003f94:	4b1b      	ldr	r3, [pc, #108]	@ (8004004 <cli_demo_setup+0x148>)
 8003f96:	f642 22f8 	movw	r2, #11000	@ 0x2af8
 8003f9a:	609a      	str	r2, [r3, #8]
    cli_set_userdata(&s_cli, &s_app);
 8003f9c:	4919      	ldr	r1, [pc, #100]	@ (8004004 <cli_demo_setup+0x148>)
 8003f9e:	4817      	ldr	r0, [pc, #92]	@ (8003ffc <cli_demo_setup+0x140>)
 8003fa0:	f7fc fe5e 	bl	8000c60 <cli_set_userdata>
		
#if CLI_ENABLE_BANNER
  cli_set_banner(&s_cli, CLI_DEMO_BANNER_SERIAL);
 8003fa4:	4918      	ldr	r1, [pc, #96]	@ (8004008 <cli_demo_setup+0x14c>)
 8003fa6:	4815      	ldr	r0, [pc, #84]	@ (8003ffc <cli_demo_setup+0x140>)
 8003fa8:	f7fc fe46 	bl	8000c38 <cli_set_banner>
#endif

#if CLI_ENABLE_AUTH
    cli_set_enable_secret(&s_cli, "cisco");
 8003fac:	4917      	ldr	r1, [pc, #92]	@ (800400c <cli_demo_setup+0x150>)
 8003fae:	4813      	ldr	r0, [pc, #76]	@ (8003ffc <cli_demo_setup+0x140>)
 8003fb0:	f7fd f830 	bl	8001014 <cli_set_enable_secret>
    cli_add_user(&s_cli, "admin", "admin", CLI_PRIV_PRIVILEGED);
 8003fb4:	230a      	movs	r3, #10
 8003fb6:	4a16      	ldr	r2, [pc, #88]	@ (8004010 <cli_demo_setup+0x154>)
 8003fb8:	4915      	ldr	r1, [pc, #84]	@ (8004010 <cli_demo_setup+0x154>)
 8003fba:	4810      	ldr	r0, [pc, #64]	@ (8003ffc <cli_demo_setup+0x140>)
 8003fbc:	f7fc fef8 	bl	8000db0 <cli_add_user>
    cli_require_authorization(&s_cli, true);
 8003fc0:	2101      	movs	r1, #1
 8003fc2:	480e      	ldr	r0, [pc, #56]	@ (8003ffc <cli_demo_setup+0x140>)
 8003fc4:	f7fc ff37 	bl	8000e36 <cli_require_authorization>
    cli_set_idle_timeout(&s_cli, 60);
 8003fc8:	213c      	movs	r1, #60	@ 0x3c
 8003fca:	480c      	ldr	r0, [pc, #48]	@ (8003ffc <cli_demo_setup+0x140>)
 8003fcc:	f7fc fe74 	bl	8000cb8 <cli_set_idle_timeout>
#endif

#if CLI_ENABLE_MODE_NAMES
    cli_set_mode_name(&s_cli, CLI_MODE_CONFIG, "config");
 8003fd0:	4a10      	ldr	r2, [pc, #64]	@ (8004014 <cli_demo_setup+0x158>)
 8003fd2:	2103      	movs	r1, #3
 8003fd4:	4809      	ldr	r0, [pc, #36]	@ (8003ffc <cli_demo_setup+0x140>)
 8003fd6:	f7fc fe54 	bl	8000c82 <cli_set_mode_name>
#endif

    cli_start(&s_cli);
 8003fda:	4808      	ldr	r0, [pc, #32]	@ (8003ffc <cli_demo_setup+0x140>)
 8003fdc:	f7fc fbd0 	bl	8000780 <cli_start>
  }
}
 8003fe0:	bf00      	nop
 8003fe2:	3740      	adds	r7, #64	@ 0x40
 8003fe4:	46bd      	mov	sp, r7
 8003fe6:	bd80      	pop	{r7, pc}
 8003fe8:	40021000 	.word	0x40021000
 8003fec:	40010800 	.word	0x40010800
 8003ff0:	080044e1 	.word	0x080044e1
 8003ff4:	200004c0 	.word	0x200004c0
 8003ff8:	08006c8c 	.word	0x08006c8c
 8003ffc:	20000084 	.word	0x20000084
 8004000:	20000c90 	.word	0x20000c90
 8004004:	20000078 	.word	0x20000078
 8004008:	08006c90 	.word	0x08006c90
 800400c:	08006d88 	.word	0x08006d88
 8004010:	08006d90 	.word	0x08006d90
 8004014:	08006d98 	.word	0x08006d98

08004018 <cli_demo_poll>:

/**
 * @brief Run one non-blocking service tick of the active CLI session.
 */

void cli_demo_poll(void) {
 8004018:	b580      	push	{r7, lr}
 800401a:	af00      	add	r7, sp, #0
  if (cli_session_engine(&s_cli) != CLI_OK) {
 800401c:	4804      	ldr	r0, [pc, #16]	@ (8004030 <cli_demo_poll+0x18>)
 800401e:	f7fc fbc1 	bl	80007a4 <cli_session_engine>
 8004022:	4603      	mov	r3, r0
 8004024:	2b00      	cmp	r3, #0
 8004026:	d001      	beq.n	800402c <cli_demo_poll+0x14>
    cli_demo_shutdown();
 8004028:	f000 f804 	bl	8004034 <cli_demo_shutdown>
  }
}
 800402c:	bf00      	nop
 800402e:	bd80      	pop	{r7, pc}
 8004030:	20000084 	.word	0x20000084

08004034 <cli_demo_shutdown>:

/**
 * @brief Shut down the active CLI session if running.
 */

void cli_demo_shutdown(void) {
 8004034:	b580      	push	{r7, lr}
 8004036:	af00      	add	r7, sp, #0
  cli_done(&s_cli);
 8004038:	4802      	ldr	r0, [pc, #8]	@ (8004044 <cli_demo_shutdown+0x10>)
 800403a:	f7fc fda7 	bl	8000b8c <cli_done>
}
 800403e:	bf00      	nop
 8004040:	bd80      	pop	{r7, pc}
 8004042:	bf00      	nop
 8004044:	20000084 	.word	0x20000084

08004048 <cmd_show_version>:

/**
 * @brief Demo command handler that prints library and platform info.
 */

static int8_t cmd_show_version(cli_struct_t *cli, const char *cmd, cli_argc_t argc, const char *argv[]) {
 8004048:	b580      	push	{r7, lr}
 800404a:	b084      	sub	sp, #16
 800404c:	af00      	add	r7, sp, #0
 800404e:	60f8      	str	r0, [r7, #12]
 8004050:	60b9      	str	r1, [r7, #8]
 8004052:	607a      	str	r2, [r7, #4]
 8004054:	603b      	str	r3, [r7, #0]
  (void)cmd;
  (void)argc;
  (void)argv;

  cli_println(cli, "OpenLibCLI Library version: %s", CLI_VERSION_STRING);
 8004056:	4a09      	ldr	r2, [pc, #36]	@ (800407c <cmd_show_version+0x34>)
 8004058:	4909      	ldr	r1, [pc, #36]	@ (8004080 <cmd_show_version+0x38>)
 800405a:	68f8      	ldr	r0, [r7, #12]
 800405c:	f7fd f81a 	bl	8001094 <cli_println_p>
  cli_println(cli, "Platforms   : Linux / macOS / Windows / Embedded");
 8004060:	4908      	ldr	r1, [pc, #32]	@ (8004084 <cmd_show_version+0x3c>)
 8004062:	68f8      	ldr	r0, [r7, #12]
 8004064:	f7fd f816 	bl	8001094 <cli_println_p>
  cli_println(cli, "Transports  : Telnet, TCP, UDP, Serial (UART, stdin/stdout), pipe");
 8004068:	4907      	ldr	r1, [pc, #28]	@ (8004088 <cmd_show_version+0x40>)
 800406a:	68f8      	ldr	r0, [r7, #12]
 800406c:	f7fd f812 	bl	8001094 <cli_println_p>
  return CLI_OK;
 8004070:	2300      	movs	r3, #0
}
 8004072:	4618      	mov	r0, r3
 8004074:	3710      	adds	r7, #16
 8004076:	46bd      	mov	sp, r7
 8004078:	bd80      	pop	{r7, pc}
 800407a:	bf00      	nop
 800407c:	08006da0 	.word	0x08006da0
 8004080:	08006da8 	.word	0x08006da8
 8004084:	08006dc8 	.word	0x08006dc8
 8004088:	08006dfc 	.word	0x08006dfc

0800408c <cmd_led>:

static int8_t cmd_led(cli_struct_t *cli, const char *cmd, cli_argc_t argc, const char *argv[]) {
 800408c:	b580      	push	{r7, lr}
 800408e:	b086      	sub	sp, #24
 8004090:	af00      	add	r7, sp, #0
 8004092:	60f8      	str	r0, [r7, #12]
 8004094:	60b9      	str	r1, [r7, #8]
 8004096:	607a      	str	r2, [r7, #4]
 8004098:	603b      	str	r3, [r7, #0]
  (void)cmd;
  int8_t rc = CLI_OK;
 800409a:	2300      	movs	r3, #0
 800409c:	75fb      	strb	r3, [r7, #23]

  if (argc < 2) {
 800409e:	687b      	ldr	r3, [r7, #4]
 80040a0:	2b01      	cmp	r3, #1
 80040a2:	dc06      	bgt.n	80040b2 <cmd_led+0x26>
    cli_error(cli, "Usage: led <on|off>");
 80040a4:	491d      	ldr	r1, [pc, #116]	@ (800411c <cmd_led+0x90>)
 80040a6:	68f8      	ldr	r0, [r7, #12]
 80040a8:	f7fd f85a 	bl	8001160 <cli_error_p>
    rc = CLI_ERR;
 80040ac:	23ff      	movs	r3, #255	@ 0xff
 80040ae:	75fb      	strb	r3, [r7, #23]
 80040b0:	e02d      	b.n	800410e <cmd_led+0x82>
  } else if (strcmp(argv[1], "on") == 0) {
 80040b2:	683b      	ldr	r3, [r7, #0]
 80040b4:	3304      	adds	r3, #4
 80040b6:	681b      	ldr	r3, [r3, #0]
 80040b8:	4919      	ldr	r1, [pc, #100]	@ (8004120 <cmd_led+0x94>)
 80040ba:	4618      	mov	r0, r3
 80040bc:	f7fc f846 	bl	800014c <strcmp>
 80040c0:	4603      	mov	r3, r0
 80040c2:	2b00      	cmp	r3, #0
 80040c4:	d109      	bne.n	80040da <cmd_led+0x4e>
    HAL_GPIO_WritePin(LED_PORT, LED_PIN, GPIO_PIN_SET);
 80040c6:	2201      	movs	r2, #1
 80040c8:	2120      	movs	r1, #32
 80040ca:	4816      	ldr	r0, [pc, #88]	@ (8004124 <cmd_led+0x98>)
 80040cc:	f000 ff6a 	bl	8004fa4 <HAL_GPIO_WritePin>
    cli_println(cli, "LED turned on");
 80040d0:	4915      	ldr	r1, [pc, #84]	@ (8004128 <cmd_led+0x9c>)
 80040d2:	68f8      	ldr	r0, [r7, #12]
 80040d4:	f7fc ffde 	bl	8001094 <cli_println_p>
 80040d8:	e019      	b.n	800410e <cmd_led+0x82>
  } else if (strcmp(argv[1], "off") == 0) {
 80040da:	683b      	ldr	r3, [r7, #0]
 80040dc:	3304      	adds	r3, #4
 80040de:	681b      	ldr	r3, [r3, #0]
 80040e0:	4912      	ldr	r1, [pc, #72]	@ (800412c <cmd_led+0xa0>)
 80040e2:	4618      	mov	r0, r3
 80040e4:	f7fc f832 	bl	800014c <strcmp>
 80040e8:	4603      	mov	r3, r0
 80040ea:	2b00      	cmp	r3, #0
 80040ec:	d109      	bne.n	8004102 <cmd_led+0x76>
    HAL_GPIO_WritePin(LED_PORT, LED_PIN, GPIO_PIN_RESET);
 80040ee:	2200      	movs	r2, #0
 80040f0:	2120      	movs	r1, #32
 80040f2:	480c      	ldr	r0, [pc, #48]	@ (8004124 <cmd_led+0x98>)
 80040f4:	f000 ff56 	bl	8004fa4 <HAL_GPIO_WritePin>
    cli_println(cli, "LED turned off");
 80040f8:	490d      	ldr	r1, [pc, #52]	@ (8004130 <cmd_led+0xa4>)
 80040fa:	68f8      	ldr	r0, [r7, #12]
 80040fc:	f7fc ffca 	bl	8001094 <cli_println_p>
 8004100:	e005      	b.n	800410e <cmd_led+0x82>
  } else {
    cli_error(cli, "Invalid state. Use 'on' or 'off'");
 8004102:	490c      	ldr	r1, [pc, #48]	@ (8004134 <cmd_led+0xa8>)
 8004104:	68f8      	ldr	r0, [r7, #12]
 8004106:	f7fd f82b 	bl	8001160 <cli_error_p>
    rc = CLI_ERR;
 800410a:	23ff      	movs	r3, #255	@ 0xff
 800410c:	75fb      	strb	r3, [r7, #23]
  }

  return rc;
 800410e:	f997 3017 	ldrsb.w	r3, [r7, #23]
}
 8004112:	4618      	mov	r0, r3
 8004114:	3718      	adds	r7, #24
 8004116:	46bd      	mov	sp, r7
 8004118:	bd80      	pop	{r7, pc}
 800411a:	bf00      	nop
 800411c:	08006e40 	.word	0x08006e40
 8004120:	08006e54 	.word	0x08006e54
 8004124:	40010800 	.word	0x40010800
 8004128:	08006e58 	.word	0x08006e58
 800412c:	08006e68 	.word	0x08006e68
 8004130:	08006e6c 	.word	0x08006e6c
 8004134:	08006e7c 	.word	0x08006e7c

08004138 <cmd_reboot>:

static int8_t cmd_reboot(cli_struct_t *cli, const char *cmd, cli_argc_t argc, const char *argv[]) {
 8004138:	b580      	push	{r7, lr}
 800413a:	b084      	sub	sp, #16
 800413c:	af00      	add	r7, sp, #0
 800413e:	60f8      	str	r0, [r7, #12]
 8004140:	60b9      	str	r1, [r7, #8]
 8004142:	607a      	str	r2, [r7, #4]
 8004144:	603b      	str	r3, [r7, #0]
  (void)argc;
  (void)argv;

//  int8_t rc = CLI_OK;
  
  cli_println(cli, "Resetting the system...");
 8004146:	4904      	ldr	r1, [pc, #16]	@ (8004158 <cmd_reboot+0x20>)
 8004148:	68f8      	ldr	r0, [r7, #12]
 800414a:	f7fc ffa3 	bl	8001094 <cli_println_p>
  HAL_Delay(100);
 800414e:	2064      	movs	r0, #100	@ 0x64
 8004150:	f000 fc9c 	bl	8004a8c <HAL_Delay>
  NVIC_SystemReset();
 8004154:	f7ff fe9c 	bl	8003e90 <__NVIC_SystemReset>
 8004158:	08006ea0 	.word	0x08006ea0

0800415c <cmd_calculator>:
  while (1) {}
  
//  return rc;
}

static int8_t cmd_calculator(cli_struct_t *cli, const char *cmd, cli_argc_t argc, const char *argv[]) {
 800415c:	b580      	push	{r7, lr}
 800415e:	b084      	sub	sp, #16
 8004160:	af00      	add	r7, sp, #0
 8004162:	60f8      	str	r0, [r7, #12]
 8004164:	60b9      	str	r1, [r7, #8]
 8004166:	607a      	str	r2, [r7, #4]
 8004168:	603b      	str	r3, [r7, #0]
  (void)cmd;
  (void)argc;
  (void)argv;
#if CLI_ENABLE_MODE_NAMES
  cli_set_mode_name(cli, APP_MODE_CALCULATOR, "");
 800416a:	4a09      	ldr	r2, [pc, #36]	@ (8004190 <cmd_calculator+0x34>)
 800416c:	2114      	movs	r1, #20
 800416e:	68f8      	ldr	r0, [r7, #12]
 8004170:	f7fc fd87 	bl	8000c82 <cli_set_mode_name>
  cli_set_mode_name(cli, APP_MODE_ARITHMETIC, "");
 8004174:	4a06      	ldr	r2, [pc, #24]	@ (8004190 <cmd_calculator+0x34>)
 8004176:	2115      	movs	r1, #21
 8004178:	68f8      	ldr	r0, [r7, #12]
 800417a:	f7fc fd82 	bl	8000c82 <cli_set_mode_name>
#endif
  cli_set_mode(cli, APP_MODE_CALCULATOR);
 800417e:	2114      	movs	r1, #20
 8004180:	68f8      	ldr	r0, [r7, #12]
 8004182:	f7fc feff 	bl	8000f84 <cli_set_mode>
  return CLI_OK;
 8004186:	2300      	movs	r3, #0
}
 8004188:	4618      	mov	r0, r3
 800418a:	3710      	adds	r7, #16
 800418c:	46bd      	mov	sp, r7
 800418e:	bd80      	pop	{r7, pc}
 8004190:	08006eb8 	.word	0x08006eb8

08004194 <cmd_arithmetic>:

static int8_t cmd_arithmetic(cli_struct_t *cli, const char *cmd, cli_argc_t argc, const char *argv[]) {
 8004194:	b580      	push	{r7, lr}
 8004196:	b084      	sub	sp, #16
 8004198:	af00      	add	r7, sp, #0
 800419a:	60f8      	str	r0, [r7, #12]
 800419c:	60b9      	str	r1, [r7, #8]
 800419e:	607a      	str	r2, [r7, #4]
 80041a0:	603b      	str	r3, [r7, #0]
  (void)cmd;
  (void)argc;
  (void)argv;
  cli_set_mode(cli, APP_MODE_ARITHMETIC);
 80041a2:	2115      	movs	r1, #21
 80041a4:	68f8      	ldr	r0, [r7, #12]
 80041a6:	f7fc feed 	bl	8000f84 <cli_set_mode>
  return CLI_OK;
 80041aa:	2300      	movs	r3, #0
}
 80041ac:	4618      	mov	r0, r3
 80041ae:	3710      	adds	r7, #16
 80041b0:	46bd      	mov	sp, r7
 80041b2:	bd80      	pop	{r7, pc}

080041b4 <cmd_add>:

static int8_t cmd_add(cli_struct_t *cli, const char *cmd, cli_argc_t argc, const char *argv[]) {
 80041b4:	b580      	push	{r7, lr}
 80041b6:	b088      	sub	sp, #32
 80041b8:	af00      	add	r7, sp, #0
 80041ba:	60f8      	str	r0, [r7, #12]
 80041bc:	60b9      	str	r1, [r7, #8]
 80041be:	607a      	str	r2, [r7, #4]
 80041c0:	603b      	str	r3, [r7, #0]
  (void)cmd;
  int8_t rc = CLI_ERR;
 80041c2:	23ff      	movs	r3, #255	@ 0xff
 80041c4:	77fb      	strb	r3, [r7, #31]

  if (argc < 3 || argc > 4) {
 80041c6:	687b      	ldr	r3, [r7, #4]
 80041c8:	2b02      	cmp	r3, #2
 80041ca:	dd02      	ble.n	80041d2 <cmd_add+0x1e>
 80041cc:	687b      	ldr	r3, [r7, #4]
 80041ce:	2b04      	cmp	r3, #4
 80041d0:	dd04      	ble.n	80041dc <cmd_add+0x28>
    cli_error(cli, "Usage: add <a> <b>  or  add <a> + <b>");
 80041d2:	491f      	ldr	r1, [pc, #124]	@ (8004250 <cmd_add+0x9c>)
 80041d4:	68f8      	ldr	r0, [r7, #12]
 80041d6:	f7fc ffc3 	bl	8001160 <cli_error_p>
 80041da:	e032      	b.n	8004242 <cmd_add+0x8e>
  } else if (argc == 4 && strcmp(argv[2], "+") != 0) {
 80041dc:	687b      	ldr	r3, [r7, #4]
 80041de:	2b04      	cmp	r3, #4
 80041e0:	d10e      	bne.n	8004200 <cmd_add+0x4c>
 80041e2:	683b      	ldr	r3, [r7, #0]
 80041e4:	3308      	adds	r3, #8
 80041e6:	681b      	ldr	r3, [r3, #0]
 80041e8:	491a      	ldr	r1, [pc, #104]	@ (8004254 <cmd_add+0xa0>)
 80041ea:	4618      	mov	r0, r3
 80041ec:	f7fb ffae 	bl	800014c <strcmp>
 80041f0:	4603      	mov	r3, r0
 80041f2:	2b00      	cmp	r3, #0
 80041f4:	d004      	beq.n	8004200 <cmd_add+0x4c>
    cli_error(cli, "Usage: add <a> + <b>");
 80041f6:	4918      	ldr	r1, [pc, #96]	@ (8004258 <cmd_add+0xa4>)
 80041f8:	68f8      	ldr	r0, [r7, #12]
 80041fa:	f7fc ffb1 	bl	8001160 <cli_error_p>
 80041fe:	e020      	b.n	8004242 <cmd_add+0x8e>
  } else {
    int32_t a;
    int32_t b;
		
#if CLI_PARSE_BACKEND == CLI_PARSE_BACKEND_HANDROLLED
    parse_i32(argv[1], &a);
 8004200:	683b      	ldr	r3, [r7, #0]
 8004202:	3304      	adds	r3, #4
 8004204:	681b      	ldr	r3, [r3, #0]
 8004206:	f107 0218 	add.w	r2, r7, #24
 800420a:	4611      	mov	r1, r2
 800420c:	4618      	mov	r0, r3
 800420e:	f7ff fdd8 	bl	8003dc2 <parse_i32>
    parse_i32((argc == 4) ? argv[3] : argv[2], &b);
 8004212:	687b      	ldr	r3, [r7, #4]
 8004214:	2b04      	cmp	r3, #4
 8004216:	d102      	bne.n	800421e <cmd_add+0x6a>
 8004218:	683b      	ldr	r3, [r7, #0]
 800421a:	68db      	ldr	r3, [r3, #12]
 800421c:	e001      	b.n	8004222 <cmd_add+0x6e>
 800421e:	683b      	ldr	r3, [r7, #0]
 8004220:	689b      	ldr	r3, [r3, #8]
 8004222:	f107 0214 	add.w	r2, r7, #20
 8004226:	4611      	mov	r1, r2
 8004228:	4618      	mov	r0, r3
 800422a:	f7ff fdca 	bl	8003dc2 <parse_i32>
#else
    cli_sscanf(argv[1], "%d", &a);
    cli_sscanf((argc == 4) ? argv[3] : argv[2], "%d", &b);
#endif
		
    cli_println(cli, "%d", a + b);
 800422e:	69ba      	ldr	r2, [r7, #24]
 8004230:	697b      	ldr	r3, [r7, #20]
 8004232:	4413      	add	r3, r2
 8004234:	461a      	mov	r2, r3
 8004236:	4909      	ldr	r1, [pc, #36]	@ (800425c <cmd_add+0xa8>)
 8004238:	68f8      	ldr	r0, [r7, #12]
 800423a:	f7fc ff2b 	bl	8001094 <cli_println_p>
    rc = CLI_OK;
 800423e:	2300      	movs	r3, #0
 8004240:	77fb      	strb	r3, [r7, #31]
  }

  return rc;
 8004242:	f997 301f 	ldrsb.w	r3, [r7, #31]
}
 8004246:	4618      	mov	r0, r3
 8004248:	3720      	adds	r7, #32
 800424a:	46bd      	mov	sp, r7
 800424c:	bd80      	pop	{r7, pc}
 800424e:	bf00      	nop
 8004250:	08006ebc 	.word	0x08006ebc
 8004254:	08006ee4 	.word	0x08006ee4
 8004258:	08006ee8 	.word	0x08006ee8
 800425c:	08006f00 	.word	0x08006f00

08004260 <cmd_sub>:

static int8_t cmd_sub(cli_struct_t *cli, const char *cmd, cli_argc_t argc, const char *argv[]) {
 8004260:	b580      	push	{r7, lr}
 8004262:	b088      	sub	sp, #32
 8004264:	af00      	add	r7, sp, #0
 8004266:	60f8      	str	r0, [r7, #12]
 8004268:	60b9      	str	r1, [r7, #8]
 800426a:	607a      	str	r2, [r7, #4]
 800426c:	603b      	str	r3, [r7, #0]
  (void)cmd;
  int8_t rc = CLI_ERR;
 800426e:	23ff      	movs	r3, #255	@ 0xff
 8004270:	77fb      	strb	r3, [r7, #31]

  if (argc < 3 || argc > 4) {
 8004272:	687b      	ldr	r3, [r7, #4]
 8004274:	2b02      	cmp	r3, #2
 8004276:	dd02      	ble.n	800427e <cmd_sub+0x1e>
 8004278:	687b      	ldr	r3, [r7, #4]
 800427a:	2b04      	cmp	r3, #4
 800427c:	dd04      	ble.n	8004288 <cmd_sub+0x28>
    cli_error(cli, "Usage: sub <a> <b>");
 800427e:	491f      	ldr	r1, [pc, #124]	@ (80042fc <cmd_sub+0x9c>)
 8004280:	68f8      	ldr	r0, [r7, #12]
 8004282:	f7fc ff6d 	bl	8001160 <cli_error_p>
 8004286:	e032      	b.n	80042ee <cmd_sub+0x8e>
  } else if (argc == 4 && strcmp(argv[2], "-") != 0) {
 8004288:	687b      	ldr	r3, [r7, #4]
 800428a:	2b04      	cmp	r3, #4
 800428c:	d10e      	bne.n	80042ac <cmd_sub+0x4c>
 800428e:	683b      	ldr	r3, [r7, #0]
 8004290:	3308      	adds	r3, #8
 8004292:	681b      	ldr	r3, [r3, #0]
 8004294:	491a      	ldr	r1, [pc, #104]	@ (8004300 <cmd_sub+0xa0>)
 8004296:	4618      	mov	r0, r3
 8004298:	f7fb ff58 	bl	800014c <strcmp>
 800429c:	4603      	mov	r3, r0
 800429e:	2b00      	cmp	r3, #0
 80042a0:	d004      	beq.n	80042ac <cmd_sub+0x4c>
    cli_error(cli, "Usage: sub <a> - <b>");
 80042a2:	4918      	ldr	r1, [pc, #96]	@ (8004304 <cmd_sub+0xa4>)
 80042a4:	68f8      	ldr	r0, [r7, #12]
 80042a6:	f7fc ff5b 	bl	8001160 <cli_error_p>
 80042aa:	e020      	b.n	80042ee <cmd_sub+0x8e>
  } else {
    int32_t a;
    int32_t b;
		
#if CLI_PARSE_BACKEND == CLI_PARSE_BACKEND_HANDROLLED
    parse_i32(argv[1], &a);
 80042ac:	683b      	ldr	r3, [r7, #0]
 80042ae:	3304      	adds	r3, #4
 80042b0:	681b      	ldr	r3, [r3, #0]
 80042b2:	f107 0218 	add.w	r2, r7, #24
 80042b6:	4611      	mov	r1, r2
 80042b8:	4618      	mov	r0, r3
 80042ba:	f7ff fd82 	bl	8003dc2 <parse_i32>
    parse_i32((argc == 4) ? argv[3] : argv[2], &b);
 80042be:	687b      	ldr	r3, [r7, #4]
 80042c0:	2b04      	cmp	r3, #4
 80042c2:	d102      	bne.n	80042ca <cmd_sub+0x6a>
 80042c4:	683b      	ldr	r3, [r7, #0]
 80042c6:	68db      	ldr	r3, [r3, #12]
 80042c8:	e001      	b.n	80042ce <cmd_sub+0x6e>
 80042ca:	683b      	ldr	r3, [r7, #0]
 80042cc:	689b      	ldr	r3, [r3, #8]
 80042ce:	f107 0214 	add.w	r2, r7, #20
 80042d2:	4611      	mov	r1, r2
 80042d4:	4618      	mov	r0, r3
 80042d6:	f7ff fd74 	bl	8003dc2 <parse_i32>
#else
    cli_sscanf(argv[1], "%d", &a);
    cli_sscanf((argc == 4) ? argv[3] : argv[2], "%d", &b);
#endif
		
    cli_println(cli, "%d", a - b);
 80042da:	69ba      	ldr	r2, [r7, #24]
 80042dc:	697b      	ldr	r3, [r7, #20]
 80042de:	1ad3      	subs	r3, r2, r3
 80042e0:	461a      	mov	r2, r3
 80042e2:	4909      	ldr	r1, [pc, #36]	@ (8004308 <cmd_sub+0xa8>)
 80042e4:	68f8      	ldr	r0, [r7, #12]
 80042e6:	f7fc fed5 	bl	8001094 <cli_println_p>
    rc = CLI_OK;
 80042ea:	2300      	movs	r3, #0
 80042ec:	77fb      	strb	r3, [r7, #31]
  }

  return rc;
 80042ee:	f997 301f 	ldrsb.w	r3, [r7, #31]
}
 80042f2:	4618      	mov	r0, r3
 80042f4:	3720      	adds	r7, #32
 80042f6:	46bd      	mov	sp, r7
 80042f8:	bd80      	pop	{r7, pc}
 80042fa:	bf00      	nop
 80042fc:	08006f04 	.word	0x08006f04
 8004300:	08006f18 	.word	0x08006f18
 8004304:	08006f1c 	.word	0x08006f1c
 8004308:	08006f00 	.word	0x08006f00

0800430c <cli_register_commands>:

/**
 * @brief Register all demo commands in the global command tree.
 */

static void cli_register_commands(cli_struct_t *cli) {
 800430c:	b580      	push	{r7, lr}
 800430e:	b08a      	sub	sp, #40	@ 0x28
 8004310:	af04      	add	r7, sp, #16
 8004312:	6078      	str	r0, [r7, #4]
  cli_cmd_handle_t h_clear;
  cli_cmd_handle_t h_show;
  cli_cmd_handle_t h_calc;
  cli_cmd_handle_t h_arith;

  cli_register_command(cli, CLI_CMD_ROOT, "exit", cli_cmd_builtin_exit, CLI_PRIV_USER, CLI_MODE_ANY,
 8004314:	4b4f      	ldr	r3, [pc, #316]	@ (8004454 <cli_register_commands+0x148>)
 8004316:	9302      	str	r3, [sp, #8]
 8004318:	2300      	movs	r3, #0
 800431a:	9301      	str	r3, [sp, #4]
 800431c:	2300      	movs	r3, #0
 800431e:	9300      	str	r3, [sp, #0]
 8004320:	4b4d      	ldr	r3, [pc, #308]	@ (8004458 <cli_register_commands+0x14c>)
 8004322:	4a4e      	ldr	r2, [pc, #312]	@ (800445c <cli_register_commands+0x150>)
 8004324:	f06f 0101 	mvn.w	r1, #1
 8004328:	6878      	ldr	r0, [r7, #4]
 800432a:	f7fc fd97 	bl	8000e5c <cli_add_command>
                  "Exit Context");
	
  cli_register_command(cli, CLI_CMD_ROOT, "help", cli_cmd_builtin_help, CLI_PRIV_USER, CLI_MODE_ANY,
 800432e:	4b4c      	ldr	r3, [pc, #304]	@ (8004460 <cli_register_commands+0x154>)
 8004330:	9302      	str	r3, [sp, #8]
 8004332:	2300      	movs	r3, #0
 8004334:	9301      	str	r3, [sp, #4]
 8004336:	2300      	movs	r3, #0
 8004338:	9300      	str	r3, [sp, #0]
 800433a:	4b4a      	ldr	r3, [pc, #296]	@ (8004464 <cli_register_commands+0x158>)
 800433c:	4a4a      	ldr	r2, [pc, #296]	@ (8004468 <cli_register_commands+0x15c>)
 800433e:	f06f 0101 	mvn.w	r1, #1
 8004342:	6878      	ldr	r0, [r7, #4]
 8004344:	f7fc fd8a 	bl	8000e5c <cli_add_command>
                  "Show commands");
#if CLI_ENABLE_HISTORY
  cli_register_command(cli, CLI_CMD_ROOT, "history", cli_cmd_builtin_history, CLI_PRIV_USER,
 8004348:	4b48      	ldr	r3, [pc, #288]	@ (800446c <cli_register_commands+0x160>)
 800434a:	9302      	str	r3, [sp, #8]
 800434c:	2300      	movs	r3, #0
 800434e:	9301      	str	r3, [sp, #4]
 8004350:	2300      	movs	r3, #0
 8004352:	9300      	str	r3, [sp, #0]
 8004354:	4b46      	ldr	r3, [pc, #280]	@ (8004470 <cli_register_commands+0x164>)
 8004356:	4a47      	ldr	r2, [pc, #284]	@ (8004474 <cli_register_commands+0x168>)
 8004358:	f06f 0101 	mvn.w	r1, #1
 800435c:	6878      	ldr	r0, [r7, #4]
 800435e:	f7fc fd7d 	bl	8000e5c <cli_add_command>
                  CLI_MODE_ANY, "Command history");
#endif

//>! Uncomment on ANSI/VT100 compatabile terminal like PuTTY
  h_clear = cli_register_command(cli, CLI_CMD_ROOT, "clear", cli_cmd_builtin_clear_screen,
 8004362:	4b45      	ldr	r3, [pc, #276]	@ (8004478 <cli_register_commands+0x16c>)
 8004364:	9302      	str	r3, [sp, #8]
 8004366:	2300      	movs	r3, #0
 8004368:	9301      	str	r3, [sp, #4]
 800436a:	2300      	movs	r3, #0
 800436c:	9300      	str	r3, [sp, #0]
 800436e:	4b43      	ldr	r3, [pc, #268]	@ (800447c <cli_register_commands+0x170>)
 8004370:	4a43      	ldr	r2, [pc, #268]	@ (8004480 <cli_register_commands+0x174>)
 8004372:	f06f 0101 	mvn.w	r1, #1
 8004376:	6878      	ldr	r0, [r7, #4]
 8004378:	f7fc fd70 	bl	8000e5c <cli_add_command>
 800437c:	6178      	str	r0, [r7, #20]

#if CLI_ENABLE_ALIASES
  cli_cmd_add_alias(cli, h_clear, "cls");
#endif
	
  h_show = cli_register_command(cli, CLI_CMD_ROOT, "show", NULL, CLI_PRIV_USER, CLI_MODE_ANY,
 800437e:	4b41      	ldr	r3, [pc, #260]	@ (8004484 <cli_register_commands+0x178>)
 8004380:	9302      	str	r3, [sp, #8]
 8004382:	2300      	movs	r3, #0
 8004384:	9301      	str	r3, [sp, #4]
 8004386:	2300      	movs	r3, #0
 8004388:	9300      	str	r3, [sp, #0]
 800438a:	2300      	movs	r3, #0
 800438c:	4a3e      	ldr	r2, [pc, #248]	@ (8004488 <cli_register_commands+0x17c>)
 800438e:	f06f 0101 	mvn.w	r1, #1
 8004392:	6878      	ldr	r0, [r7, #4]
 8004394:	f7fc fd62 	bl	8000e5c <cli_add_command>
 8004398:	6138      	str	r0, [r7, #16]
                                "Show info");

  cli_register_command(cli, h_show, "version", cmd_show_version, CLI_PRIV_USER, CLI_MODE_ANY,
 800439a:	4b3c      	ldr	r3, [pc, #240]	@ (800448c <cli_register_commands+0x180>)
 800439c:	9302      	str	r3, [sp, #8]
 800439e:	2300      	movs	r3, #0
 80043a0:	9301      	str	r3, [sp, #4]
 80043a2:	2300      	movs	r3, #0
 80043a4:	9300      	str	r3, [sp, #0]
 80043a6:	4b3a      	ldr	r3, [pc, #232]	@ (8004490 <cli_register_commands+0x184>)
 80043a8:	4a3a      	ldr	r2, [pc, #232]	@ (8004494 <cli_register_commands+0x188>)
 80043aa:	6939      	ldr	r1, [r7, #16]
 80043ac:	6878      	ldr	r0, [r7, #4]
 80043ae:	f7fc fd55 	bl	8000e5c <cli_add_command>
                       "Version");

  cli_register_command(cli, CLI_CMD_ROOT, "led", cmd_led, CLI_PRIV_USER, CLI_MODE_ANY,
 80043b2:	4b39      	ldr	r3, [pc, #228]	@ (8004498 <cli_register_commands+0x18c>)
 80043b4:	9302      	str	r3, [sp, #8]
 80043b6:	2300      	movs	r3, #0
 80043b8:	9301      	str	r3, [sp, #4]
 80043ba:	2300      	movs	r3, #0
 80043bc:	9300      	str	r3, [sp, #0]
 80043be:	4b37      	ldr	r3, [pc, #220]	@ (800449c <cli_register_commands+0x190>)
 80043c0:	4a37      	ldr	r2, [pc, #220]	@ (80044a0 <cli_register_commands+0x194>)
 80043c2:	f06f 0101 	mvn.w	r1, #1
 80043c6:	6878      	ldr	r0, [r7, #4]
 80043c8:	f7fc fd48 	bl	8000e5c <cli_add_command>
                       "Set LED state (on/off)");

  cli_register_command(cli, CLI_CMD_ROOT, "reboot", cmd_reboot, CLI_PRIV_USER, CLI_MODE_ANY,
 80043cc:	4b35      	ldr	r3, [pc, #212]	@ (80044a4 <cli_register_commands+0x198>)
 80043ce:	9302      	str	r3, [sp, #8]
 80043d0:	2300      	movs	r3, #0
 80043d2:	9301      	str	r3, [sp, #4]
 80043d4:	2300      	movs	r3, #0
 80043d6:	9300      	str	r3, [sp, #0]
 80043d8:	4b33      	ldr	r3, [pc, #204]	@ (80044a8 <cli_register_commands+0x19c>)
 80043da:	4a34      	ldr	r2, [pc, #208]	@ (80044ac <cli_register_commands+0x1a0>)
 80043dc:	f06f 0101 	mvn.w	r1, #1
 80043e0:	6878      	ldr	r0, [r7, #4]
 80043e2:	f7fc fd3b 	bl	8000e5c <cli_add_command>
                       "Reset the system");

  h_calc = cli_register_command(cli, CLI_CMD_ROOT, "calc", cmd_calculator, CLI_PRIV_USER,
 80043e6:	4b32      	ldr	r3, [pc, #200]	@ (80044b0 <cli_register_commands+0x1a4>)
 80043e8:	9302      	str	r3, [sp, #8]
 80043ea:	2300      	movs	r3, #0
 80043ec:	9301      	str	r3, [sp, #4]
 80043ee:	2300      	movs	r3, #0
 80043f0:	9300      	str	r3, [sp, #0]
 80043f2:	4b30      	ldr	r3, [pc, #192]	@ (80044b4 <cli_register_commands+0x1a8>)
 80043f4:	4a30      	ldr	r2, [pc, #192]	@ (80044b8 <cli_register_commands+0x1ac>)
 80043f6:	f06f 0101 	mvn.w	r1, #1
 80043fa:	6878      	ldr	r0, [r7, #4]
 80043fc:	f7fc fd2e 	bl	8000e5c <cli_add_command>
 8004400:	60f8      	str	r0, [r7, #12]
                                 CLI_MODE_ANY, "Enter calc menu");
  h_arith = cli_register_command(cli, h_calc, "arith", cmd_arithmetic, CLI_PRIV_USER,
 8004402:	4b2e      	ldr	r3, [pc, #184]	@ (80044bc <cli_register_commands+0x1b0>)
 8004404:	9302      	str	r3, [sp, #8]
 8004406:	2300      	movs	r3, #0
 8004408:	9301      	str	r3, [sp, #4]
 800440a:	2300      	movs	r3, #0
 800440c:	9300      	str	r3, [sp, #0]
 800440e:	4b2c      	ldr	r3, [pc, #176]	@ (80044c0 <cli_register_commands+0x1b4>)
 8004410:	4a2c      	ldr	r2, [pc, #176]	@ (80044c4 <cli_register_commands+0x1b8>)
 8004412:	68f9      	ldr	r1, [r7, #12]
 8004414:	6878      	ldr	r0, [r7, #4]
 8004416:	f7fc fd21 	bl	8000e5c <cli_add_command>
 800441a:	60b8      	str	r0, [r7, #8]
                                  CLI_MODE_ANY, "Enter arithmetic submenu");
  cli_register_command(cli, h_arith, "add", cmd_add, CLI_PRIV_USER, CLI_MODE_ANY,
 800441c:	4b2a      	ldr	r3, [pc, #168]	@ (80044c8 <cli_register_commands+0x1bc>)
 800441e:	9302      	str	r3, [sp, #8]
 8004420:	2300      	movs	r3, #0
 8004422:	9301      	str	r3, [sp, #4]
 8004424:	2300      	movs	r3, #0
 8004426:	9300      	str	r3, [sp, #0]
 8004428:	4b28      	ldr	r3, [pc, #160]	@ (80044cc <cli_register_commands+0x1c0>)
 800442a:	4a29      	ldr	r2, [pc, #164]	@ (80044d0 <cli_register_commands+0x1c4>)
 800442c:	68b9      	ldr	r1, [r7, #8]
 800442e:	6878      	ldr	r0, [r7, #4]
 8004430:	f7fc fd14 	bl	8000e5c <cli_add_command>
                       "Add two numbers (add <a> <b>)");
  cli_register_command(cli, h_arith, "sub", cmd_sub, CLI_PRIV_USER, CLI_MODE_ANY,
 8004434:	4b27      	ldr	r3, [pc, #156]	@ (80044d4 <cli_register_commands+0x1c8>)
 8004436:	9302      	str	r3, [sp, #8]
 8004438:	2300      	movs	r3, #0
 800443a:	9301      	str	r3, [sp, #4]
 800443c:	2300      	movs	r3, #0
 800443e:	9300      	str	r3, [sp, #0]
 8004440:	4b25      	ldr	r3, [pc, #148]	@ (80044d8 <cli_register_commands+0x1cc>)
 8004442:	4a26      	ldr	r2, [pc, #152]	@ (80044dc <cli_register_commands+0x1d0>)
 8004444:	68b9      	ldr	r1, [r7, #8]
 8004446:	6878      	ldr	r0, [r7, #4]
 8004448:	f7fc fd08 	bl	8000e5c <cli_add_command>
                       "Subtract two numbers (sub <a> <b>)");
}
 800444c:	bf00      	nop
 800444e:	3718      	adds	r7, #24
 8004450:	46bd      	mov	sp, r7
 8004452:	bd80      	pop	{r7, pc}
 8004454:	08006f3c 	.word	0x08006f3c
 8004458:	08000499 	.word	0x08000499
 800445c:	08006f34 	.word	0x08006f34
 8004460:	08006f54 	.word	0x08006f54
 8004464:	08000661 	.word	0x08000661
 8004468:	08006f4c 	.word	0x08006f4c
 800446c:	08006f6c 	.word	0x08006f6c
 8004470:	080005a1 	.word	0x080005a1
 8004474:	08006f64 	.word	0x08006f64
 8004478:	08006f84 	.word	0x08006f84
 800447c:	08000739 	.word	0x08000739
 8004480:	08006f7c 	.word	0x08006f7c
 8004484:	08006f9c 	.word	0x08006f9c
 8004488:	08006f94 	.word	0x08006f94
 800448c:	08006fb0 	.word	0x08006fb0
 8004490:	08004049 	.word	0x08004049
 8004494:	08006fa8 	.word	0x08006fa8
 8004498:	08006fbc 	.word	0x08006fbc
 800449c:	0800408d 	.word	0x0800408d
 80044a0:	08006fb8 	.word	0x08006fb8
 80044a4:	08006fdc 	.word	0x08006fdc
 80044a8:	08004139 	.word	0x08004139
 80044ac:	08006fd4 	.word	0x08006fd4
 80044b0:	08006ff8 	.word	0x08006ff8
 80044b4:	0800415d 	.word	0x0800415d
 80044b8:	08006ff0 	.word	0x08006ff0
 80044bc:	08007010 	.word	0x08007010
 80044c0:	08004195 	.word	0x08004195
 80044c4:	08007008 	.word	0x08007008
 80044c8:	08007030 	.word	0x08007030
 80044cc:	080041b5 	.word	0x080041b5
 80044d0:	0800702c 	.word	0x0800702c
 80044d4:	08007054 	.word	0x08007054
 80044d8:	08004261 	.word	0x08004261
 80044dc:	08007050 	.word	0x08007050

080044e0 <stm32_now_sec>:
 *
 * @param[in] ctx Unused context pointer.
 * @return Monotonic uptime in seconds.
 */

static uint32_t stm32_now_sec(void *ctx) {
 80044e0:	b580      	push	{r7, lr}
 80044e2:	b082      	sub	sp, #8
 80044e4:	af00      	add	r7, sp, #0
 80044e6:	6078      	str	r0, [r7, #4]
  (void)ctx;
  return HAL_GetTick() / 1000U;
 80044e8:	f000 fac6 	bl	8004a78 <HAL_GetTick>
 80044ec:	4603      	mov	r3, r0
 80044ee:	4a04      	ldr	r2, [pc, #16]	@ (8004500 <stm32_now_sec+0x20>)
 80044f0:	fba2 2303 	umull	r2, r3, r2, r3
 80044f4:	099b      	lsrs	r3, r3, #6
}
 80044f6:	4618      	mov	r0, r3
 80044f8:	3708      	adds	r7, #8
 80044fa:	46bd      	mov	sp, r7
 80044fc:	bd80      	pop	{r7, pc}
 80044fe:	bf00      	nop
 8004500:	10624dd3 	.word	0x10624dd3

08004504 <cli_transport_serial_init>:
 *
 * @param[out] transport CLI transport descriptor to initialize.
 * @param[in]  huart     STM32 HAL UART handle used for TX/RX operations.
 */

void cli_transport_serial_init(cli_transport_struct_t *transport, UART_HandleTypeDef *huart) {
 8004504:	b580      	push	{r7, lr}
 8004506:	b082      	sub	sp, #8
 8004508:	af00      	add	r7, sp, #0
 800450a:	6078      	str	r0, [r7, #4]
 800450c:	6039      	str	r1, [r7, #0]
  if ((transport != NULL) && (huart != NULL)) {
 800450e:	687b      	ldr	r3, [r7, #4]
 8004510:	2b00      	cmp	r3, #0
 8004512:	d019      	beq.n	8004548 <cli_transport_serial_init+0x44>
 8004514:	683b      	ldr	r3, [r7, #0]
 8004516:	2b00      	cmp	r3, #0
 8004518:	d016      	beq.n	8004548 <cli_transport_serial_init+0x44>
    memset(transport, 0, sizeof(*transport));
 800451a:	2218      	movs	r2, #24
 800451c:	2100      	movs	r1, #0
 800451e:	6878      	ldr	r0, [r7, #4]
 8004520:	f001 fc79 	bl	8005e16 <memset>
    transport->kind = CLI_TRANSPORT_SERIAL;
 8004524:	687b      	ldr	r3, [r7, #4]
 8004526:	2203      	movs	r2, #3
 8004528:	701a      	strb	r2, [r3, #0]
    transport->available = stm32_serial_available;
 800452a:	687b      	ldr	r3, [r7, #4]
 800452c:	4a08      	ldr	r2, [pc, #32]	@ (8004550 <cli_transport_serial_init+0x4c>)
 800452e:	605a      	str	r2, [r3, #4]
    transport->read = stm32_serial_read;
 8004530:	687b      	ldr	r3, [r7, #4]
 8004532:	4a08      	ldr	r2, [pc, #32]	@ (8004554 <cli_transport_serial_init+0x50>)
 8004534:	609a      	str	r2, [r3, #8]
    transport->write = stm32_serial_write;
 8004536:	687b      	ldr	r3, [r7, #4]
 8004538:	4a07      	ldr	r2, [pc, #28]	@ (8004558 <cli_transport_serial_init+0x54>)
 800453a:	60da      	str	r2, [r3, #12]
    transport->flush = stm32_serial_flush;
 800453c:	687b      	ldr	r3, [r7, #4]
 800453e:	4a07      	ldr	r2, [pc, #28]	@ (800455c <cli_transport_serial_init+0x58>)
 8004540:	611a      	str	r2, [r3, #16]
    transport->ctx = (void *)huart;
 8004542:	687b      	ldr	r3, [r7, #4]
 8004544:	683a      	ldr	r2, [r7, #0]
 8004546:	615a      	str	r2, [r3, #20]
  }
}
 8004548:	bf00      	nop
 800454a:	3708      	adds	r7, #8
 800454c:	46bd      	mov	sp, r7
 800454e:	bd80      	pop	{r7, pc}
 8004550:	08004561 	.word	0x08004561
 8004554:	080045cd 	.word	0x080045cd
 8004558:	08004625 	.word	0x08004625
 800455c:	08004679 	.word	0x08004679

08004560 <stm32_serial_available>:
 *
 * @param[in] ctx Opaque transport context (UART handle).
 * @return Positive when a byte is ready, zero for no data, or CLI_ERR on failure.
 */

static cli_transport_ret_t stm32_serial_available(void *ctx) {
 8004560:	b580      	push	{r7, lr}
 8004562:	b086      	sub	sp, #24
 8004564:	af00      	add	r7, sp, #0
 8004566:	6078      	str	r0, [r7, #4]
  UART_HandleTypeDef *huart = (UART_HandleTypeDef *)ctx;
 8004568:	687b      	ldr	r3, [r7, #4]
 800456a:	613b      	str	r3, [r7, #16]
  cli_transport_ret_t rc = 0;
 800456c:	2300      	movs	r3, #0
 800456e:	617b      	str	r3, [r7, #20]

  if (huart == NULL) {
 8004570:	693b      	ldr	r3, [r7, #16]
 8004572:	2b00      	cmp	r3, #0
 8004574:	d103      	bne.n	800457e <stm32_serial_available+0x1e>
    rc = CLI_ERR;
 8004576:	f04f 33ff 	mov.w	r3, #4294967295
 800457a:	617b      	str	r3, [r7, #20]
 800457c:	e01d      	b.n	80045ba <stm32_serial_available+0x5a>
  } else if (s_stm32_pending_valid) {
 800457e:	4b11      	ldr	r3, [pc, #68]	@ (80045c4 <stm32_serial_available+0x64>)
 8004580:	781b      	ldrb	r3, [r3, #0]
 8004582:	2b00      	cmp	r3, #0
 8004584:	d002      	beq.n	800458c <stm32_serial_available+0x2c>
    rc = 1;
 8004586:	2301      	movs	r3, #1
 8004588:	617b      	str	r3, [r7, #20]
 800458a:	e016      	b.n	80045ba <stm32_serial_available+0x5a>
  } else {
    HAL_StatusTypeDef st = HAL_UART_Receive(huart, &s_stm32_pending_byte, 1U, 0U);
 800458c:	2300      	movs	r3, #0
 800458e:	2201      	movs	r2, #1
 8004590:	490d      	ldr	r1, [pc, #52]	@ (80045c8 <stm32_serial_available+0x68>)
 8004592:	6938      	ldr	r0, [r7, #16]
 8004594:	f001 fa09 	bl	80059aa <HAL_UART_Receive>
 8004598:	4603      	mov	r3, r0
 800459a:	73fb      	strb	r3, [r7, #15]
    if (st == HAL_OK) {
 800459c:	7bfb      	ldrb	r3, [r7, #15]
 800459e:	2b00      	cmp	r3, #0
 80045a0:	d105      	bne.n	80045ae <stm32_serial_available+0x4e>
      s_stm32_pending_valid = 1U;
 80045a2:	4b08      	ldr	r3, [pc, #32]	@ (80045c4 <stm32_serial_available+0x64>)
 80045a4:	2201      	movs	r2, #1
 80045a6:	701a      	strb	r2, [r3, #0]
      rc = 1;
 80045a8:	2301      	movs	r3, #1
 80045aa:	617b      	str	r3, [r7, #20]
 80045ac:	e005      	b.n	80045ba <stm32_serial_available+0x5a>
    } else if (st != HAL_TIMEOUT) {
 80045ae:	7bfb      	ldrb	r3, [r7, #15]
 80045b0:	2b03      	cmp	r3, #3
 80045b2:	d002      	beq.n	80045ba <stm32_serial_available+0x5a>
      rc = CLI_ERR;
 80045b4:	f04f 33ff 	mov.w	r3, #4294967295
 80045b8:	617b      	str	r3, [r7, #20]
    }
  }

  return rc;
 80045ba:	697b      	ldr	r3, [r7, #20]
}
 80045bc:	4618      	mov	r0, r3
 80045be:	3718      	adds	r7, #24
 80045c0:	46bd      	mov	sp, r7
 80045c2:	bd80      	pop	{r7, pc}
 80045c4:	20000c95 	.word	0x20000c95
 80045c8:	20000c94 	.word	0x20000c94

080045cc <stm32_serial_read>:
 *
 * @param[in] ctx Opaque transport context (UART handle).
 * @return Byte value 0..255, or CLI_ERR on failure/no data.
 */

static cli_transport_ret_t stm32_serial_read(void *ctx) {
 80045cc:	b580      	push	{r7, lr}
 80045ce:	b086      	sub	sp, #24
 80045d0:	af00      	add	r7, sp, #0
 80045d2:	6078      	str	r0, [r7, #4]
  UART_HandleTypeDef *huart = (UART_HandleTypeDef *)ctx;
 80045d4:	687b      	ldr	r3, [r7, #4]
 80045d6:	613b      	str	r3, [r7, #16]
  cli_transport_ret_t rc = CLI_ERR;
 80045d8:	f04f 33ff 	mov.w	r3, #4294967295
 80045dc:	617b      	str	r3, [r7, #20]
  uint8_t byte;

  if (huart != NULL) {
 80045de:	693b      	ldr	r3, [r7, #16]
 80045e0:	2b00      	cmp	r3, #0
 80045e2:	d016      	beq.n	8004612 <stm32_serial_read+0x46>
    if (s_stm32_pending_valid) {
 80045e4:	4b0d      	ldr	r3, [pc, #52]	@ (800461c <stm32_serial_read+0x50>)
 80045e6:	781b      	ldrb	r3, [r3, #0]
 80045e8:	2b00      	cmp	r3, #0
 80045ea:	d006      	beq.n	80045fa <stm32_serial_read+0x2e>
      s_stm32_pending_valid = 0U;
 80045ec:	4b0b      	ldr	r3, [pc, #44]	@ (800461c <stm32_serial_read+0x50>)
 80045ee:	2200      	movs	r2, #0
 80045f0:	701a      	strb	r2, [r3, #0]
      rc = s_stm32_pending_byte;
 80045f2:	4b0b      	ldr	r3, [pc, #44]	@ (8004620 <stm32_serial_read+0x54>)
 80045f4:	781b      	ldrb	r3, [r3, #0]
 80045f6:	617b      	str	r3, [r7, #20]
 80045f8:	e00b      	b.n	8004612 <stm32_serial_read+0x46>
    } else if (HAL_UART_Receive(huart, &byte, 1U, 0U) == HAL_OK) {
 80045fa:	f107 010f 	add.w	r1, r7, #15
 80045fe:	2300      	movs	r3, #0
 8004600:	2201      	movs	r2, #1
 8004602:	6938      	ldr	r0, [r7, #16]
 8004604:	f001 f9d1 	bl	80059aa <HAL_UART_Receive>
 8004608:	4603      	mov	r3, r0
 800460a:	2b00      	cmp	r3, #0
 800460c:	d101      	bne.n	8004612 <stm32_serial_read+0x46>
      rc = byte;
 800460e:	7bfb      	ldrb	r3, [r7, #15]
 8004610:	617b      	str	r3, [r7, #20]
    }
  }

  return rc;
 8004612:	697b      	ldr	r3, [r7, #20]
}
 8004614:	4618      	mov	r0, r3
 8004616:	3718      	adds	r7, #24
 8004618:	46bd      	mov	sp, r7
 800461a:	bd80      	pop	{r7, pc}
 800461c:	20000c95 	.word	0x20000c95
 8004620:	20000c94 	.word	0x20000c94

08004624 <stm32_serial_write>:
 * @param[in] buf Source byte buffer.
 * @param[in] len Number of bytes to transmit.
 * @return Bytes written on success, or CLI_ERR on failure.
 */

static cli_transport_ret_t stm32_serial_write(void *ctx, const uint8_t *buf, cli_transport_buflen_t len) {
 8004624:	b580      	push	{r7, lr}
 8004626:	b086      	sub	sp, #24
 8004628:	af00      	add	r7, sp, #0
 800462a:	60f8      	str	r0, [r7, #12]
 800462c:	60b9      	str	r1, [r7, #8]
 800462e:	607a      	str	r2, [r7, #4]
  UART_HandleTypeDef *huart = (UART_HandleTypeDef *)ctx;
 8004630:	68fb      	ldr	r3, [r7, #12]
 8004632:	613b      	str	r3, [r7, #16]
  cli_transport_ret_t rc = len;
 8004634:	687b      	ldr	r3, [r7, #4]
 8004636:	617b      	str	r3, [r7, #20]

  if ((huart == NULL) || (buf == NULL) || (len == 0)) {
 8004638:	693b      	ldr	r3, [r7, #16]
 800463a:	2b00      	cmp	r3, #0
 800463c:	d005      	beq.n	800464a <stm32_serial_write+0x26>
 800463e:	68bb      	ldr	r3, [r7, #8]
 8004640:	2b00      	cmp	r3, #0
 8004642:	d002      	beq.n	800464a <stm32_serial_write+0x26>
 8004644:	687b      	ldr	r3, [r7, #4]
 8004646:	2b00      	cmp	r3, #0
 8004648:	d103      	bne.n	8004652 <stm32_serial_write+0x2e>
    rc = CLI_ERR;
 800464a:	f04f 33ff 	mov.w	r3, #4294967295
 800464e:	617b      	str	r3, [r7, #20]
 8004650:	e00d      	b.n	800466e <stm32_serial_write+0x4a>
  } else {
    if (HAL_UART_Transmit(huart, (uint8_t *)buf, len, 1000U) != HAL_OK) {
 8004652:	687b      	ldr	r3, [r7, #4]
 8004654:	b29a      	uxth	r2, r3
 8004656:	f44f 737a 	mov.w	r3, #1000	@ 0x3e8
 800465a:	68b9      	ldr	r1, [r7, #8]
 800465c:	6938      	ldr	r0, [r7, #16]
 800465e:	f001 f919 	bl	8005894 <HAL_UART_Transmit>
 8004662:	4603      	mov	r3, r0
 8004664:	2b00      	cmp	r3, #0
 8004666:	d002      	beq.n	800466e <stm32_serial_write+0x4a>
      rc = CLI_ERR;
 8004668:	f04f 33ff 	mov.w	r3, #4294967295
 800466c:	617b      	str	r3, [r7, #20]
    }
  }

  return rc;
 800466e:	697b      	ldr	r3, [r7, #20]
}
 8004670:	4618      	mov	r0, r3
 8004672:	3718      	adds	r7, #24
 8004674:	46bd      	mov	sp, r7
 8004676:	bd80      	pop	{r7, pc}

08004678 <stm32_serial_flush>:
 *
 * @param[in] ctx Opaque transport context.
 * @return CLI_OK always.
 */

static cli_transport_ret_t stm32_serial_flush(void *ctx) {
 8004678:	b480      	push	{r7}
 800467a:	b083      	sub	sp, #12
 800467c:	af00      	add	r7, sp, #0
 800467e:	6078      	str	r0, [r7, #4]
  (void)ctx;
  return CLI_OK;
 8004680:	2300      	movs	r3, #0
}
 8004682:	4618      	mov	r0, r3
 8004684:	370c      	adds	r7, #12
 8004686:	46bd      	mov	sp, r7
 8004688:	bc80      	pop	{r7}
 800468a:	4770      	bx	lr

0800468c <main>:
/**
  * @brief  The application entry point.
  * @retval int
  */
int main(void)
{
 800468c:	b580      	push	{r7, lr}
 800468e:	af00      	add	r7, sp, #0
  /* USER CODE END 1 */

  /* MCU Configuration--------------------------------------------------------*/

  /* Reset of all peripherals, Initializes the Flash interface and the Systick. */
  HAL_Init();
 8004690:	f000 f99a 	bl	80049c8 <HAL_Init>
  /* USER CODE BEGIN Init */

  /* USER CODE END Init */

  /* Configure the system clock */
  SystemClock_Config();
 8004694:	f000 f80c 	bl	80046b0 <SystemClock_Config>
  /* USER CODE BEGIN SysInit */

  /* USER CODE END SysInit */

  /* Initialize all configured peripherals */
  MX_GPIO_Init();
 8004698:	f000 f870 	bl	800477c <MX_GPIO_Init>
  MX_USART2_UART_Init();
 800469c:	f000 f844 	bl	8004728 <MX_USART2_UART_Init>
  /* USER CODE BEGIN 2 */

  cli_demo_setup(&huart2);
 80046a0:	4802      	ldr	r0, [pc, #8]	@ (80046ac <main+0x20>)
 80046a2:	f7ff fc0b 	bl	8003ebc <cli_demo_setup>
  while (1)
  {
    /* USER CODE END WHILE */

    /* USER CODE BEGIN 3 */
    cli_demo_poll();
 80046a6:	f7ff fcb7 	bl	8004018 <cli_demo_poll>
 80046aa:	e7fc      	b.n	80046a6 <main+0x1a>
 80046ac:	20000c98 	.word	0x20000c98

080046b0 <SystemClock_Config>:
/**
  * @brief System Clock Configuration
  * @retval None
  */
void SystemClock_Config(void)
{
 80046b0:	b580      	push	{r7, lr}
 80046b2:	b090      	sub	sp, #64	@ 0x40
 80046b4:	af00      	add	r7, sp, #0
  RCC_OscInitTypeDef RCC_OscInitStruct = {0};
 80046b6:	f107 0318 	add.w	r3, r7, #24
 80046ba:	2228      	movs	r2, #40	@ 0x28
 80046bc:	2100      	movs	r1, #0
 80046be:	4618      	mov	r0, r3
 80046c0:	f001 fba9 	bl	8005e16 <memset>
  RCC_ClkInitTypeDef RCC_ClkInitStruct = {0};
 80046c4:	1d3b      	adds	r3, r7, #4
 80046c6:	2200      	movs	r2, #0
 80046c8:	601a      	str	r2, [r3, #0]
 80046ca:	605a      	str	r2, [r3, #4]
 80046cc:	609a      	str	r2, [r3, #8]
 80046ce:	60da      	str	r2, [r3, #12]
 80046d0:	611a      	str	r2, [r3, #16]

  /** Initializes the RCC Oscillators according to the specified parameters
  * in the RCC_OscInitTypeDef structure.
  */
  RCC_OscInitStruct.OscillatorType = RCC_OSCILLATORTYPE_HSI;
 80046d2:	2302      	movs	r3, #2
 80046d4:	61bb      	str	r3, [r7, #24]
  RCC_OscInitStruct.HSIState = RCC_HSI_ON;
 80046d6:	2301      	movs	r3, #1
 80046d8:	62bb      	str	r3, [r7, #40]	@ 0x28
  RCC_OscInitStruct.HSICalibrationValue = RCC_HSICALIBRATION_DEFAULT;
 80046da:	2310      	movs	r3, #16
 80046dc:	62fb      	str	r3, [r7, #44]	@ 0x2c
  RCC_OscInitStruct.PLL.PLLState = RCC_PLL_NONE;
 80046de:	2300      	movs	r3, #0
 80046e0:	637b      	str	r3, [r7, #52]	@ 0x34
  if (HAL_RCC_OscConfig(&RCC_OscInitStruct) != HAL_OK)
 80046e2:	f107 0318 	add.w	r3, r7, #24
 80046e6:	4618      	mov	r0, r3
 80046e8:	f000 fc74 	bl	8004fd4 <HAL_RCC_OscConfig>
 80046ec:	4603      	mov	r3, r0
 80046ee:	2b00      	cmp	r3, #0
 80046f0:	d001      	beq.n	80046f6 <SystemClock_Config+0x46>
  {
    Error_Handler();
 80046f2:	f000 f859 	bl	80047a8 <Error_Handler>
  }

  /** Initializes the CPU, AHB and APB buses clocks
  */
  RCC_ClkInitStruct.ClockType = RCC_CLOCKTYPE_HCLK|RCC_CLOCKTYPE_SYSCLK
 80046f6:	230f      	movs	r3, #15
 80046f8:	607b      	str	r3, [r7, #4]
                              |RCC_CLOCKTYPE_PCLK1|RCC_CLOCKTYPE_PCLK2;
  RCC_ClkInitStruct.SYSCLKSource = RCC_SYSCLKSOURCE_HSI;
 80046fa:	2300      	movs	r3, #0
 80046fc:	60bb      	str	r3, [r7, #8]
  RCC_ClkInitStruct.AHBCLKDivider = RCC_SYSCLK_DIV1;
 80046fe:	2300      	movs	r3, #0
 8004700:	60fb      	str	r3, [r7, #12]
  RCC_ClkInitStruct.APB1CLKDivider = RCC_HCLK_DIV1;
 8004702:	2300      	movs	r3, #0
 8004704:	613b      	str	r3, [r7, #16]
  RCC_ClkInitStruct.APB2CLKDivider = RCC_HCLK_DIV1;
 8004706:	2300      	movs	r3, #0
 8004708:	617b      	str	r3, [r7, #20]

  if (HAL_RCC_ClockConfig(&RCC_ClkInitStruct, FLASH_LATENCY_0) != HAL_OK)
 800470a:	1d3b      	adds	r3, r7, #4
 800470c:	2100      	movs	r1, #0
 800470e:	4618      	mov	r0, r3
 8004710:	f000 fee2 	bl	80054d8 <HAL_RCC_ClockConfig>
 8004714:	4603      	mov	r3, r0
 8004716:	2b00      	cmp	r3, #0
 8004718:	d001      	beq.n	800471e <SystemClock_Config+0x6e>
  {
    Error_Handler();
 800471a:	f000 f845 	bl	80047a8 <Error_Handler>
  }
}
 800471e:	bf00      	nop
 8004720:	3740      	adds	r7, #64	@ 0x40
 8004722:	46bd      	mov	sp, r7
 8004724:	bd80      	pop	{r7, pc}
	...

08004728 <MX_USART2_UART_Init>:
  * @brief USART2 Initialization Function
  * @param None
  * @retval None
  */
static void MX_USART2_UART_Init(void)
{
 8004728:	b580      	push	{r7, lr}
 800472a:	af00      	add	r7, sp, #0
  /* USER CODE END USART2_Init 0 */

  /* USER CODE BEGIN USART2_Init 1 */

  /* USER CODE END USART2_Init 1 */
  huart2.Instance = USART2;
 800472c:	4b11      	ldr	r3, [pc, #68]	@ (8004774 <MX_USART2_UART_Init+0x4c>)
 800472e:	4a12      	ldr	r2, [pc, #72]	@ (8004778 <MX_USART2_UART_Init+0x50>)
 8004730:	601a      	str	r2, [r3, #0]
  huart2.Init.BaudRate = 115200;
 8004732:	4b10      	ldr	r3, [pc, #64]	@ (8004774 <MX_USART2_UART_Init+0x4c>)
 8004734:	f44f 32e1 	mov.w	r2, #115200	@ 0x1c200
 8004738:	605a      	str	r2, [r3, #4]
  huart2.Init.WordLength = UART_WORDLENGTH_8B;
 800473a:	4b0e      	ldr	r3, [pc, #56]	@ (8004774 <MX_USART2_UART_Init+0x4c>)
 800473c:	2200      	movs	r2, #0
 800473e:	609a      	str	r2, [r3, #8]
  huart2.Init.StopBits = UART_STOPBITS_1;
 8004740:	4b0c      	ldr	r3, [pc, #48]	@ (8004774 <MX_USART2_UART_Init+0x4c>)
 8004742:	2200      	movs	r2, #0
 8004744:	60da      	str	r2, [r3, #12]
  huart2.Init.Parity = UART_PARITY_NONE;
 8004746:	4b0b      	ldr	r3, [pc, #44]	@ (8004774 <MX_USART2_UART_Init+0x4c>)
 8004748:	2200      	movs	r2, #0
 800474a:	611a      	str	r2, [r3, #16]
  huart2.Init.Mode = UART_MODE_TX_RX;
 800474c:	4b09      	ldr	r3, [pc, #36]	@ (8004774 <MX_USART2_UART_Init+0x4c>)
 800474e:	220c      	movs	r2, #12
 8004750:	615a      	str	r2, [r3, #20]
  huart2.Init.HwFlowCtl = UART_HWCONTROL_NONE;
 8004752:	4b08      	ldr	r3, [pc, #32]	@ (8004774 <MX_USART2_UART_Init+0x4c>)
 8004754:	2200      	movs	r2, #0
 8004756:	619a      	str	r2, [r3, #24]
  huart2.Init.OverSampling = UART_OVERSAMPLING_16;
 8004758:	4b06      	ldr	r3, [pc, #24]	@ (8004774 <MX_USART2_UART_Init+0x4c>)
 800475a:	2200      	movs	r2, #0
 800475c:	61da      	str	r2, [r3, #28]
  if (HAL_UART_Init(&huart2) != HAL_OK)
 800475e:	4805      	ldr	r0, [pc, #20]	@ (8004774 <MX_USART2_UART_Init+0x4c>)
 8004760:	f001 f848 	bl	80057f4 <HAL_UART_Init>
 8004764:	4603      	mov	r3, r0
 8004766:	2b00      	cmp	r3, #0
 8004768:	d001      	beq.n	800476e <MX_USART2_UART_Init+0x46>
  {
    Error_Handler();
 800476a:	f000 f81d 	bl	80047a8 <Error_Handler>
  }
  /* USER CODE BEGIN USART2_Init 2 */

  /* USER CODE END USART2_Init 2 */

}
 800476e:	bf00      	nop
 8004770:	bd80      	pop	{r7, pc}
 8004772:	bf00      	nop
 8004774:	20000c98 	.word	0x20000c98
 8004778:	40004400 	.word	0x40004400

0800477c <MX_GPIO_Init>:
  * @brief GPIO Initialization Function
  * @param None
  * @retval None
  */
static void MX_GPIO_Init(void)
{
 800477c:	b480      	push	{r7}
 800477e:	b083      	sub	sp, #12
 8004780:	af00      	add	r7, sp, #0
  /* USER CODE BEGIN MX_GPIO_Init_1 */

  /* USER CODE END MX_GPIO_Init_1 */

  /* GPIO Ports Clock Enable */
  __HAL_RCC_GPIOA_CLK_ENABLE();
 8004782:	4b08      	ldr	r3, [pc, #32]	@ (80047a4 <MX_GPIO_Init+0x28>)
 8004784:	699b      	ldr	r3, [r3, #24]
 8004786:	4a07      	ldr	r2, [pc, #28]	@ (80047a4 <MX_GPIO_Init+0x28>)
 8004788:	f043 0304 	orr.w	r3, r3, #4
 800478c:	6193      	str	r3, [r2, #24]
 800478e:	4b05      	ldr	r3, [pc, #20]	@ (80047a4 <MX_GPIO_Init+0x28>)
 8004790:	699b      	ldr	r3, [r3, #24]
 8004792:	f003 0304 	and.w	r3, r3, #4
 8004796:	607b      	str	r3, [r7, #4]
 8004798:	687b      	ldr	r3, [r7, #4]

  /* USER CODE BEGIN MX_GPIO_Init_2 */

  /* USER CODE END MX_GPIO_Init_2 */
}
 800479a:	bf00      	nop
 800479c:	370c      	adds	r7, #12
 800479e:	46bd      	mov	sp, r7
 80047a0:	bc80      	pop	{r7}
 80047a2:	4770      	bx	lr
 80047a4:	40021000 	.word	0x40021000

080047a8 <Error_Handler>:
/**
  * @brief  This function is executed in case of error occurrence.
  * @retval None
  */
void Error_Handler(void)
{
 80047a8:	b480      	push	{r7}
 80047aa:	af00      	add	r7, sp, #0
  __ASM volatile ("cpsid i" : : : "memory");
 80047ac:	b672      	cpsid	i
}
 80047ae:	bf00      	nop
  /* USER CODE BEGIN Error_Handler_Debug */
  /* User can add his own implementation to report the HAL error return state */
  __disable_irq();
  while (1)
 80047b0:	bf00      	nop
 80047b2:	e7fd      	b.n	80047b0 <Error_Handler+0x8>

080047b4 <HAL_MspInit>:
/* USER CODE END 0 */
/**
  * Initializes the Global MSP.
  */
void HAL_MspInit(void)
{
 80047b4:	b480      	push	{r7}
 80047b6:	b085      	sub	sp, #20
 80047b8:	af00      	add	r7, sp, #0

  /* USER CODE BEGIN MspInit 0 */

  /* USER CODE END MspInit 0 */

  __HAL_RCC_AFIO_CLK_ENABLE();
 80047ba:	4b15      	ldr	r3, [pc, #84]	@ (8004810 <HAL_MspInit+0x5c>)
 80047bc:	699b      	ldr	r3, [r3, #24]
 80047be:	4a14      	ldr	r2, [pc, #80]	@ (8004810 <HAL_MspInit+0x5c>)
 80047c0:	f043 0301 	orr.w	r3, r3, #1
 80047c4:	6193      	str	r3, [r2, #24]
 80047c6:	4b12      	ldr	r3, [pc, #72]	@ (8004810 <HAL_MspInit+0x5c>)
 80047c8:	699b      	ldr	r3, [r3, #24]
 80047ca:	f003 0301 	and.w	r3, r3, #1
 80047ce:	60bb      	str	r3, [r7, #8]
 80047d0:	68bb      	ldr	r3, [r7, #8]
  __HAL_RCC_PWR_CLK_ENABLE();
 80047d2:	4b0f      	ldr	r3, [pc, #60]	@ (8004810 <HAL_MspInit+0x5c>)
 80047d4:	69db      	ldr	r3, [r3, #28]
 80047d6:	4a0e      	ldr	r2, [pc, #56]	@ (8004810 <HAL_MspInit+0x5c>)
 80047d8:	f043 5380 	orr.w	r3, r3, #268435456	@ 0x10000000
 80047dc:	61d3      	str	r3, [r2, #28]
 80047de:	4b0c      	ldr	r3, [pc, #48]	@ (8004810 <HAL_MspInit+0x5c>)
 80047e0:	69db      	ldr	r3, [r3, #28]
 80047e2:	f003 5380 	and.w	r3, r3, #268435456	@ 0x10000000
 80047e6:	607b      	str	r3, [r7, #4]
 80047e8:	687b      	ldr	r3, [r7, #4]

  /* System interrupt init*/

  /** DISABLE: JTAG-DP Disabled and SW-DP Disabled
  */
  __HAL_AFIO_REMAP_SWJ_DISABLE();
 80047ea:	4b0a      	ldr	r3, [pc, #40]	@ (8004814 <HAL_MspInit+0x60>)
 80047ec:	685b      	ldr	r3, [r3, #4]
 80047ee:	60fb      	str	r3, [r7, #12]
 80047f0:	68fb      	ldr	r3, [r7, #12]
 80047f2:	f023 63e0 	bic.w	r3, r3, #117440512	@ 0x7000000
 80047f6:	60fb      	str	r3, [r7, #12]
 80047f8:	68fb      	ldr	r3, [r7, #12]
 80047fa:	f043 6380 	orr.w	r3, r3, #67108864	@ 0x4000000
 80047fe:	60fb      	str	r3, [r7, #12]
 8004800:	4a04      	ldr	r2, [pc, #16]	@ (8004814 <HAL_MspInit+0x60>)
 8004802:	68fb      	ldr	r3, [r7, #12]
 8004804:	6053      	str	r3, [r2, #4]

  /* USER CODE BEGIN MspInit 1 */

  /* USER CODE END MspInit 1 */
}
 8004806:	bf00      	nop
 8004808:	3714      	adds	r7, #20
 800480a:	46bd      	mov	sp, r7
 800480c:	bc80      	pop	{r7}
 800480e:	4770      	bx	lr
 8004810:	40021000 	.word	0x40021000
 8004814:	40010000 	.word	0x40010000

08004818 <HAL_UART_MspInit>:
  * This function configures the hardware resources used in this example
  * @param huart: UART handle pointer
  * @retval None
  */
void HAL_UART_MspInit(UART_HandleTypeDef* huart)
{
 8004818:	b580      	push	{r7, lr}
 800481a:	b088      	sub	sp, #32
 800481c:	af00      	add	r7, sp, #0
 800481e:	6078      	str	r0, [r7, #4]
  GPIO_InitTypeDef GPIO_InitStruct = {0};
 8004820:	f107 0310 	add.w	r3, r7, #16
 8004824:	2200      	movs	r2, #0
 8004826:	601a      	str	r2, [r3, #0]
 8004828:	605a      	str	r2, [r3, #4]
 800482a:	609a      	str	r2, [r3, #8]
 800482c:	60da      	str	r2, [r3, #12]
  if(huart->Instance==USART2)
 800482e:	687b      	ldr	r3, [r7, #4]
 8004830:	681b      	ldr	r3, [r3, #0]
 8004832:	4a1b      	ldr	r2, [pc, #108]	@ (80048a0 <HAL_UART_MspInit+0x88>)
 8004834:	4293      	cmp	r3, r2
 8004836:	d12f      	bne.n	8004898 <HAL_UART_MspInit+0x80>
  {
    /* USER CODE BEGIN USART2_MspInit 0 */

    /* USER CODE END USART2_MspInit 0 */
    /* Peripheral clock enable */
    __HAL_RCC_USART2_CLK_ENABLE();
 8004838:	4b1a      	ldr	r3, [pc, #104]	@ (80048a4 <HAL_UART_MspInit+0x8c>)
 800483a:	69db      	ldr	r3, [r3, #28]
 800483c:	4a19      	ldr	r2, [pc, #100]	@ (80048a4 <HAL_UART_MspInit+0x8c>)
 800483e:	f443 3300 	orr.w	r3, r3, #131072	@ 0x20000
 8004842:	61d3      	str	r3, [r2, #28]
 8004844:	4b17      	ldr	r3, [pc, #92]	@ (80048a4 <HAL_UART_MspInit+0x8c>)
 8004846:	69db      	ldr	r3, [r3, #28]
 8004848:	f403 3300 	and.w	r3, r3, #131072	@ 0x20000
 800484c:	60fb      	str	r3, [r7, #12]
 800484e:	68fb      	ldr	r3, [r7, #12]

    __HAL_RCC_GPIOA_CLK_ENABLE();
 8004850:	4b14      	ldr	r3, [pc, #80]	@ (80048a4 <HAL_UART_MspInit+0x8c>)
 8004852:	699b      	ldr	r3, [r3, #24]
 8004854:	4a13      	ldr	r2, [pc, #76]	@ (80048a4 <HAL_UART_MspInit+0x8c>)
 8004856:	f043 0304 	orr.w	r3, r3, #4
 800485a:	6193      	str	r3, [r2, #24]
 800485c:	4b11      	ldr	r3, [pc, #68]	@ (80048a4 <HAL_UART_MspInit+0x8c>)
 800485e:	699b      	ldr	r3, [r3, #24]
 8004860:	f003 0304 	and.w	r3, r3, #4
 8004864:	60bb      	str	r3, [r7, #8]
 8004866:	68bb      	ldr	r3, [r7, #8]
    /**USART2 GPIO Configuration
    PA2     ------> USART2_TX
    PA3     ------> USART2_RX
    */
    GPIO_InitStruct.Pin = GPIO_PIN_2;
 8004868:	2304      	movs	r3, #4
 800486a:	613b      	str	r3, [r7, #16]
    GPIO_InitStruct.Mode = GPIO_MODE_AF_PP;
 800486c:	2302      	movs	r3, #2
 800486e:	617b      	str	r3, [r7, #20]
    GPIO_InitStruct.Speed = GPIO_SPEED_FREQ_HIGH;
 8004870:	2303      	movs	r3, #3
 8004872:	61fb      	str	r3, [r7, #28]
    HAL_GPIO_Init(GPIOA, &GPIO_InitStruct);
 8004874:	f107 0310 	add.w	r3, r7, #16
 8004878:	4619      	mov	r1, r3
 800487a:	480b      	ldr	r0, [pc, #44]	@ (80048a8 <HAL_UART_MspInit+0x90>)
 800487c:	f000 fa0e 	bl	8004c9c <HAL_GPIO_Init>

    GPIO_InitStruct.Pin = GPIO_PIN_3;
 8004880:	2308      	movs	r3, #8
 8004882:	613b      	str	r3, [r7, #16]
    GPIO_InitStruct.Mode = GPIO_MODE_INPUT;
 8004884:	2300      	movs	r3, #0
 8004886:	617b      	str	r3, [r7, #20]
    GPIO_InitStruct.Pull = GPIO_NOPULL;
 8004888:	2300      	movs	r3, #0
 800488a:	61bb      	str	r3, [r7, #24]
    HAL_GPIO_Init(GPIOA, &GPIO_InitStruct);
 800488c:	f107 0310 	add.w	r3, r7, #16
 8004890:	4619      	mov	r1, r3
 8004892:	4805      	ldr	r0, [pc, #20]	@ (80048a8 <HAL_UART_MspInit+0x90>)
 8004894:	f000 fa02 	bl	8004c9c <HAL_GPIO_Init>

    /* USER CODE END USART2_MspInit 1 */

  }

}
 8004898:	bf00      	nop
 800489a:	3720      	adds	r7, #32
 800489c:	46bd      	mov	sp, r7
 800489e:	bd80      	pop	{r7, pc}
 80048a0:	40004400 	.word	0x40004400
 80048a4:	40021000 	.word	0x40021000
 80048a8:	40010800 	.word	0x40010800

080048ac <NMI_Handler>:
/******************************************************************************/
/**
  * @brief This function handles Non maskable interrupt.
  */
void NMI_Handler(void)
{
 80048ac:	b480      	push	{r7}
 80048ae:	af00      	add	r7, sp, #0
  /* USER CODE BEGIN NonMaskableInt_IRQn 0 */

  /* USER CODE END NonMaskableInt_IRQn 0 */
  /* USER CODE BEGIN NonMaskableInt_IRQn 1 */
   while (1)
 80048b0:	bf00      	nop
 80048b2:	e7fd      	b.n	80048b0 <NMI_Handler+0x4>

080048b4 <HardFault_Handler>:

/**
  * @brief This function handles Hard fault interrupt.
  */
void HardFault_Handler(void)
{
 80048b4:	b480      	push	{r7}
 80048b6:	af00      	add	r7, sp, #0
  /* USER CODE BEGIN HardFault_IRQn 0 */

  /* USER CODE END HardFault_IRQn 0 */
  while (1)
 80048b8:	bf00      	nop
 80048ba:	e7fd      	b.n	80048b8 <HardFault_Handler+0x4>

080048bc <MemManage_Handler>:

/**
  * @brief This function handles Memory management fault.
  */
void MemManage_Handler(void)
{
 80048bc:	b480      	push	{r7}
 80048be:	af00      	add	r7, sp, #0
  /* USER CODE BEGIN MemoryManagement_IRQn 0 */

  /* USER CODE END MemoryManagement_IRQn 0 */
  while (1)
 80048c0:	bf00      	nop
 80048c2:	e7fd      	b.n	80048c0 <MemManage_Handler+0x4>

080048c4 <BusFault_Handler>:

/**
  * @brief This function handles Prefetch fault, memory access fault.
  */
void BusFault_Handler(void)
{
 80048c4:	b480      	push	{r7}
 80048c6:	af00      	add	r7, sp, #0
  /* USER CODE BEGIN BusFault_IRQn 0 */

  /* USER CODE END BusFault_IRQn 0 */
  while (1)
 80048c8:	bf00      	nop
 80048ca:	e7fd      	b.n	80048c8 <BusFault_Handler+0x4>

080048cc <UsageFault_Handler>:

/**
  * @brief This function handles Undefined instruction or illegal state.
  */
void UsageFault_Handler(void)
{
 80048cc:	b480      	push	{r7}
 80048ce:	af00      	add	r7, sp, #0
  /* USER CODE BEGIN UsageFault_IRQn 0 */

  /* USER CODE END UsageFault_IRQn 0 */
  while (1)
 80048d0:	bf00      	nop
 80048d2:	e7fd      	b.n	80048d0 <UsageFault_Handler+0x4>

080048d4 <SVC_Handler>:

/**
  * @brief This function handles System service call via SWI instruction.
  */
void SVC_Handler(void)
{
 80048d4:	b480      	push	{r7}
 80048d6:	af00      	add	r7, sp, #0

  /* USER CODE END SVCall_IRQn 0 */
  /* USER CODE BEGIN SVCall_IRQn 1 */

  /* USER CODE END SVCall_IRQn 1 */
}
 80048d8:	bf00      	nop
 80048da:	46bd      	mov	sp, r7
 80048dc:	bc80      	pop	{r7}
 80048de:	4770      	bx	lr

080048e0 <DebugMon_Handler>:

/**
  * @brief This function handles Debug monitor.
  */
void DebugMon_Handler(void)
{
 80048e0:	b480      	push	{r7}
 80048e2:	af00      	add	r7, sp, #0

  /* USER CODE END DebugMonitor_IRQn 0 */
  /* USER CODE BEGIN DebugMonitor_IRQn 1 */

  /* USER CODE END DebugMonitor_IRQn 1 */
}
 80048e4:	bf00      	nop
 80048e6:	46bd      	mov	sp, r7
 80048e8:	bc80      	pop	{r7}
 80048ea:	4770      	bx	lr

080048ec <PendSV_Handler>:

/**
  * @brief This function handles Pendable request for system service.
  */
void PendSV_Handler(void)
{
 80048ec:	b480      	push	{r7}
 80048ee:	af00      	add	r7, sp, #0

  /* USER CODE END PendSV_IRQn 0 */
  /* USER CODE BEGIN PendSV_IRQn 1 */

  /* USER CODE END PendSV_IRQn 1 */
}
 80048f0:	bf00      	nop
 80048f2:	46bd      	mov	sp, r7
 80048f4:	bc80      	pop	{r7}
 80048f6:	4770      	bx	lr

080048f8 <SysTick_Handler>:

/**
  * @brief This function handles System tick timer.
  */
void SysTick_Handler(void)
{
 80048f8:	b580      	push	{r7, lr}
 80048fa:	af00      	add	r7, sp, #0
  /* USER CODE BEGIN SysTick_IRQn 0 */

  /* USER CODE END SysTick_IRQn 0 */
  HAL_IncTick();
 80048fc:	f000 f8aa 	bl	8004a54 <HAL_IncTick>
  /* USER CODE BEGIN SysTick_IRQn 1 */

  /* USER CODE END SysTick_IRQn 1 */
}
 8004900:	bf00      	nop
 8004902:	bd80      	pop	{r7, pc}

08004904 <_sbrk>:
 *
 * @param incr Memory size
 * @return Pointer to allocated memory
 */
void *_sbrk(ptrdiff_t incr)
{
 8004904:	b580      	push	{r7, lr}
 8004906:	b086      	sub	sp, #24
 8004908:	af00      	add	r7, sp, #0
 800490a:	6078      	str	r0, [r7, #4]
  extern uint8_t _end; /* Symbol defined in the linker script */
  extern uint8_t _estack; /* Symbol defined in the linker script */
  extern uint32_t _Min_Stack_Size; /* Symbol defined in the linker script */
  const uint32_t stack_limit = (uint32_t)&_estack - (uint32_t)&_Min_Stack_Size;
 800490c:	4a14      	ldr	r2, [pc, #80]	@ (8004960 <_sbrk+0x5c>)
 800490e:	4b15      	ldr	r3, [pc, #84]	@ (8004964 <_sbrk+0x60>)
 8004910:	1ad3      	subs	r3, r2, r3
 8004912:	617b      	str	r3, [r7, #20]
  const uint8_t *max_heap = (uint8_t *)stack_limit;
 8004914:	697b      	ldr	r3, [r7, #20]
 8004916:	613b      	str	r3, [r7, #16]
  uint8_t *prev_heap_end;

  /* Initialize heap end at first call */
  if (NULL == __sbrk_heap_end)
 8004918:	4b13      	ldr	r3, [pc, #76]	@ (8004968 <_sbrk+0x64>)
 800491a:	681b      	ldr	r3, [r3, #0]
 800491c:	2b00      	cmp	r3, #0
 800491e:	d102      	bne.n	8004926 <_sbrk+0x22>
  {
    __sbrk_heap_end = &_end;
 8004920:	4b11      	ldr	r3, [pc, #68]	@ (8004968 <_sbrk+0x64>)
 8004922:	4a12      	ldr	r2, [pc, #72]	@ (800496c <_sbrk+0x68>)
 8004924:	601a      	str	r2, [r3, #0]
  }

  /* Protect heap from growing into the reserved MSP stack */
  if (__sbrk_heap_end + incr > max_heap)
 8004926:	4b10      	ldr	r3, [pc, #64]	@ (8004968 <_sbrk+0x64>)
 8004928:	681a      	ldr	r2, [r3, #0]
 800492a:	687b      	ldr	r3, [r7, #4]
 800492c:	4413      	add	r3, r2
 800492e:	693a      	ldr	r2, [r7, #16]
 8004930:	429a      	cmp	r2, r3
 8004932:	d207      	bcs.n	8004944 <_sbrk+0x40>
  {
    errno = ENOMEM;
 8004934:	f001 fa78 	bl	8005e28 <__errno>
 8004938:	4603      	mov	r3, r0
 800493a:	220c      	movs	r2, #12
 800493c:	601a      	str	r2, [r3, #0]
    return (void *)-1;
 800493e:	f04f 33ff 	mov.w	r3, #4294967295
 8004942:	e009      	b.n	8004958 <_sbrk+0x54>
  }

  prev_heap_end = __sbrk_heap_end;
 8004944:	4b08      	ldr	r3, [pc, #32]	@ (8004968 <_sbrk+0x64>)
 8004946:	681b      	ldr	r3, [r3, #0]
 8004948:	60fb      	str	r3, [r7, #12]
  __sbrk_heap_end += incr;
 800494a:	4b07      	ldr	r3, [pc, #28]	@ (8004968 <_sbrk+0x64>)
 800494c:	681a      	ldr	r2, [r3, #0]
 800494e:	687b      	ldr	r3, [r7, #4]
 8004950:	4413      	add	r3, r2
 8004952:	4a05      	ldr	r2, [pc, #20]	@ (8004968 <_sbrk+0x64>)
 8004954:	6013      	str	r3, [r2, #0]

  return (void *)prev_heap_end;
 8004956:	68fb      	ldr	r3, [r7, #12]
}
 8004958:	4618      	mov	r0, r3
 800495a:	3718      	adds	r7, #24
 800495c:	46bd      	mov	sp, r7
 800495e:	bd80      	pop	{r7, pc}
 8004960:	20005000 	.word	0x20005000
 8004964:	00001000 	.word	0x00001000
 8004968:	20000ce0 	.word	0x20000ce0
 800496c:	20000e30 	.word	0x20000e30

08004970 <SystemInit>:
  * @note   This function should be used only after reset.
  * @param  None
  * @retval None
  */
void SystemInit (void)
{
 8004970:	b480      	push	{r7}
 8004972:	af00      	add	r7, sp, #0

  /* Configure the Vector Table location -------------------------------------*/
#if defined(USER_VECT_TAB_ADDRESS)
  SCB->VTOR = VECT_TAB_BASE_ADDRESS | VECT_TAB_OFFSET; /* Vector Table Relocation in Internal SRAM. */
#endif /* USER_VECT_TAB_ADDRESS */
}
 8004974:	bf00      	nop
 8004976:	46bd      	mov	sp, r7
 8004978:	bc80      	pop	{r7}
 800497a:	4770      	bx	lr

0800497c <Reset_Handler>:
  .weak Reset_Handler
  .type Reset_Handler, %function
Reset_Handler:

/* Call the clock system initialization function.*/
    bl  SystemInit
 800497c:	f7ff fff8 	bl	8004970 <SystemInit>

/* Copy the data segment initializers from flash to SRAM */
  ldr r0, =_sdata
 8004980:	480b      	ldr	r0, [pc, #44]	@ (80049b0 <LoopFillZerobss+0xe>)
  ldr r1, =_edata
 8004982:	490c      	ldr	r1, [pc, #48]	@ (80049b4 <LoopFillZerobss+0x12>)
  ldr r2, =_sidata
 8004984:	4a0c      	ldr	r2, [pc, #48]	@ (80049b8 <LoopFillZerobss+0x16>)
  movs r3, #0
 8004986:	2300      	movs	r3, #0
  b LoopCopyDataInit
 8004988:	e002      	b.n	8004990 <LoopCopyDataInit>

0800498a <CopyDataInit>:

CopyDataInit:
  ldr r4, [r2, r3]
 800498a:	58d4      	ldr	r4, [r2, r3]
  str r4, [r0, r3]
 800498c:	50c4      	str	r4, [r0, r3]
  adds r3, r3, #4
 800498e:	3304      	adds	r3, #4

08004990 <LoopCopyDataInit>:

LoopCopyDataInit:
  adds r4, r0, r3
 8004990:	18c4      	adds	r4, r0, r3
  cmp r4, r1
 8004992:	428c      	cmp	r4, r1
  bcc CopyDataInit
 8004994:	d3f9      	bcc.n	800498a <CopyDataInit>
  
/* Zero fill the bss segment. */
  ldr r2, =_sbss
 8004996:	4a09      	ldr	r2, [pc, #36]	@ (80049bc <LoopFillZerobss+0x1a>)
  ldr r4, =_ebss
 8004998:	4c09      	ldr	r4, [pc, #36]	@ (80049c0 <LoopFillZerobss+0x1e>)
  movs r3, #0
 800499a:	2300      	movs	r3, #0
  b LoopFillZerobss
 800499c:	e001      	b.n	80049a2 <LoopFillZerobss>

0800499e <FillZerobss>:

FillZerobss:
  str  r3, [r2]
 800499e:	6013      	str	r3, [r2, #0]
  adds r2, r2, #4
 80049a0:	3204      	adds	r2, #4

080049a2 <LoopFillZerobss>:

LoopFillZerobss:
  cmp r2, r4
 80049a2:	42a2      	cmp	r2, r4
  bcc FillZerobss
 80049a4:	d3fb      	bcc.n	800499e <FillZerobss>

/* Call static constructors */
    bl __libc_init_array
 80049a6:	f001 fa45 	bl	8005e34 <__libc_init_array>
/* Call the application's entry point.*/
  bl main
 80049aa:	f7ff fe6f 	bl	800468c <main>
  bx lr
 80049ae:	4770      	bx	lr
  ldr r0, =_sdata
 80049b0:	20000000 	.word	0x20000000
  ldr r1, =_edata
 80049b4:	2000005c 	.word	0x2000005c
  ldr r2, =_sidata
 80049b8:	080071e8 	.word	0x080071e8
  ldr r2, =_sbss
 80049bc:	2000005c 	.word	0x2000005c
  ldr r4, =_ebss
 80049c0:	20000e30 	.word	0x20000e30

080049c4 <ADC1_2_IRQHandler>:
 * @retval : None
*/
    .section .text.Default_Handler,"ax",%progbits
Default_Handler:
Infinite_Loop:
  b Infinite_Loop
 80049c4:	e7fe      	b.n	80049c4 <ADC1_2_IRQHandler>
	...

080049c8 <HAL_Init>:
  *         need to ensure that the SysTick time base is always set to 1 millisecond
  *         to have correct HAL operation.
  * @retval HAL status
  */
HAL_StatusTypeDef HAL_Init(void)
{
 80049c8:	b580      	push	{r7, lr}
 80049ca:	af00      	add	r7, sp, #0
    defined(STM32F102x6) || defined(STM32F102xB) || \
    defined(STM32F103x6) || defined(STM32F103xB) || defined(STM32F103xE) || defined(STM32F103xG) || \
    defined(STM32F105xC) || defined(STM32F107xC)

  /* Prefetch buffer is not available on value line devices */
  __HAL_FLASH_PREFETCH_BUFFER_ENABLE();
 80049cc:	4b08      	ldr	r3, [pc, #32]	@ (80049f0 <HAL_Init+0x28>)
 80049ce:	681b      	ldr	r3, [r3, #0]
 80049d0:	4a07      	ldr	r2, [pc, #28]	@ (80049f0 <HAL_Init+0x28>)
 80049d2:	f043 0310 	orr.w	r3, r3, #16
 80049d6:	6013      	str	r3, [r2, #0]
#endif
#endif /* PREFETCH_ENABLE */

  /* Set Interrupt Group Priority */
  HAL_NVIC_SetPriorityGrouping(NVIC_PRIORITYGROUP_4);
 80049d8:	2003      	movs	r0, #3
 80049da:	f000 f92b 	bl	8004c34 <HAL_NVIC_SetPriorityGrouping>

  /* Use systick as time base source and configure 1ms tick (default clock after Reset is HSI) */
  HAL_InitTick(TICK_INT_PRIORITY);
 80049de:	200f      	movs	r0, #15
 80049e0:	f000 f808 	bl	80049f4 <HAL_InitTick>

  /* Init the low level hardware */
  HAL_MspInit();
 80049e4:	f7ff fee6 	bl	80047b4 <HAL_MspInit>

  /* Return function status */
  return HAL_OK;
 80049e8:	2300      	movs	r3, #0
}
 80049ea:	4618      	mov	r0, r3
 80049ec:	bd80      	pop	{r7, pc}
 80049ee:	bf00      	nop
 80049f0:	40022000 	.word	0x40022000

080049f4 <HAL_InitTick>:
  *       implementation  in user file.
  * @param TickPriority Tick interrupt priority.
  * @retval HAL status
  */
__weak HAL_StatusTypeDef HAL_InitTick(uint32_t TickPriority)
{
 80049f4:	b580      	push	{r7, lr}
 80049f6:	b082      	sub	sp, #8
 80049f8:	af00      	add	r7, sp, #0
 80049fa:	6078      	str	r0, [r7, #4]
  /* Configure the SysTick to have interrupt in 1ms time basis*/
  if (HAL_SYSTICK_Config(SystemCoreClock / (1000U / uwTickFreq)) > 0U)
 80049fc:	4b12      	ldr	r3, [pc, #72]	@ (8004a48 <HAL_InitTick+0x54>)
 80049fe:	681a      	ldr	r2, [r3, #0]
 8004a00:	4b12      	ldr	r3, [pc, #72]	@ (8004a4c <HAL_InitTick+0x58>)
 8004a02:	781b      	ldrb	r3, [r3, #0]
 8004a04:	4619      	mov	r1, r3
 8004a06:	f44f 737a 	mov.w	r3, #1000	@ 0x3e8
 8004a0a:	fbb3 f3f1 	udiv	r3, r3, r1
 8004a0e:	fbb2 f3f3 	udiv	r3, r2, r3
 8004a12:	4618      	mov	r0, r3
 8004a14:	f000 f935 	bl	8004c82 <HAL_SYSTICK_Config>
 8004a18:	4603      	mov	r3, r0
 8004a1a:	2b00      	cmp	r3, #0
 8004a1c:	d001      	beq.n	8004a22 <HAL_InitTick+0x2e>
  {
    return HAL_ERROR;
 8004a1e:	2301      	movs	r3, #1
 8004a20:	e00e      	b.n	8004a40 <HAL_InitTick+0x4c>
  }

  /* Configure the SysTick IRQ priority */
  if (TickPriority < (1UL << __NVIC_PRIO_BITS))
 8004a22:	687b      	ldr	r3, [r7, #4]
 8004a24:	2b0f      	cmp	r3, #15
 8004a26:	d80a      	bhi.n	8004a3e <HAL_InitTick+0x4a>
  {
    HAL_NVIC_SetPriority(SysTick_IRQn, TickPriority, 0U);
 8004a28:	2200      	movs	r2, #0
 8004a2a:	6879      	ldr	r1, [r7, #4]
 8004a2c:	f04f 30ff 	mov.w	r0, #4294967295
 8004a30:	f000 f90b 	bl	8004c4a <HAL_NVIC_SetPriority>
    uwTickPrio = TickPriority;
 8004a34:	4a06      	ldr	r2, [pc, #24]	@ (8004a50 <HAL_InitTick+0x5c>)
 8004a36:	687b      	ldr	r3, [r7, #4]
 8004a38:	6013      	str	r3, [r2, #0]
  {
    return HAL_ERROR;
  }

  /* Return function status */
  return HAL_OK;
 8004a3a:	2300      	movs	r3, #0
 8004a3c:	e000      	b.n	8004a40 <HAL_InitTick+0x4c>
    return HAL_ERROR;
 8004a3e:	2301      	movs	r3, #1
}
 8004a40:	4618      	mov	r0, r3
 8004a42:	3708      	adds	r7, #8
 8004a44:	46bd      	mov	sp, r7
 8004a46:	bd80      	pop	{r7, pc}
 8004a48:	20000000 	.word	0x20000000
 8004a4c:	20000008 	.word	0x20000008
 8004a50:	20000004 	.word	0x20000004

08004a54 <HAL_IncTick>:
  * @note This function is declared as __weak to be overwritten in case of other
  *      implementations in user file.
  * @retval None
  */
__weak void HAL_IncTick(void)
{
 8004a54:	b480      	push	{r7}
 8004a56:	af00      	add	r7, sp, #0
  uwTick += uwTickFreq;
 8004a58:	4b05      	ldr	r3, [pc, #20]	@ (8004a70 <HAL_IncTick+0x1c>)
 8004a5a:	781b      	ldrb	r3, [r3, #0]
 8004a5c:	461a      	mov	r2, r3
 8004a5e:	4b05      	ldr	r3, [pc, #20]	@ (8004a74 <HAL_IncTick+0x20>)
 8004a60:	681b      	ldr	r3, [r3, #0]
 8004a62:	4413      	add	r3, r2
 8004a64:	4a03      	ldr	r2, [pc, #12]	@ (8004a74 <HAL_IncTick+0x20>)
 8004a66:	6013      	str	r3, [r2, #0]
}
 8004a68:	bf00      	nop
 8004a6a:	46bd      	mov	sp, r7
 8004a6c:	bc80      	pop	{r7}
 8004a6e:	4770      	bx	lr
 8004a70:	20000008 	.word	0x20000008
 8004a74:	20000ce4 	.word	0x20000ce4

08004a78 <HAL_GetTick>:
  * @note  This function is declared as __weak to be overwritten in case of other
  *       implementations in user file.
  * @retval tick value
  */
__weak uint32_t HAL_GetTick(void)
{
 8004a78:	b480      	push	{r7}
 8004a7a:	af00      	add	r7, sp, #0
  return uwTick;
 8004a7c:	4b02      	ldr	r3, [pc, #8]	@ (8004a88 <HAL_GetTick+0x10>)
 8004a7e:	681b      	ldr	r3, [r3, #0]
}
 8004a80:	4618      	mov	r0, r3
 8004a82:	46bd      	mov	sp, r7
 8004a84:	bc80      	pop	{r7}
 8004a86:	4770      	bx	lr
 8004a88:	20000ce4 	.word	0x20000ce4

08004a8c <HAL_Delay>:
  *       implementations in user file.
  * @param Delay specifies the delay time length, in milliseconds.
  * @retval None
  */
__weak void HAL_Delay(uint32_t Delay)
{
 8004a8c:	b580      	push	{r7, lr}
 8004a8e:	b084      	sub	sp, #16
 8004a90:	af00      	add	r7, sp, #0
 8004a92:	6078      	str	r0, [r7, #4]
  uint32_t tickstart = HAL_GetTick();
 8004a94:	f7ff fff0 	bl	8004a78 <HAL_GetTick>
 8004a98:	60b8      	str	r0, [r7, #8]
  uint32_t wait = Delay;
 8004a9a:	687b      	ldr	r3, [r7, #4]
 8004a9c:	60fb      	str	r3, [r7, #12]

  /* Add a freq to guarantee minimum wait */
  if (wait < HAL_MAX_DELAY)
 8004a9e:	68fb      	ldr	r3, [r7, #12]
 8004aa0:	f1b3 3fff 	cmp.w	r3, #4294967295
 8004aa4:	d005      	beq.n	8004ab2 <HAL_Delay+0x26>
  {
    wait += (uint32_t)(uwTickFreq);
 8004aa6:	4b0a      	ldr	r3, [pc, #40]	@ (8004ad0 <HAL_Delay+0x44>)
 8004aa8:	781b      	ldrb	r3, [r3, #0]
 8004aaa:	461a      	mov	r2, r3
 8004aac:	68fb      	ldr	r3, [r7, #12]
 8004aae:	4413      	add	r3, r2
 8004ab0:	60fb      	str	r3, [r7, #12]
  }

  while ((HAL_GetTick() - tickstart) < wait)
 8004ab2:	bf00      	nop
 8004ab4:	f7ff ffe0 	bl	8004a78 <HAL_GetTick>
 8004ab8:	4602      	mov	r2, r0
 8004aba:	68bb      	ldr	r3, [r7, #8]
 8004abc:	1ad3      	subs	r3, r2, r3
 8004abe:	68fa      	ldr	r2, [r7, #12]
 8004ac0:	429a      	cmp	r2, r3
 8004ac2:	d8f7      	bhi.n	8004ab4 <HAL_Delay+0x28>
  {
  }
}
 8004ac4:	bf00      	nop
 8004ac6:	bf00      	nop
 8004ac8:	3710      	adds	r7, #16
 8004aca:	46bd      	mov	sp, r7
 8004acc:	bd80      	pop	{r7, pc}
 8004ace:	bf00      	nop
 8004ad0:	20000008 	.word	0x20000008

08004ad4 <__NVIC_SetPriorityGrouping>:
{
 8004ad4:	b480      	push	{r7}
 8004ad6:	b085      	sub	sp, #20
 8004ad8:	af00      	add	r7, sp, #0
 8004ada:	6078      	str	r0, [r7, #4]
  uint32_t PriorityGroupTmp = (PriorityGroup & (uint32_t)0x07UL);             /* only values 0..7 are used          */
 8004adc:	687b      	ldr	r3, [r7, #4]
 8004ade:	f003 0307 	and.w	r3, r3, #7
 8004ae2:	60fb      	str	r3, [r7, #12]
  reg_value  =  SCB->AIRCR;                                                   /* read old register configuration    */
 8004ae4:	4b0c      	ldr	r3, [pc, #48]	@ (8004b18 <__NVIC_SetPriorityGrouping+0x44>)
 8004ae6:	68db      	ldr	r3, [r3, #12]
 8004ae8:	60bb      	str	r3, [r7, #8]
  reg_value &= ~((uint32_t)(SCB_AIRCR_VECTKEY_Msk | SCB_AIRCR_PRIGROUP_Msk)); /* clear bits to change               */
 8004aea:	68ba      	ldr	r2, [r7, #8]
 8004aec:	f64f 03ff 	movw	r3, #63743	@ 0xf8ff
 8004af0:	4013      	ands	r3, r2
 8004af2:	60bb      	str	r3, [r7, #8]
                (PriorityGroupTmp << SCB_AIRCR_PRIGROUP_Pos) );               /* Insert write key and priority group */
 8004af4:	68fb      	ldr	r3, [r7, #12]
 8004af6:	021a      	lsls	r2, r3, #8
                ((uint32_t)0x5FAUL << SCB_AIRCR_VECTKEY_Pos) |
 8004af8:	68bb      	ldr	r3, [r7, #8]
 8004afa:	4313      	orrs	r3, r2
  reg_value  =  (reg_value                                   |
 8004afc:	f043 63bf 	orr.w	r3, r3, #100139008	@ 0x5f80000
 8004b00:	f443 3300 	orr.w	r3, r3, #131072	@ 0x20000
 8004b04:	60bb      	str	r3, [r7, #8]
  SCB->AIRCR =  reg_value;
 8004b06:	4a04      	ldr	r2, [pc, #16]	@ (8004b18 <__NVIC_SetPriorityGrouping+0x44>)
 8004b08:	68bb      	ldr	r3, [r7, #8]
 8004b0a:	60d3      	str	r3, [r2, #12]
}
 8004b0c:	bf00      	nop
 8004b0e:	3714      	adds	r7, #20
 8004b10:	46bd      	mov	sp, r7
 8004b12:	bc80      	pop	{r7}
 8004b14:	4770      	bx	lr
 8004b16:	bf00      	nop
 8004b18:	e000ed00 	.word	0xe000ed00

08004b1c <__NVIC_GetPriorityGrouping>:
{
 8004b1c:	b480      	push	{r7}
 8004b1e:	af00      	add	r7, sp, #0
  return ((uint32_t)((SCB->AIRCR & SCB_AIRCR_PRIGROUP_Msk) >> SCB_AIRCR_PRIGROUP_Pos));
 8004b20:	4b04      	ldr	r3, [pc, #16]	@ (8004b34 <__NVIC_GetPriorityGrouping+0x18>)
 8004b22:	68db      	ldr	r3, [r3, #12]
 8004b24:	0a1b      	lsrs	r3, r3, #8
 8004b26:	f003 0307 	and.w	r3, r3, #7
}
 8004b2a:	4618      	mov	r0, r3
 8004b2c:	46bd      	mov	sp, r7
 8004b2e:	bc80      	pop	{r7}
 8004b30:	4770      	bx	lr
 8004b32:	bf00      	nop
 8004b34:	e000ed00 	.word	0xe000ed00

08004b38 <__NVIC_SetPriority>:
{
 8004b38:	b480      	push	{r7}
 8004b3a:	b083      	sub	sp, #12
 8004b3c:	af00      	add	r7, sp, #0
 8004b3e:	4603      	mov	r3, r0
 8004b40:	6039      	str	r1, [r7, #0]
 8004b42:	71fb      	strb	r3, [r7, #7]
  if ((int32_t)(IRQn) >= 0)
 8004b44:	f997 3007 	ldrsb.w	r3, [r7, #7]
 8004b48:	2b00      	cmp	r3, #0
 8004b4a:	db0a      	blt.n	8004b62 <__NVIC_SetPriority+0x2a>
    NVIC->IP[((uint32_t)IRQn)]               = (uint8_t)((priority << (8U - __NVIC_PRIO_BITS)) & (uint32_t)0xFFUL);
 8004b4c:	683b      	ldr	r3, [r7, #0]
 8004b4e:	b2da      	uxtb	r2, r3
 8004b50:	490c      	ldr	r1, [pc, #48]	@ (8004b84 <__NVIC_SetPriority+0x4c>)
 8004b52:	f997 3007 	ldrsb.w	r3, [r7, #7]
 8004b56:	0112      	lsls	r2, r2, #4
 8004b58:	b2d2      	uxtb	r2, r2
 8004b5a:	440b      	add	r3, r1
 8004b5c:	f883 2300 	strb.w	r2, [r3, #768]	@ 0x300
}
 8004b60:	e00a      	b.n	8004b78 <__NVIC_SetPriority+0x40>
    SCB->SHP[(((uint32_t)IRQn) & 0xFUL)-4UL] = (uint8_t)((priority << (8U - __NVIC_PRIO_BITS)) & (uint32_t)0xFFUL);
 8004b62:	683b      	ldr	r3, [r7, #0]
 8004b64:	b2da      	uxtb	r2, r3
 8004b66:	4908      	ldr	r1, [pc, #32]	@ (8004b88 <__NVIC_SetPriority+0x50>)
 8004b68:	79fb      	ldrb	r3, [r7, #7]
 8004b6a:	f003 030f 	and.w	r3, r3, #15
 8004b6e:	3b04      	subs	r3, #4
 8004b70:	0112      	lsls	r2, r2, #4
 8004b72:	b2d2      	uxtb	r2, r2
 8004b74:	440b      	add	r3, r1
 8004b76:	761a      	strb	r2, [r3, #24]
}
 8004b78:	bf00      	nop
 8004b7a:	370c      	adds	r7, #12
 8004b7c:	46bd      	mov	sp, r7
 8004b7e:	bc80      	pop	{r7}
 8004b80:	4770      	bx	lr
 8004b82:	bf00      	nop
 8004b84:	e000e100 	.word	0xe000e100
 8004b88:	e000ed00 	.word	0xe000ed00

08004b8c <NVIC_EncodePriority>:
{
 8004b8c:	b480      	push	{r7}
 8004b8e:	b089      	sub	sp, #36	@ 0x24
 8004b90:	af00      	add	r7, sp, #0
 8004b92:	60f8      	str	r0, [r7, #12]
 8004b94:	60b9      	str	r1, [r7, #8]
 8004b96:	607a      	str	r2, [r7, #4]
  uint32_t PriorityGroupTmp = (PriorityGroup & (uint32_t)0x07UL);   /* only values 0..7 are used          */
 8004b98:	68fb      	ldr	r3, [r7, #12]
 8004b9a:	f003 0307 	and.w	r3, r3, #7
 8004b9e:	61fb      	str	r3, [r7, #28]
  PreemptPriorityBits = ((7UL - PriorityGroupTmp) > (uint32_t)(__NVIC_PRIO_BITS)) ? (uint32_t)(__NVIC_PRIO_BITS) : (uint32_t)(7UL - PriorityGroupTmp);
 8004ba0:	69fb      	ldr	r3, [r7, #28]
 8004ba2:	f1c3 0307 	rsb	r3, r3, #7
 8004ba6:	2b04      	cmp	r3, #4
 8004ba8:	bf28      	it	cs
 8004baa:	2304      	movcs	r3, #4
 8004bac:	61bb      	str	r3, [r7, #24]
  SubPriorityBits     = ((PriorityGroupTmp + (uint32_t)(__NVIC_PRIO_BITS)) < (uint32_t)7UL) ? (uint32_t)0UL : (uint32_t)((PriorityGroupTmp - 7UL) + (uint32_t)(__NVIC_PRIO_BITS));
 8004bae:	69fb      	ldr	r3, [r7, #28]
 8004bb0:	3304      	adds	r3, #4
 8004bb2:	2b06      	cmp	r3, #6
 8004bb4:	d902      	bls.n	8004bbc <NVIC_EncodePriority+0x30>
 8004bb6:	69fb      	ldr	r3, [r7, #28]
 8004bb8:	3b03      	subs	r3, #3
 8004bba:	e000      	b.n	8004bbe <NVIC_EncodePriority+0x32>
 8004bbc:	2300      	movs	r3, #0
 8004bbe:	617b      	str	r3, [r7, #20]
           ((PreemptPriority & (uint32_t)((1UL << (PreemptPriorityBits)) - 1UL)) << SubPriorityBits) |
 8004bc0:	f04f 32ff 	mov.w	r2, #4294967295
 8004bc4:	69bb      	ldr	r3, [r7, #24]
 8004bc6:	fa02 f303 	lsl.w	r3, r2, r3
 8004bca:	43da      	mvns	r2, r3
 8004bcc:	68bb      	ldr	r3, [r7, #8]
 8004bce:	401a      	ands	r2, r3
 8004bd0:	697b      	ldr	r3, [r7, #20]
 8004bd2:	409a      	lsls	r2, r3
           ((SubPriority     & (uint32_t)((1UL << (SubPriorityBits    )) - 1UL)))
 8004bd4:	f04f 31ff 	mov.w	r1, #4294967295
 8004bd8:	697b      	ldr	r3, [r7, #20]
 8004bda:	fa01 f303 	lsl.w	r3, r1, r3
 8004bde:	43d9      	mvns	r1, r3
 8004be0:	687b      	ldr	r3, [r7, #4]
 8004be2:	400b      	ands	r3, r1
           ((PreemptPriority & (uint32_t)((1UL << (PreemptPriorityBits)) - 1UL)) << SubPriorityBits) |
 8004be4:	4313      	orrs	r3, r2
}
 8004be6:	4618      	mov	r0, r3
 8004be8:	3724      	adds	r7, #36	@ 0x24
 8004bea:	46bd      	mov	sp, r7
 8004bec:	bc80      	pop	{r7}
 8004bee:	4770      	bx	lr

08004bf0 <SysTick_Config>:
  \note    When the variable <b>__Vendor_SysTickConfig</b> is set to 1, then the
           function <b>SysTick_Config</b> is not included. In this case, the file <b><i>device</i>.h</b>
           must contain a vendor-specific implementation of this function.
 */
__STATIC_INLINE uint32_t SysTick_Config(uint32_t ticks)
{
 8004bf0:	b580      	push	{r7, lr}
 8004bf2:	b082      	sub	sp, #8
 8004bf4:	af00      	add	r7, sp, #0
 8004bf6:	6078      	str	r0, [r7, #4]
  if ((ticks - 1UL) > SysTick_LOAD_RELOAD_Msk)
 8004bf8:	687b      	ldr	r3, [r7, #4]
 8004bfa:	3b01      	subs	r3, #1
 8004bfc:	f1b3 7f80 	cmp.w	r3, #16777216	@ 0x1000000
 8004c00:	d301      	bcc.n	8004c06 <SysTick_Config+0x16>
  {
    return (1UL);                                                   /* Reload value impossible */
 8004c02:	2301      	movs	r3, #1
 8004c04:	e00f      	b.n	8004c26 <SysTick_Config+0x36>
  }

  SysTick->LOAD  = (uint32_t)(ticks - 1UL);                         /* set reload register */
 8004c06:	4a0a      	ldr	r2, [pc, #40]	@ (8004c30 <SysTick_Config+0x40>)
 8004c08:	687b      	ldr	r3, [r7, #4]
 8004c0a:	3b01      	subs	r3, #1
 8004c0c:	6053      	str	r3, [r2, #4]
  NVIC_SetPriority (SysTick_IRQn, (1UL << __NVIC_PRIO_BITS) - 1UL); /* set Priority for Systick Interrupt */
 8004c0e:	210f      	movs	r1, #15
 8004c10:	f04f 30ff 	mov.w	r0, #4294967295
 8004c14:	f7ff ff90 	bl	8004b38 <__NVIC_SetPriority>
  SysTick->VAL   = 0UL;                                             /* Load the SysTick Counter Value */
 8004c18:	4b05      	ldr	r3, [pc, #20]	@ (8004c30 <SysTick_Config+0x40>)
 8004c1a:	2200      	movs	r2, #0
 8004c1c:	609a      	str	r2, [r3, #8]
  SysTick->CTRL  = SysTick_CTRL_CLKSOURCE_Msk |
 8004c1e:	4b04      	ldr	r3, [pc, #16]	@ (8004c30 <SysTick_Config+0x40>)
 8004c20:	2207      	movs	r2, #7
 8004c22:	601a      	str	r2, [r3, #0]
                   SysTick_CTRL_TICKINT_Msk   |
                   SysTick_CTRL_ENABLE_Msk;                         /* Enable SysTick IRQ and SysTick Timer */
  return (0UL);                                                     /* Function successful */
 8004c24:	2300      	movs	r3, #0
}
 8004c26:	4618      	mov	r0, r3
 8004c28:	3708      	adds	r7, #8
 8004c2a:	46bd      	mov	sp, r7
 8004c2c:	bd80      	pop	{r7, pc}
 8004c2e:	bf00      	nop
 8004c30:	e000e010 	.word	0xe000e010

08004c34 <HAL_NVIC_SetPriorityGrouping>:
  * @note   When the NVIC_PriorityGroup_0 is selected, IRQ preemption is no more possible. 
  *         The pending IRQ priority will be managed only by the subpriority. 
  * @retval None
  */
void HAL_NVIC_SetPriorityGrouping(uint32_t PriorityGroup)
{
 8004c34:	b580      	push	{r7, lr}
 8004c36:	b082      	sub	sp, #8
 8004c38:	af00      	add	r7, sp, #0
 8004c3a:	6078      	str	r0, [r7, #4]
  /* Check the parameters */
  assert_param(IS_NVIC_PRIORITY_GROUP(PriorityGroup));
  
  /* Set the PRIGROUP[10:8] bits according to the PriorityGroup parameter value */
  NVIC_SetPriorityGrouping(PriorityGroup);
 8004c3c:	6878      	ldr	r0, [r7, #4]
 8004c3e:	f7ff ff49 	bl	8004ad4 <__NVIC_SetPriorityGrouping>
}
 8004c42:	bf00      	nop
 8004c44:	3708      	adds	r7, #8
 8004c46:	46bd      	mov	sp, r7
 8004c48:	bd80      	pop	{r7, pc}

08004c4a <HAL_NVIC_SetPriority>:
  *         This parameter can be a value between 0 and 15
  *         A lower priority value indicates a higher priority.          
  * @retval None
  */
void HAL_NVIC_SetPriority(IRQn_Type IRQn, uint32_t PreemptPriority, uint32_t SubPriority)
{ 
 8004c4a:	b580      	push	{r7, lr}
 8004c4c:	b086      	sub	sp, #24
 8004c4e:	af00      	add	r7, sp, #0
 8004c50:	4603      	mov	r3, r0
 8004c52:	60b9      	str	r1, [r7, #8]
 8004c54:	607a      	str	r2, [r7, #4]
 8004c56:	73fb      	strb	r3, [r7, #15]
  uint32_t prioritygroup = 0x00U;
 8004c58:	2300      	movs	r3, #0
 8004c5a:	617b      	str	r3, [r7, #20]
  
  /* Check the parameters */
  assert_param(IS_NVIC_SUB_PRIORITY(SubPriority));
  assert_param(IS_NVIC_PREEMPTION_PRIORITY(PreemptPriority));
  
  prioritygroup = NVIC_GetPriorityGrouping();
 8004c5c:	f7ff ff5e 	bl	8004b1c <__NVIC_GetPriorityGrouping>
 8004c60:	6178      	str	r0, [r7, #20]
  
  NVIC_SetPriority(IRQn, NVIC_EncodePriority(prioritygroup, PreemptPriority, SubPriority));
 8004c62:	687a      	ldr	r2, [r7, #4]
 8004c64:	68b9      	ldr	r1, [r7, #8]
 8004c66:	6978      	ldr	r0, [r7, #20]
 8004c68:	f7ff ff90 	bl	8004b8c <NVIC_EncodePriority>
 8004c6c:	4602      	mov	r2, r0
 8004c6e:	f997 300f 	ldrsb.w	r3, [r7, #15]
 8004c72:	4611      	mov	r1, r2
 8004c74:	4618      	mov	r0, r3
 8004c76:	f7ff ff5f 	bl	8004b38 <__NVIC_SetPriority>
}
 8004c7a:	bf00      	nop
 8004c7c:	3718      	adds	r7, #24
 8004c7e:	46bd      	mov	sp, r7
 8004c80:	bd80      	pop	{r7, pc}

08004c82 <HAL_SYSTICK_Config>:
  * @param  TicksNumb: Specifies the ticks Number of ticks between two interrupts.
  * @retval status:  - 0  Function succeeded.
  *                  - 1  Function failed.
  */
uint32_t HAL_SYSTICK_Config(uint32_t TicksNumb)
{
 8004c82:	b580      	push	{r7, lr}
 8004c84:	b082      	sub	sp, #8
 8004c86:	af00      	add	r7, sp, #0
 8004c88:	6078      	str	r0, [r7, #4]
   return SysTick_Config(TicksNumb);
 8004c8a:	6878      	ldr	r0, [r7, #4]
 8004c8c:	f7ff ffb0 	bl	8004bf0 <SysTick_Config>
 8004c90:	4603      	mov	r3, r0
}
 8004c92:	4618      	mov	r0, r3
 8004c94:	3708      	adds	r7, #8
 8004c96:	46bd      	mov	sp, r7
 8004c98:	bd80      	pop	{r7, pc}
	...

08004c9c <HAL_GPIO_Init>:
  * @param  GPIO_Init: pointer to a GPIO_InitTypeDef structure that contains
  *         the configuration information for the specified GPIO peripheral.
  * @retval None
  */
void HAL_GPIO_Init(GPIO_TypeDef  *GPIOx, GPIO_InitTypeDef *GPIO_Init)
{
 8004c9c:	b480      	push	{r7}
 8004c9e:	b08b      	sub	sp, #44	@ 0x2c
 8004ca0:	af00      	add	r7, sp, #0
 8004ca2:	6078      	str	r0, [r7, #4]
 8004ca4:	6039      	str	r1, [r7, #0]
  uint32_t position = 0x00u;
 8004ca6:	2300      	movs	r3, #0
 8004ca8:	627b      	str	r3, [r7, #36]	@ 0x24
  uint32_t ioposition;
  uint32_t iocurrent;
  uint32_t temp;
  uint32_t config = 0x00u;
 8004caa:	2300      	movs	r3, #0
 8004cac:	623b      	str	r3, [r7, #32]
  assert_param(IS_GPIO_ALL_INSTANCE(GPIOx));
  assert_param(IS_GPIO_PIN(GPIO_Init->Pin));
  assert_param(IS_GPIO_MODE(GPIO_Init->Mode));

  /* Configure the port pins */
  while (((GPIO_Init->Pin) >> position) != 0x00u)
 8004cae:	e169      	b.n	8004f84 <HAL_GPIO_Init+0x2e8>
  {
    /* Get the IO position */
    ioposition = (0x01uL << position);
 8004cb0:	2201      	movs	r2, #1
 8004cb2:	6a7b      	ldr	r3, [r7, #36]	@ 0x24
 8004cb4:	fa02 f303 	lsl.w	r3, r2, r3
 8004cb8:	61fb      	str	r3, [r7, #28]

    /* Get the current IO position */
    iocurrent = (uint32_t)(GPIO_Init->Pin) & ioposition;
 8004cba:	683b      	ldr	r3, [r7, #0]
 8004cbc:	681b      	ldr	r3, [r3, #0]
 8004cbe:	69fa      	ldr	r2, [r7, #28]
 8004cc0:	4013      	ands	r3, r2
 8004cc2:	61bb      	str	r3, [r7, #24]

    if (iocurrent == ioposition)
 8004cc4:	69ba      	ldr	r2, [r7, #24]
 8004cc6:	69fb      	ldr	r3, [r7, #28]
 8004cc8:	429a      	cmp	r2, r3
 8004cca:	f040 8158 	bne.w	8004f7e <HAL_GPIO_Init+0x2e2>
    {
      /* Check the Alternate function parameters */
      assert_param(IS_GPIO_AF_INSTANCE(GPIOx));

      /* Based on the required mode, filling config variable with MODEy[1:0] and CNFy[3:2] corresponding bits */
      switch (GPIO_Init->Mode)
 8004cce:	683b      	ldr	r3, [r7, #0]
 8004cd0:	685b      	ldr	r3, [r3, #4]
 8004cd2:	4a9a      	ldr	r2, [pc, #616]	@ (8004f3c <HAL_GPIO_Init+0x2a0>)
 8004cd4:	4293      	cmp	r3, r2
 8004cd6:	d05e      	beq.n	8004d96 <HAL_GPIO_Init+0xfa>
 8004cd8:	4a98      	ldr	r2, [pc, #608]	@ (8004f3c <HAL_GPIO_Init+0x2a0>)
 8004cda:	4293      	cmp	r3, r2
 8004cdc:	d875      	bhi.n	8004dca <HAL_GPIO_Init+0x12e>
 8004cde:	4a98      	ldr	r2, [pc, #608]	@ (8004f40 <HAL_GPIO_Init+0x2a4>)
 8004ce0:	4293      	cmp	r3, r2
 8004ce2:	d058      	beq.n	8004d96 <HAL_GPIO_Init+0xfa>
 8004ce4:	4a96      	ldr	r2, [pc, #600]	@ (8004f40 <HAL_GPIO_Init+0x2a4>)
 8004ce6:	4293      	cmp	r3, r2
 8004ce8:	d86f      	bhi.n	8004dca <HAL_GPIO_Init+0x12e>
 8004cea:	4a96      	ldr	r2, [pc, #600]	@ (8004f44 <HAL_GPIO_Init+0x2a8>)
 8004cec:	4293      	cmp	r3, r2
 8004cee:	d052      	beq.n	8004d96 <HAL_GPIO_Init+0xfa>
 8004cf0:	4a94      	ldr	r2, [pc, #592]	@ (8004f44 <HAL_GPIO_Init+0x2a8>)
 8004cf2:	4293      	cmp	r3, r2
 8004cf4:	d869      	bhi.n	8004dca <HAL_GPIO_Init+0x12e>
 8004cf6:	4a94      	ldr	r2, [pc, #592]	@ (8004f48 <HAL_GPIO_Init+0x2ac>)
 8004cf8:	4293      	cmp	r3, r2
 8004cfa:	d04c      	beq.n	8004d96 <HAL_GPIO_Init+0xfa>
 8004cfc:	4a92      	ldr	r2, [pc, #584]	@ (8004f48 <HAL_GPIO_Init+0x2ac>)
 8004cfe:	4293      	cmp	r3, r2
 8004d00:	d863      	bhi.n	8004dca <HAL_GPIO_Init+0x12e>
 8004d02:	4a92      	ldr	r2, [pc, #584]	@ (8004f4c <HAL_GPIO_Init+0x2b0>)
 8004d04:	4293      	cmp	r3, r2
 8004d06:	d046      	beq.n	8004d96 <HAL_GPIO_Init+0xfa>
 8004d08:	4a90      	ldr	r2, [pc, #576]	@ (8004f4c <HAL_GPIO_Init+0x2b0>)
 8004d0a:	4293      	cmp	r3, r2
 8004d0c:	d85d      	bhi.n	8004dca <HAL_GPIO_Init+0x12e>
 8004d0e:	2b12      	cmp	r3, #18
 8004d10:	d82a      	bhi.n	8004d68 <HAL_GPIO_Init+0xcc>
 8004d12:	2b12      	cmp	r3, #18
 8004d14:	d859      	bhi.n	8004dca <HAL_GPIO_Init+0x12e>
 8004d16:	a201      	add	r2, pc, #4	@ (adr r2, 8004d1c <HAL_GPIO_Init+0x80>)
 8004d18:	f852 f023 	ldr.w	pc, [r2, r3, lsl #2]
 8004d1c:	08004d97 	.word	0x08004d97
 8004d20:	08004d71 	.word	0x08004d71
 8004d24:	08004d83 	.word	0x08004d83
 8004d28:	08004dc5 	.word	0x08004dc5
 8004d2c:	08004dcb 	.word	0x08004dcb
 8004d30:	08004dcb 	.word	0x08004dcb
 8004d34:	08004dcb 	.word	0x08004dcb
 8004d38:	08004dcb 	.word	0x08004dcb
 8004d3c:	08004dcb 	.word	0x08004dcb
 8004d40:	08004dcb 	.word	0x08004dcb
 8004d44:	08004dcb 	.word	0x08004dcb
 8004d48:	08004dcb 	.word	0x08004dcb
 8004d4c:	08004dcb 	.word	0x08004dcb
 8004d50:	08004dcb 	.word	0x08004dcb
 8004d54:	08004dcb 	.word	0x08004dcb
 8004d58:	08004dcb 	.word	0x08004dcb
 8004d5c:	08004dcb 	.word	0x08004dcb
 8004d60:	08004d79 	.word	0x08004d79
 8004d64:	08004d8d 	.word	0x08004d8d
 8004d68:	4a79      	ldr	r2, [pc, #484]	@ (8004f50 <HAL_GPIO_Init+0x2b4>)
 8004d6a:	4293      	cmp	r3, r2
 8004d6c:	d013      	beq.n	8004d96 <HAL_GPIO_Init+0xfa>
          config = GPIO_CR_MODE_INPUT + GPIO_CR_CNF_ANALOG;
          break;

        /* Parameters are checked with assert_param */
        default:
          break;
 8004d6e:	e02c      	b.n	8004dca <HAL_GPIO_Init+0x12e>
          config = GPIO_Init->Speed + GPIO_CR_CNF_GP_OUTPUT_PP;
 8004d70:	683b      	ldr	r3, [r7, #0]
 8004d72:	68db      	ldr	r3, [r3, #12]
 8004d74:	623b      	str	r3, [r7, #32]
          break;
 8004d76:	e029      	b.n	8004dcc <HAL_GPIO_Init+0x130>
          config = GPIO_Init->Speed + GPIO_CR_CNF_GP_OUTPUT_OD;
 8004d78:	683b      	ldr	r3, [r7, #0]
 8004d7a:	68db      	ldr	r3, [r3, #12]
 8004d7c:	3304      	adds	r3, #4
 8004d7e:	623b      	str	r3, [r7, #32]
          break;
 8004d80:	e024      	b.n	8004dcc <HAL_GPIO_Init+0x130>
          config = GPIO_Init->Speed + GPIO_CR_CNF_AF_OUTPUT_PP;
 8004d82:	683b      	ldr	r3, [r7, #0]
 8004d84:	68db      	ldr	r3, [r3, #12]
 8004d86:	3308      	adds	r3, #8
 8004d88:	623b      	str	r3, [r7, #32]
          break;
 8004d8a:	e01f      	b.n	8004dcc <HAL_GPIO_Init+0x130>
          config = GPIO_Init->Speed + GPIO_CR_CNF_AF_OUTPUT_OD;
 8004d8c:	683b      	ldr	r3, [r7, #0]
 8004d8e:	68db      	ldr	r3, [r3, #12]
 8004d90:	330c      	adds	r3, #12
 8004d92:	623b      	str	r3, [r7, #32]
          break;
 8004d94:	e01a      	b.n	8004dcc <HAL_GPIO_Init+0x130>
          if (GPIO_Init->Pull == GPIO_NOPULL)
 8004d96:	683b      	ldr	r3, [r7, #0]
 8004d98:	689b      	ldr	r3, [r3, #8]
 8004d9a:	2b00      	cmp	r3, #0
 8004d9c:	d102      	bne.n	8004da4 <HAL_GPIO_Init+0x108>
            config = GPIO_CR_MODE_INPUT + GPIO_CR_CNF_INPUT_FLOATING;
 8004d9e:	2304      	movs	r3, #4
 8004da0:	623b      	str	r3, [r7, #32]
          break;
 8004da2:	e013      	b.n	8004dcc <HAL_GPIO_Init+0x130>
          else if (GPIO_Init->Pull == GPIO_PULLUP)
 8004da4:	683b      	ldr	r3, [r7, #0]
 8004da6:	689b      	ldr	r3, [r3, #8]
 8004da8:	2b01      	cmp	r3, #1
 8004daa:	d105      	bne.n	8004db8 <HAL_GPIO_Init+0x11c>
            config = GPIO_CR_MODE_INPUT + GPIO_CR_CNF_INPUT_PU_PD;
 8004dac:	2308      	movs	r3, #8
 8004dae:	623b      	str	r3, [r7, #32]
            GPIOx->BSRR = ioposition;
 8004db0:	687b      	ldr	r3, [r7, #4]
 8004db2:	69fa      	ldr	r2, [r7, #28]
 8004db4:	611a      	str	r2, [r3, #16]
          break;
 8004db6:	e009      	b.n	8004dcc <HAL_GPIO_Init+0x130>
            config = GPIO_CR_MODE_INPUT + GPIO_CR_CNF_INPUT_PU_PD;
 8004db8:	2308      	movs	r3, #8
 8004dba:	623b      	str	r3, [r7, #32]
            GPIOx->BRR = ioposition;
 8004dbc:	687b      	ldr	r3, [r7, #4]
 8004dbe:	69fa      	ldr	r2, [r7, #28]
 8004dc0:	615a      	str	r2, [r3, #20]
          break;
 8004dc2:	e003      	b.n	8004dcc <HAL_GPIO_Init+0x130>
          config = GPIO_CR_MODE_INPUT + GPIO_CR_CNF_ANALOG;
 8004dc4:	2300      	movs	r3, #0
 8004dc6:	623b      	str	r3, [r7, #32]
          break;
 8004dc8:	e000      	b.n	8004dcc <HAL_GPIO_Init+0x130>
          break;
 8004dca:	bf00      	nop
      }

      /* Check if the current bit belongs to first half or last half of the pin count number
       in order to address CRH or CRL register*/
      configregister = (iocurrent < GPIO_PIN_8) ? &GPIOx->CRL     : &GPIOx->CRH;
 8004dcc:	69bb      	ldr	r3, [r7, #24]
 8004dce:	2bff      	cmp	r3, #255	@ 0xff
 8004dd0:	d801      	bhi.n	8004dd6 <HAL_GPIO_Init+0x13a>
 8004dd2:	687b      	ldr	r3, [r7, #4]
 8004dd4:	e001      	b.n	8004dda <HAL_GPIO_Init+0x13e>
 8004dd6:	687b      	ldr	r3, [r7, #4]
 8004dd8:	3304      	adds	r3, #4
 8004dda:	617b      	str	r3, [r7, #20]
      registeroffset = (iocurrent < GPIO_PIN_8) ? (position << 2u) : ((position - 8u) << 2u);
 8004ddc:	69bb      	ldr	r3, [r7, #24]
 8004dde:	2bff      	cmp	r3, #255	@ 0xff
 8004de0:	d802      	bhi.n	8004de8 <HAL_GPIO_Init+0x14c>
 8004de2:	6a7b      	ldr	r3, [r7, #36]	@ 0x24
 8004de4:	009b      	lsls	r3, r3, #2
 8004de6:	e002      	b.n	8004dee <HAL_GPIO_Init+0x152>
 8004de8:	6a7b      	ldr	r3, [r7, #36]	@ 0x24
 8004dea:	3b08      	subs	r3, #8
 8004dec:	009b      	lsls	r3, r3, #2
 8004dee:	613b      	str	r3, [r7, #16]

      /* Apply the new configuration of the pin to the register */
      MODIFY_REG((*configregister), ((GPIO_CRL_MODE0 | GPIO_CRL_CNF0) << registeroffset), (config << registeroffset));
 8004df0:	697b      	ldr	r3, [r7, #20]
 8004df2:	681a      	ldr	r2, [r3, #0]
 8004df4:	210f      	movs	r1, #15
 8004df6:	693b      	ldr	r3, [r7, #16]
 8004df8:	fa01 f303 	lsl.w	r3, r1, r3
 8004dfc:	43db      	mvns	r3, r3
 8004dfe:	401a      	ands	r2, r3
 8004e00:	6a39      	ldr	r1, [r7, #32]
 8004e02:	693b      	ldr	r3, [r7, #16]
 8004e04:	fa01 f303 	lsl.w	r3, r1, r3
 8004e08:	431a      	orrs	r2, r3
 8004e0a:	697b      	ldr	r3, [r7, #20]
 8004e0c:	601a      	str	r2, [r3, #0]

      /*--------------------- EXTI Mode Configuration ------------------------*/
      /* Configure the External Interrupt or event for the current IO */
      if ((GPIO_Init->Mode & EXTI_MODE) == EXTI_MODE)
 8004e0e:	683b      	ldr	r3, [r7, #0]
 8004e10:	685b      	ldr	r3, [r3, #4]
 8004e12:	f003 5380 	and.w	r3, r3, #268435456	@ 0x10000000
 8004e16:	2b00      	cmp	r3, #0
 8004e18:	f000 80b1 	beq.w	8004f7e <HAL_GPIO_Init+0x2e2>
      {
        /* Enable AFIO Clock */
        __HAL_RCC_AFIO_CLK_ENABLE();
 8004e1c:	4b4d      	ldr	r3, [pc, #308]	@ (8004f54 <HAL_GPIO_Init+0x2b8>)
 8004e1e:	699b      	ldr	r3, [r3, #24]
 8004e20:	4a4c      	ldr	r2, [pc, #304]	@ (8004f54 <HAL_GPIO_Init+0x2b8>)
 8004e22:	f043 0301 	orr.w	r3, r3, #1
 8004e26:	6193      	str	r3, [r2, #24]
 8004e28:	4b4a      	ldr	r3, [pc, #296]	@ (8004f54 <HAL_GPIO_Init+0x2b8>)
 8004e2a:	699b      	ldr	r3, [r3, #24]
 8004e2c:	f003 0301 	and.w	r3, r3, #1
 8004e30:	60bb      	str	r3, [r7, #8]
 8004e32:	68bb      	ldr	r3, [r7, #8]
        temp = AFIO->EXTICR[position >> 2u];
 8004e34:	4a48      	ldr	r2, [pc, #288]	@ (8004f58 <HAL_GPIO_Init+0x2bc>)
 8004e36:	6a7b      	ldr	r3, [r7, #36]	@ 0x24
 8004e38:	089b      	lsrs	r3, r3, #2
 8004e3a:	3302      	adds	r3, #2
 8004e3c:	f852 3023 	ldr.w	r3, [r2, r3, lsl #2]
 8004e40:	60fb      	str	r3, [r7, #12]
        CLEAR_BIT(temp, (0x0Fu) << (4u * (position & 0x03u)));
 8004e42:	6a7b      	ldr	r3, [r7, #36]	@ 0x24
 8004e44:	f003 0303 	and.w	r3, r3, #3
 8004e48:	009b      	lsls	r3, r3, #2
 8004e4a:	220f      	movs	r2, #15
 8004e4c:	fa02 f303 	lsl.w	r3, r2, r3
 8004e50:	43db      	mvns	r3, r3
 8004e52:	68fa      	ldr	r2, [r7, #12]
 8004e54:	4013      	ands	r3, r2
 8004e56:	60fb      	str	r3, [r7, #12]
        SET_BIT(temp, (GPIO_GET_INDEX(GPIOx)) << (4u * (position & 0x03u)));
 8004e58:	687b      	ldr	r3, [r7, #4]
 8004e5a:	4a40      	ldr	r2, [pc, #256]	@ (8004f5c <HAL_GPIO_Init+0x2c0>)
 8004e5c:	4293      	cmp	r3, r2
 8004e5e:	d013      	beq.n	8004e88 <HAL_GPIO_Init+0x1ec>
 8004e60:	687b      	ldr	r3, [r7, #4]
 8004e62:	4a3f      	ldr	r2, [pc, #252]	@ (8004f60 <HAL_GPIO_Init+0x2c4>)
 8004e64:	4293      	cmp	r3, r2
 8004e66:	d00d      	beq.n	8004e84 <HAL_GPIO_Init+0x1e8>
 8004e68:	687b      	ldr	r3, [r7, #4]
 8004e6a:	4a3e      	ldr	r2, [pc, #248]	@ (8004f64 <HAL_GPIO_Init+0x2c8>)
 8004e6c:	4293      	cmp	r3, r2
 8004e6e:	d007      	beq.n	8004e80 <HAL_GPIO_Init+0x1e4>
 8004e70:	687b      	ldr	r3, [r7, #4]
 8004e72:	4a3d      	ldr	r2, [pc, #244]	@ (8004f68 <HAL_GPIO_Init+0x2cc>)
 8004e74:	4293      	cmp	r3, r2
 8004e76:	d101      	bne.n	8004e7c <HAL_GPIO_Init+0x1e0>
 8004e78:	2303      	movs	r3, #3
 8004e7a:	e006      	b.n	8004e8a <HAL_GPIO_Init+0x1ee>
 8004e7c:	2304      	movs	r3, #4
 8004e7e:	e004      	b.n	8004e8a <HAL_GPIO_Init+0x1ee>
 8004e80:	2302      	movs	r3, #2
 8004e82:	e002      	b.n	8004e8a <HAL_GPIO_Init+0x1ee>
 8004e84:	2301      	movs	r3, #1
 8004e86:	e000      	b.n	8004e8a <HAL_GPIO_Init+0x1ee>
 8004e88:	2300      	movs	r3, #0
 8004e8a:	6a7a      	ldr	r2, [r7, #36]	@ 0x24
 8004e8c:	f002 0203 	and.w	r2, r2, #3
 8004e90:	0092      	lsls	r2, r2, #2
 8004e92:	4093      	lsls	r3, r2
 8004e94:	68fa      	ldr	r2, [r7, #12]
 8004e96:	4313      	orrs	r3, r2
 8004e98:	60fb      	str	r3, [r7, #12]
        AFIO->EXTICR[position >> 2u] = temp;
 8004e9a:	492f      	ldr	r1, [pc, #188]	@ (8004f58 <HAL_GPIO_Init+0x2bc>)
 8004e9c:	6a7b      	ldr	r3, [r7, #36]	@ 0x24
 8004e9e:	089b      	lsrs	r3, r3, #2
 8004ea0:	3302      	adds	r3, #2
 8004ea2:	68fa      	ldr	r2, [r7, #12]
 8004ea4:	f841 2023 	str.w	r2, [r1, r3, lsl #2]


        /* Enable or disable the rising trigger */
        if ((GPIO_Init->Mode & RISING_EDGE) == RISING_EDGE)
 8004ea8:	683b      	ldr	r3, [r7, #0]
 8004eaa:	685b      	ldr	r3, [r3, #4]
 8004eac:	f403 1380 	and.w	r3, r3, #1048576	@ 0x100000
 8004eb0:	2b00      	cmp	r3, #0
 8004eb2:	d006      	beq.n	8004ec2 <HAL_GPIO_Init+0x226>
        {
          SET_BIT(EXTI->RTSR, iocurrent);
 8004eb4:	4b2d      	ldr	r3, [pc, #180]	@ (8004f6c <HAL_GPIO_Init+0x2d0>)
 8004eb6:	689a      	ldr	r2, [r3, #8]
 8004eb8:	492c      	ldr	r1, [pc, #176]	@ (8004f6c <HAL_GPIO_Init+0x2d0>)
 8004eba:	69bb      	ldr	r3, [r7, #24]
 8004ebc:	4313      	orrs	r3, r2
 8004ebe:	608b      	str	r3, [r1, #8]
 8004ec0:	e006      	b.n	8004ed0 <HAL_GPIO_Init+0x234>
        }
        else
        {
          CLEAR_BIT(EXTI->RTSR, iocurrent);
 8004ec2:	4b2a      	ldr	r3, [pc, #168]	@ (8004f6c <HAL_GPIO_Init+0x2d0>)
 8004ec4:	689a      	ldr	r2, [r3, #8]
 8004ec6:	69bb      	ldr	r3, [r7, #24]
 8004ec8:	43db      	mvns	r3, r3
 8004eca:	4928      	ldr	r1, [pc, #160]	@ (8004f6c <HAL_GPIO_Init+0x2d0>)
 8004ecc:	4013      	ands	r3, r2
 8004ece:	608b      	str	r3, [r1, #8]
        }

        /* Enable or disable the falling trigger */
        if ((GPIO_Init->Mode & FALLING_EDGE) == FALLING_EDGE)
 8004ed0:	683b      	ldr	r3, [r7, #0]
 8004ed2:	685b      	ldr	r3, [r3, #4]
 8004ed4:	f403 1300 	and.w	r3, r3, #2097152	@ 0x200000
 8004ed8:	2b00      	cmp	r3, #0
 8004eda:	d006      	beq.n	8004eea <HAL_GPIO_Init+0x24e>
        {
          SET_BIT(EXTI->FTSR, iocurrent);
 8004edc:	4b23      	ldr	r3, [pc, #140]	@ (8004f6c <HAL_GPIO_Init+0x2d0>)
 8004ede:	68da      	ldr	r2, [r3, #12]
 8004ee0:	4922      	ldr	r1, [pc, #136]	@ (8004f6c <HAL_GPIO_Init+0x2d0>)
 8004ee2:	69bb      	ldr	r3, [r7, #24]
 8004ee4:	4313      	orrs	r3, r2
 8004ee6:	60cb      	str	r3, [r1, #12]
 8004ee8:	e006      	b.n	8004ef8 <HAL_GPIO_Init+0x25c>
        }
        else
        {
          CLEAR_BIT(EXTI->FTSR, iocurrent);
 8004eea:	4b20      	ldr	r3, [pc, #128]	@ (8004f6c <HAL_GPIO_Init+0x2d0>)
 8004eec:	68da      	ldr	r2, [r3, #12]
 8004eee:	69bb      	ldr	r3, [r7, #24]
 8004ef0:	43db      	mvns	r3, r3
 8004ef2:	491e      	ldr	r1, [pc, #120]	@ (8004f6c <HAL_GPIO_Init+0x2d0>)
 8004ef4:	4013      	ands	r3, r2
 8004ef6:	60cb      	str	r3, [r1, #12]
        }

        /* Configure the event mask */
        if ((GPIO_Init->Mode & GPIO_MODE_EVT) == GPIO_MODE_EVT)
 8004ef8:	683b      	ldr	r3, [r7, #0]
 8004efa:	685b      	ldr	r3, [r3, #4]
 8004efc:	f403 3300 	and.w	r3, r3, #131072	@ 0x20000
 8004f00:	2b00      	cmp	r3, #0
 8004f02:	d006      	beq.n	8004f12 <HAL_GPIO_Init+0x276>
        {
          SET_BIT(EXTI->EMR, iocurrent);
 8004f04:	4b19      	ldr	r3, [pc, #100]	@ (8004f6c <HAL_GPIO_Init+0x2d0>)
 8004f06:	685a      	ldr	r2, [r3, #4]
 8004f08:	4918      	ldr	r1, [pc, #96]	@ (8004f6c <HAL_GPIO_Init+0x2d0>)
 8004f0a:	69bb      	ldr	r3, [r7, #24]
 8004f0c:	4313      	orrs	r3, r2
 8004f0e:	604b      	str	r3, [r1, #4]
 8004f10:	e006      	b.n	8004f20 <HAL_GPIO_Init+0x284>
        }
        else
        {
          CLEAR_BIT(EXTI->EMR, iocurrent);
 8004f12:	4b16      	ldr	r3, [pc, #88]	@ (8004f6c <HAL_GPIO_Init+0x2d0>)
 8004f14:	685a      	ldr	r2, [r3, #4]
 8004f16:	69bb      	ldr	r3, [r7, #24]
 8004f18:	43db      	mvns	r3, r3
 8004f1a:	4914      	ldr	r1, [pc, #80]	@ (8004f6c <HAL_GPIO_Init+0x2d0>)
 8004f1c:	4013      	ands	r3, r2
 8004f1e:	604b      	str	r3, [r1, #4]
        }

        /* Configure the interrupt mask */
        if ((GPIO_Init->Mode & GPIO_MODE_IT) == GPIO_MODE_IT)
 8004f20:	683b      	ldr	r3, [r7, #0]
 8004f22:	685b      	ldr	r3, [r3, #4]
 8004f24:	f403 3380 	and.w	r3, r3, #65536	@ 0x10000
 8004f28:	2b00      	cmp	r3, #0
 8004f2a:	d021      	beq.n	8004f70 <HAL_GPIO_Init+0x2d4>
        {
          SET_BIT(EXTI->IMR, iocurrent);
 8004f2c:	4b0f      	ldr	r3, [pc, #60]	@ (8004f6c <HAL_GPIO_Init+0x2d0>)
 8004f2e:	681a      	ldr	r2, [r3, #0]
 8004f30:	490e      	ldr	r1, [pc, #56]	@ (8004f6c <HAL_GPIO_Init+0x2d0>)
 8004f32:	69bb      	ldr	r3, [r7, #24]
 8004f34:	4313      	orrs	r3, r2
 8004f36:	600b      	str	r3, [r1, #0]
 8004f38:	e021      	b.n	8004f7e <HAL_GPIO_Init+0x2e2>
 8004f3a:	bf00      	nop
 8004f3c:	10320000 	.word	0x10320000
 8004f40:	10310000 	.word	0x10310000
 8004f44:	10220000 	.word	0x10220000
 8004f48:	10210000 	.word	0x10210000
 8004f4c:	10120000 	.word	0x10120000
 8004f50:	10110000 	.word	0x10110000
 8004f54:	40021000 	.word	0x40021000
 8004f58:	40010000 	.word	0x40010000
 8004f5c:	40010800 	.word	0x40010800
 8004f60:	40010c00 	.word	0x40010c00
 8004f64:	40011000 	.word	0x40011000
 8004f68:	40011400 	.word	0x40011400
 8004f6c:	40010400 	.word	0x40010400
        }
        else
        {
          CLEAR_BIT(EXTI->IMR, iocurrent);
 8004f70:	4b0b      	ldr	r3, [pc, #44]	@ (8004fa0 <HAL_GPIO_Init+0x304>)
 8004f72:	681a      	ldr	r2, [r3, #0]
 8004f74:	69bb      	ldr	r3, [r7, #24]
 8004f76:	43db      	mvns	r3, r3
 8004f78:	4909      	ldr	r1, [pc, #36]	@ (8004fa0 <HAL_GPIO_Init+0x304>)
 8004f7a:	4013      	ands	r3, r2
 8004f7c:	600b      	str	r3, [r1, #0]
        }
      }
    }

	position++;
 8004f7e:	6a7b      	ldr	r3, [r7, #36]	@ 0x24
 8004f80:	3301      	adds	r3, #1
 8004f82:	627b      	str	r3, [r7, #36]	@ 0x24
  while (((GPIO_Init->Pin) >> position) != 0x00u)
 8004f84:	683b      	ldr	r3, [r7, #0]
 8004f86:	681a      	ldr	r2, [r3, #0]
 8004f88:	6a7b      	ldr	r3, [r7, #36]	@ 0x24
 8004f8a:	fa22 f303 	lsr.w	r3, r2, r3
 8004f8e:	2b00      	cmp	r3, #0
 8004f90:	f47f ae8e 	bne.w	8004cb0 <HAL_GPIO_Init+0x14>
  }
}
 8004f94:	bf00      	nop
 8004f96:	bf00      	nop
 8004f98:	372c      	adds	r7, #44	@ 0x2c
 8004f9a:	46bd      	mov	sp, r7
 8004f9c:	bc80      	pop	{r7}
 8004f9e:	4770      	bx	lr
 8004fa0:	40010400 	.word	0x40010400

08004fa4 <HAL_GPIO_WritePin>:
  *            @arg GPIO_PIN_RESET: to clear the port pin
  *            @arg GPIO_PIN_SET: to set the port pin
  * @retval None
  */
void HAL_GPIO_WritePin(GPIO_TypeDef *GPIOx, uint16_t GPIO_Pin, GPIO_PinState PinState)
{
 8004fa4:	b480      	push	{r7}
 8004fa6:	b083      	sub	sp, #12
 8004fa8:	af00      	add	r7, sp, #0
 8004faa:	6078      	str	r0, [r7, #4]
 8004fac:	460b      	mov	r3, r1
 8004fae:	807b      	strh	r3, [r7, #2]
 8004fb0:	4613      	mov	r3, r2
 8004fb2:	707b      	strb	r3, [r7, #1]
  /* Check the parameters */
  assert_param(IS_GPIO_PIN(GPIO_Pin));
  assert_param(IS_GPIO_PIN_ACTION(PinState));

  if (PinState != GPIO_PIN_RESET)
 8004fb4:	787b      	ldrb	r3, [r7, #1]
 8004fb6:	2b00      	cmp	r3, #0
 8004fb8:	d003      	beq.n	8004fc2 <HAL_GPIO_WritePin+0x1e>
  {
    GPIOx->BSRR = GPIO_Pin;
 8004fba:	887a      	ldrh	r2, [r7, #2]
 8004fbc:	687b      	ldr	r3, [r7, #4]
 8004fbe:	611a      	str	r2, [r3, #16]
  }
  else
  {
    GPIOx->BSRR = (uint32_t)GPIO_Pin << 16u;
  }
}
 8004fc0:	e003      	b.n	8004fca <HAL_GPIO_WritePin+0x26>
    GPIOx->BSRR = (uint32_t)GPIO_Pin << 16u;
 8004fc2:	887b      	ldrh	r3, [r7, #2]
 8004fc4:	041a      	lsls	r2, r3, #16
 8004fc6:	687b      	ldr	r3, [r7, #4]
 8004fc8:	611a      	str	r2, [r3, #16]
}
 8004fca:	bf00      	nop
 8004fcc:	370c      	adds	r7, #12
 8004fce:	46bd      	mov	sp, r7
 8004fd0:	bc80      	pop	{r7}
 8004fd2:	4770      	bx	lr

08004fd4 <HAL_RCC_OscConfig>:
  *         supported by this macro. User should request a transition to HSE Off
  *         first and then HSE On or HSE Bypass.
  * @retval HAL status
  */
HAL_StatusTypeDef HAL_RCC_OscConfig(RCC_OscInitTypeDef  *RCC_OscInitStruct)
{
 8004fd4:	b580      	push	{r7, lr}
 8004fd6:	b086      	sub	sp, #24
 8004fd8:	af00      	add	r7, sp, #0
 8004fda:	6078      	str	r0, [r7, #4]
  uint32_t tickstart;
  uint32_t pll_config;

  /* Check Null pointer */
  if (RCC_OscInitStruct == NULL)
 8004fdc:	687b      	ldr	r3, [r7, #4]
 8004fde:	2b00      	cmp	r3, #0
 8004fe0:	d101      	bne.n	8004fe6 <HAL_RCC_OscConfig+0x12>
  {
    return HAL_ERROR;
 8004fe2:	2301      	movs	r3, #1
 8004fe4:	e272      	b.n	80054cc <HAL_RCC_OscConfig+0x4f8>

  /* Check the parameters */
  assert_param(IS_RCC_OSCILLATORTYPE(RCC_OscInitStruct->OscillatorType));

  /*------------------------------- HSE Configuration ------------------------*/
  if (((RCC_OscInitStruct->OscillatorType) & RCC_OSCILLATORTYPE_HSE) == RCC_OSCILLATORTYPE_HSE)
 8004fe6:	687b      	ldr	r3, [r7, #4]
 8004fe8:	681b      	ldr	r3, [r3, #0]
 8004fea:	f003 0301 	and.w	r3, r3, #1
 8004fee:	2b00      	cmp	r3, #0
 8004ff0:	f000 8087 	beq.w	8005102 <HAL_RCC_OscConfig+0x12e>
  {
    /* Check the parameters */
    assert_param(IS_RCC_HSE(RCC_OscInitStruct->HSEState));

    /* When the HSE is used as system clock or clock source for PLL in these cases it is not allowed to be disabled */
    if ((__HAL_RCC_GET_SYSCLK_SOURCE() == RCC_SYSCLKSOURCE_STATUS_HSE)
 8004ff4:	4b92      	ldr	r3, [pc, #584]	@ (8005240 <HAL_RCC_OscConfig+0x26c>)
 8004ff6:	685b      	ldr	r3, [r3, #4]
 8004ff8:	f003 030c 	and.w	r3, r3, #12
 8004ffc:	2b04      	cmp	r3, #4
 8004ffe:	d00c      	beq.n	800501a <HAL_RCC_OscConfig+0x46>
        || ((__HAL_RCC_GET_SYSCLK_SOURCE() == RCC_SYSCLKSOURCE_STATUS_PLLCLK) && (__HAL_RCC_GET_PLL_OSCSOURCE() == RCC_PLLSOURCE_HSE)))
 8005000:	4b8f      	ldr	r3, [pc, #572]	@ (8005240 <HAL_RCC_OscConfig+0x26c>)
 8005002:	685b      	ldr	r3, [r3, #4]
 8005004:	f003 030c 	and.w	r3, r3, #12
 8005008:	2b08      	cmp	r3, #8
 800500a:	d112      	bne.n	8005032 <HAL_RCC_OscConfig+0x5e>
 800500c:	4b8c      	ldr	r3, [pc, #560]	@ (8005240 <HAL_RCC_OscConfig+0x26c>)
 800500e:	685b      	ldr	r3, [r3, #4]
 8005010:	f403 3380 	and.w	r3, r3, #65536	@ 0x10000
 8005014:	f5b3 3f80 	cmp.w	r3, #65536	@ 0x10000
 8005018:	d10b      	bne.n	8005032 <HAL_RCC_OscConfig+0x5e>
    {
      if ((__HAL_RCC_GET_FLAG(RCC_FLAG_HSERDY) != RESET) && (RCC_OscInitStruct->HSEState == RCC_HSE_OFF))
 800501a:	4b89      	ldr	r3, [pc, #548]	@ (8005240 <HAL_RCC_OscConfig+0x26c>)
 800501c:	681b      	ldr	r3, [r3, #0]
 800501e:	f403 3300 	and.w	r3, r3, #131072	@ 0x20000
 8005022:	2b00      	cmp	r3, #0
 8005024:	d06c      	beq.n	8005100 <HAL_RCC_OscConfig+0x12c>
 8005026:	687b      	ldr	r3, [r7, #4]
 8005028:	685b      	ldr	r3, [r3, #4]
 800502a:	2b00      	cmp	r3, #0
 800502c:	d168      	bne.n	8005100 <HAL_RCC_OscConfig+0x12c>
      {
        return HAL_ERROR;
 800502e:	2301      	movs	r3, #1
 8005030:	e24c      	b.n	80054cc <HAL_RCC_OscConfig+0x4f8>
      }
    }
    else
    {
      /* Set the new HSE configuration ---------------------------------------*/
      __HAL_RCC_HSE_CONFIG(RCC_OscInitStruct->HSEState);
 8005032:	687b      	ldr	r3, [r7, #4]
 8005034:	685b      	ldr	r3, [r3, #4]
 8005036:	f5b3 3f80 	cmp.w	r3, #65536	@ 0x10000
 800503a:	d106      	bne.n	800504a <HAL_RCC_OscConfig+0x76>
 800503c:	4b80      	ldr	r3, [pc, #512]	@ (8005240 <HAL_RCC_OscConfig+0x26c>)
 800503e:	681b      	ldr	r3, [r3, #0]
 8005040:	4a7f      	ldr	r2, [pc, #508]	@ (8005240 <HAL_RCC_OscConfig+0x26c>)
 8005042:	f443 3380 	orr.w	r3, r3, #65536	@ 0x10000
 8005046:	6013      	str	r3, [r2, #0]
 8005048:	e02e      	b.n	80050a8 <HAL_RCC_OscConfig+0xd4>
 800504a:	687b      	ldr	r3, [r7, #4]
 800504c:	685b      	ldr	r3, [r3, #4]
 800504e:	2b00      	cmp	r3, #0
 8005050:	d10c      	bne.n	800506c <HAL_RCC_OscConfig+0x98>
 8005052:	4b7b      	ldr	r3, [pc, #492]	@ (8005240 <HAL_RCC_OscConfig+0x26c>)
 8005054:	681b      	ldr	r3, [r3, #0]
 8005056:	4a7a      	ldr	r2, [pc, #488]	@ (8005240 <HAL_RCC_OscConfig+0x26c>)
 8005058:	f423 3380 	bic.w	r3, r3, #65536	@ 0x10000
 800505c:	6013      	str	r3, [r2, #0]
 800505e:	4b78      	ldr	r3, [pc, #480]	@ (8005240 <HAL_RCC_OscConfig+0x26c>)
 8005060:	681b      	ldr	r3, [r3, #0]
 8005062:	4a77      	ldr	r2, [pc, #476]	@ (8005240 <HAL_RCC_OscConfig+0x26c>)
 8005064:	f423 2380 	bic.w	r3, r3, #262144	@ 0x40000
 8005068:	6013      	str	r3, [r2, #0]
 800506a:	e01d      	b.n	80050a8 <HAL_RCC_OscConfig+0xd4>
 800506c:	687b      	ldr	r3, [r7, #4]
 800506e:	685b      	ldr	r3, [r3, #4]
 8005070:	f5b3 2fa0 	cmp.w	r3, #327680	@ 0x50000
 8005074:	d10c      	bne.n	8005090 <HAL_RCC_OscConfig+0xbc>
 8005076:	4b72      	ldr	r3, [pc, #456]	@ (8005240 <HAL_RCC_OscConfig+0x26c>)
 8005078:	681b      	ldr	r3, [r3, #0]
 800507a:	4a71      	ldr	r2, [pc, #452]	@ (8005240 <HAL_RCC_OscConfig+0x26c>)
 800507c:	f443 2380 	orr.w	r3, r3, #262144	@ 0x40000
 8005080:	6013      	str	r3, [r2, #0]
 8005082:	4b6f      	ldr	r3, [pc, #444]	@ (8005240 <HAL_RCC_OscConfig+0x26c>)
 8005084:	681b      	ldr	r3, [r3, #0]
 8005086:	4a6e      	ldr	r2, [pc, #440]	@ (8005240 <HAL_RCC_OscConfig+0x26c>)
 8005088:	f443 3380 	orr.w	r3, r3, #65536	@ 0x10000
 800508c:	6013      	str	r3, [r2, #0]
 800508e:	e00b      	b.n	80050a8 <HAL_RCC_OscConfig+0xd4>
 8005090:	4b6b      	ldr	r3, [pc, #428]	@ (8005240 <HAL_RCC_OscConfig+0x26c>)
 8005092:	681b      	ldr	r3, [r3, #0]
 8005094:	4a6a      	ldr	r2, [pc, #424]	@ (8005240 <HAL_RCC_OscConfig+0x26c>)
 8005096:	f423 3380 	bic.w	r3, r3, #65536	@ 0x10000
 800509a:	6013      	str	r3, [r2, #0]
 800509c:	4b68      	ldr	r3, [pc, #416]	@ (8005240 <HAL_RCC_OscConfig+0x26c>)
 800509e:	681b      	ldr	r3, [r3, #0]
 80050a0:	4a67      	ldr	r2, [pc, #412]	@ (8005240 <HAL_RCC_OscConfig+0x26c>)
 80050a2:	f423 2380 	bic.w	r3, r3, #262144	@ 0x40000
 80050a6:	6013      	str	r3, [r2, #0]


      /* Check the HSE State */
      if (RCC_OscInitStruct->HSEState != RCC_HSE_OFF)
 80050a8:	687b      	ldr	r3, [r7, #4]
 80050aa:	685b      	ldr	r3, [r3, #4]
 80050ac:	2b00      	cmp	r3, #0
 80050ae:	d013      	beq.n	80050d8 <HAL_RCC_OscConfig+0x104>
      {
        /* Get Start Tick */
        tickstart = HAL_GetTick();
 80050b0:	f7ff fce2 	bl	8004a78 <HAL_GetTick>
 80050b4:	6138      	str	r0, [r7, #16]

        /* Wait till HSE is ready */
        while (__HAL_RCC_GET_FLAG(RCC_FLAG_HSERDY) == RESET)
 80050b6:	e008      	b.n	80050ca <HAL_RCC_OscConfig+0xf6>
        {
          if ((HAL_GetTick() - tickstart) > HSE_TIMEOUT_VALUE)
 80050b8:	f7ff fcde 	bl	8004a78 <HAL_GetTick>
 80050bc:	4602      	mov	r2, r0
 80050be:	693b      	ldr	r3, [r7, #16]
 80050c0:	1ad3      	subs	r3, r2, r3
 80050c2:	2b64      	cmp	r3, #100	@ 0x64
 80050c4:	d901      	bls.n	80050ca <HAL_RCC_OscConfig+0xf6>
          {
            return HAL_TIMEOUT;
 80050c6:	2303      	movs	r3, #3
 80050c8:	e200      	b.n	80054cc <HAL_RCC_OscConfig+0x4f8>
        while (__HAL_RCC_GET_FLAG(RCC_FLAG_HSERDY) == RESET)
 80050ca:	4b5d      	ldr	r3, [pc, #372]	@ (8005240 <HAL_RCC_OscConfig+0x26c>)
 80050cc:	681b      	ldr	r3, [r3, #0]
 80050ce:	f403 3300 	and.w	r3, r3, #131072	@ 0x20000
 80050d2:	2b00      	cmp	r3, #0
 80050d4:	d0f0      	beq.n	80050b8 <HAL_RCC_OscConfig+0xe4>
 80050d6:	e014      	b.n	8005102 <HAL_RCC_OscConfig+0x12e>
        }
      }
      else
      {
        /* Get Start Tick */
        tickstart = HAL_GetTick();
 80050d8:	f7ff fcce 	bl	8004a78 <HAL_GetTick>
 80050dc:	6138      	str	r0, [r7, #16]

        /* Wait till HSE is disabled */
        while (__HAL_RCC_GET_FLAG(RCC_FLAG_HSERDY) != RESET)
 80050de:	e008      	b.n	80050f2 <HAL_RCC_OscConfig+0x11e>
        {
          if ((HAL_GetTick() - tickstart) > HSE_TIMEOUT_VALUE)
 80050e0:	f7ff fcca 	bl	8004a78 <HAL_GetTick>
 80050e4:	4602      	mov	r2, r0
 80050e6:	693b      	ldr	r3, [r7, #16]
 80050e8:	1ad3      	subs	r3, r2, r3
 80050ea:	2b64      	cmp	r3, #100	@ 0x64
 80050ec:	d901      	bls.n	80050f2 <HAL_RCC_OscConfig+0x11e>
          {
            return HAL_TIMEOUT;
 80050ee:	2303      	movs	r3, #3
 80050f0:	e1ec      	b.n	80054cc <HAL_RCC_OscConfig+0x4f8>
        while (__HAL_RCC_GET_FLAG(RCC_FLAG_HSERDY) != RESET)
 80050f2:	4b53      	ldr	r3, [pc, #332]	@ (8005240 <HAL_RCC_OscConfig+0x26c>)
 80050f4:	681b      	ldr	r3, [r3, #0]
 80050f6:	f403 3300 	and.w	r3, r3, #131072	@ 0x20000
 80050fa:	2b00      	cmp	r3, #0
 80050fc:	d1f0      	bne.n	80050e0 <HAL_RCC_OscConfig+0x10c>
 80050fe:	e000      	b.n	8005102 <HAL_RCC_OscConfig+0x12e>
      if ((__HAL_RCC_GET_FLAG(RCC_FLAG_HSERDY) != RESET) && (RCC_OscInitStruct->HSEState == RCC_HSE_OFF))
 8005100:	bf00      	nop
        }
      }
    }
  }
  /*----------------------------- HSI Configuration --------------------------*/
  if (((RCC_OscInitStruct->OscillatorType) & RCC_OSCILLATORTYPE_HSI) == RCC_OSCILLATORTYPE_HSI)
 8005102:	687b      	ldr	r3, [r7, #4]
 8005104:	681b      	ldr	r3, [r3, #0]
 8005106:	f003 0302 	and.w	r3, r3, #2
 800510a:	2b00      	cmp	r3, #0
 800510c:	d063      	beq.n	80051d6 <HAL_RCC_OscConfig+0x202>
    /* Check the parameters */
    assert_param(IS_RCC_HSI(RCC_OscInitStruct->HSIState));
    assert_param(IS_RCC_CALIBRATION_VALUE(RCC_OscInitStruct->HSICalibrationValue));

    /* Check if HSI is used as system clock or as PLL source when PLL is selected as system clock */
    if ((__HAL_RCC_GET_SYSCLK_SOURCE() == RCC_SYSCLKSOURCE_STATUS_HSI)
 800510e:	4b4c      	ldr	r3, [pc, #304]	@ (8005240 <HAL_RCC_OscConfig+0x26c>)
 8005110:	685b      	ldr	r3, [r3, #4]
 8005112:	f003 030c 	and.w	r3, r3, #12
 8005116:	2b00      	cmp	r3, #0
 8005118:	d00b      	beq.n	8005132 <HAL_RCC_OscConfig+0x15e>
        || ((__HAL_RCC_GET_SYSCLK_SOURCE() == RCC_SYSCLKSOURCE_STATUS_PLLCLK) && (__HAL_RCC_GET_PLL_OSCSOURCE() == RCC_PLLSOURCE_HSI_DIV2)))
 800511a:	4b49      	ldr	r3, [pc, #292]	@ (8005240 <HAL_RCC_OscConfig+0x26c>)
 800511c:	685b      	ldr	r3, [r3, #4]
 800511e:	f003 030c 	and.w	r3, r3, #12
 8005122:	2b08      	cmp	r3, #8
 8005124:	d11c      	bne.n	8005160 <HAL_RCC_OscConfig+0x18c>
 8005126:	4b46      	ldr	r3, [pc, #280]	@ (8005240 <HAL_RCC_OscConfig+0x26c>)
 8005128:	685b      	ldr	r3, [r3, #4]
 800512a:	f403 3380 	and.w	r3, r3, #65536	@ 0x10000
 800512e:	2b00      	cmp	r3, #0
 8005130:	d116      	bne.n	8005160 <HAL_RCC_OscConfig+0x18c>
    {
      /* When HSI is used as system clock it will not disabled */
      if ((__HAL_RCC_GET_FLAG(RCC_FLAG_HSIRDY) != RESET) && (RCC_OscInitStruct->HSIState != RCC_HSI_ON))
 8005132:	4b43      	ldr	r3, [pc, #268]	@ (8005240 <HAL_RCC_OscConfig+0x26c>)
 8005134:	681b      	ldr	r3, [r3, #0]
 8005136:	f003 0302 	and.w	r3, r3, #2
 800513a:	2b00      	cmp	r3, #0
 800513c:	d005      	beq.n	800514a <HAL_RCC_OscConfig+0x176>
 800513e:	687b      	ldr	r3, [r7, #4]
 8005140:	691b      	ldr	r3, [r3, #16]
 8005142:	2b01      	cmp	r3, #1
 8005144:	d001      	beq.n	800514a <HAL_RCC_OscConfig+0x176>
      {
        return HAL_ERROR;
 8005146:	2301      	movs	r3, #1
 8005148:	e1c0      	b.n	80054cc <HAL_RCC_OscConfig+0x4f8>
      }
      /* Otherwise, just the calibration is allowed */
      else
      {
        /* Adjusts the Internal High Speed oscillator (HSI) calibration value.*/
        __HAL_RCC_HSI_CALIBRATIONVALUE_ADJUST(RCC_OscInitStruct->HSICalibrationValue);
 800514a:	4b3d      	ldr	r3, [pc, #244]	@ (8005240 <HAL_RCC_OscConfig+0x26c>)
 800514c:	681b      	ldr	r3, [r3, #0]
 800514e:	f023 02f8 	bic.w	r2, r3, #248	@ 0xf8
 8005152:	687b      	ldr	r3, [r7, #4]
 8005154:	695b      	ldr	r3, [r3, #20]
 8005156:	00db      	lsls	r3, r3, #3
 8005158:	4939      	ldr	r1, [pc, #228]	@ (8005240 <HAL_RCC_OscConfig+0x26c>)
 800515a:	4313      	orrs	r3, r2
 800515c:	600b      	str	r3, [r1, #0]
      if ((__HAL_RCC_GET_FLAG(RCC_FLAG_HSIRDY) != RESET) && (RCC_OscInitStruct->HSIState != RCC_HSI_ON))
 800515e:	e03a      	b.n	80051d6 <HAL_RCC_OscConfig+0x202>
      }
    }
    else
    {
      /* Check the HSI State */
      if (RCC_OscInitStruct->HSIState != RCC_HSI_OFF)
 8005160:	687b      	ldr	r3, [r7, #4]
 8005162:	691b      	ldr	r3, [r3, #16]
 8005164:	2b00      	cmp	r3, #0
 8005166:	d020      	beq.n	80051aa <HAL_RCC_OscConfig+0x1d6>
      {
        /* Enable the Internal High Speed oscillator (HSI). */
        __HAL_RCC_HSI_ENABLE();
 8005168:	4b36      	ldr	r3, [pc, #216]	@ (8005244 <HAL_RCC_OscConfig+0x270>)
 800516a:	2201      	movs	r2, #1
 800516c:	601a      	str	r2, [r3, #0]

        /* Get Start Tick */
        tickstart = HAL_GetTick();
 800516e:	f7ff fc83 	bl	8004a78 <HAL_GetTick>
 8005172:	6138      	str	r0, [r7, #16]

        /* Wait till HSI is ready */
        while (__HAL_RCC_GET_FLAG(RCC_FLAG_HSIRDY) == RESET)
 8005174:	e008      	b.n	8005188 <HAL_RCC_OscConfig+0x1b4>
        {
          if ((HAL_GetTick() - tickstart) > HSI_TIMEOUT_VALUE)
 8005176:	f7ff fc7f 	bl	8004a78 <HAL_GetTick>
 800517a:	4602      	mov	r2, r0
 800517c:	693b      	ldr	r3, [r7, #16]
 800517e:	1ad3      	subs	r3, r2, r3
 8005180:	2b02      	cmp	r3, #2
 8005182:	d901      	bls.n	8005188 <HAL_RCC_OscConfig+0x1b4>
          {
            return HAL_TIMEOUT;
 8005184:	2303      	movs	r3, #3
 8005186:	e1a1      	b.n	80054cc <HAL_RCC_OscConfig+0x4f8>
        while (__HAL_RCC_GET_FLAG(RCC_FLAG_HSIRDY) == RESET)
 8005188:	4b2d      	ldr	r3, [pc, #180]	@ (8005240 <HAL_RCC_OscConfig+0x26c>)
 800518a:	681b      	ldr	r3, [r3, #0]
 800518c:	f003 0302 	and.w	r3, r3, #2
 8005190:	2b00      	cmp	r3, #0
 8005192:	d0f0      	beq.n	8005176 <HAL_RCC_OscConfig+0x1a2>
          }
        }

        /* Adjusts the Internal High Speed oscillator (HSI) calibration value.*/
        __HAL_RCC_HSI_CALIBRATIONVALUE_ADJUST(RCC_OscInitStruct->HSICalibrationValue);
 8005194:	4b2a      	ldr	r3, [pc, #168]	@ (8005240 <HAL_RCC_OscConfig+0x26c>)
 8005196:	681b      	ldr	r3, [r3, #0]
 8005198:	f023 02f8 	bic.w	r2, r3, #248	@ 0xf8
 800519c:	687b      	ldr	r3, [r7, #4]
 800519e:	695b      	ldr	r3, [r3, #20]
 80051a0:	00db      	lsls	r3, r3, #3
 80051a2:	4927      	ldr	r1, [pc, #156]	@ (8005240 <HAL_RCC_OscConfig+0x26c>)
 80051a4:	4313      	orrs	r3, r2
 80051a6:	600b      	str	r3, [r1, #0]
 80051a8:	e015      	b.n	80051d6 <HAL_RCC_OscConfig+0x202>
      }
      else
      {
        /* Disable the Internal High Speed oscillator (HSI). */
        __HAL_RCC_HSI_DISABLE();
 80051aa:	4b26      	ldr	r3, [pc, #152]	@ (8005244 <HAL_RCC_OscConfig+0x270>)
 80051ac:	2200      	movs	r2, #0
 80051ae:	601a      	str	r2, [r3, #0]

        /* Get Start Tick */
        tickstart = HAL_GetTick();
 80051b0:	f7ff fc62 	bl	8004a78 <HAL_GetTick>
 80051b4:	6138      	str	r0, [r7, #16]

        /* Wait till HSI is disabled */
        while (__HAL_RCC_GET_FLAG(RCC_FLAG_HSIRDY) != RESET)
 80051b6:	e008      	b.n	80051ca <HAL_RCC_OscConfig+0x1f6>
        {
          if ((HAL_GetTick() - tickstart) > HSI_TIMEOUT_VALUE)
 80051b8:	f7ff fc5e 	bl	8004a78 <HAL_GetTick>
 80051bc:	4602      	mov	r2, r0
 80051be:	693b      	ldr	r3, [r7, #16]
 80051c0:	1ad3      	subs	r3, r2, r3
 80051c2:	2b02      	cmp	r3, #2
 80051c4:	d901      	bls.n	80051ca <HAL_RCC_OscConfig+0x1f6>
          {
            return HAL_TIMEOUT;
 80051c6:	2303      	movs	r3, #3
 80051c8:	e180      	b.n	80054cc <HAL_RCC_OscConfig+0x4f8>
        while (__HAL_RCC_GET_FLAG(RCC_FLAG_HSIRDY) != RESET)
 80051ca:	4b1d      	ldr	r3, [pc, #116]	@ (8005240 <HAL_RCC_OscConfig+0x26c>)
 80051cc:	681b      	ldr	r3, [r3, #0]
 80051ce:	f003 0302 	and.w	r3, r3, #2
 80051d2:	2b00      	cmp	r3, #0
 80051d4:	d1f0      	bne.n	80051b8 <HAL_RCC_OscConfig+0x1e4>
        }
      }
    }
  }
  /*------------------------------ LSI Configuration -------------------------*/
  if (((RCC_OscInitStruct->OscillatorType) & RCC_OSCILLATORTYPE_LSI) == RCC_OSCILLATORTYPE_LSI)
 80051d6:	687b      	ldr	r3, [r7, #4]
 80051d8:	681b      	ldr	r3, [r3, #0]
 80051da:	f003 0308 	and.w	r3, r3, #8
 80051de:	2b00      	cmp	r3, #0
 80051e0:	d03a      	beq.n	8005258 <HAL_RCC_OscConfig+0x284>
  {
    /* Check the parameters */
    assert_param(IS_RCC_LSI(RCC_OscInitStruct->LSIState));

    /* Check the LSI State */
    if (RCC_OscInitStruct->LSIState != RCC_LSI_OFF)
 80051e2:	687b      	ldr	r3, [r7, #4]
 80051e4:	699b      	ldr	r3, [r3, #24]
 80051e6:	2b00      	cmp	r3, #0
 80051e8:	d019      	beq.n	800521e <HAL_RCC_OscConfig+0x24a>
    {
      /* Enable the Internal Low Speed oscillator (LSI). */
      __HAL_RCC_LSI_ENABLE();
 80051ea:	4b17      	ldr	r3, [pc, #92]	@ (8005248 <HAL_RCC_OscConfig+0x274>)
 80051ec:	2201      	movs	r2, #1
 80051ee:	601a      	str	r2, [r3, #0]

      /* Get Start Tick */
      tickstart = HAL_GetTick();
 80051f0:	f7ff fc42 	bl	8004a78 <HAL_GetTick>
 80051f4:	6138      	str	r0, [r7, #16]

      /* Wait till LSI is ready */
      while (__HAL_RCC_GET_FLAG(RCC_FLAG_LSIRDY) == RESET)
 80051f6:	e008      	b.n	800520a <HAL_RCC_OscConfig+0x236>
      {
        if ((HAL_GetTick() - tickstart) > LSI_TIMEOUT_VALUE)
 80051f8:	f7ff fc3e 	bl	8004a78 <HAL_GetTick>
 80051fc:	4602      	mov	r2, r0
 80051fe:	693b      	ldr	r3, [r7, #16]
 8005200:	1ad3      	subs	r3, r2, r3
 8005202:	2b02      	cmp	r3, #2
 8005204:	d901      	bls.n	800520a <HAL_RCC_OscConfig+0x236>
        {
          return HAL_TIMEOUT;
 8005206:	2303      	movs	r3, #3
 8005208:	e160      	b.n	80054cc <HAL_RCC_OscConfig+0x4f8>
      while (__HAL_RCC_GET_FLAG(RCC_FLAG_LSIRDY) == RESET)
 800520a:	4b0d      	ldr	r3, [pc, #52]	@ (8005240 <HAL_RCC_OscConfig+0x26c>)
 800520c:	6a5b      	ldr	r3, [r3, #36]	@ 0x24
 800520e:	f003 0302 	and.w	r3, r3, #2
 8005212:	2b00      	cmp	r3, #0
 8005214:	d0f0      	beq.n	80051f8 <HAL_RCC_OscConfig+0x224>
        }
      }
      /*  To have a fully stabilized clock in the specified range, a software delay of 1ms
          should be added.*/
      RCC_Delay(1);
 8005216:	2001      	movs	r0, #1
 8005218:	f000 face 	bl	80057b8 <RCC_Delay>
 800521c:	e01c      	b.n	8005258 <HAL_RCC_OscConfig+0x284>
    }
    else
    {
      /* Disable the Internal Low Speed oscillator (LSI). */
      __HAL_RCC_LSI_DISABLE();
 800521e:	4b0a      	ldr	r3, [pc, #40]	@ (8005248 <HAL_RCC_OscConfig+0x274>)
 8005220:	2200      	movs	r2, #0
 8005222:	601a      	str	r2, [r3, #0]

      /* Get Start Tick */
      tickstart = HAL_GetTick();
 8005224:	f7ff fc28 	bl	8004a78 <HAL_GetTick>
 8005228:	6138      	str	r0, [r7, #16]

      /* Wait till LSI is disabled */
      while (__HAL_RCC_GET_FLAG(RCC_FLAG_LSIRDY) != RESET)
 800522a:	e00f      	b.n	800524c <HAL_RCC_OscConfig+0x278>
      {
        if ((HAL_GetTick() - tickstart) > LSI_TIMEOUT_VALUE)
 800522c:	f7ff fc24 	bl	8004a78 <HAL_GetTick>
 8005230:	4602      	mov	r2, r0
 8005232:	693b      	ldr	r3, [r7, #16]
 8005234:	1ad3      	subs	r3, r2, r3
 8005236:	2b02      	cmp	r3, #2
 8005238:	d908      	bls.n	800524c <HAL_RCC_OscConfig+0x278>
        {
          return HAL_TIMEOUT;
 800523a:	2303      	movs	r3, #3
 800523c:	e146      	b.n	80054cc <HAL_RCC_OscConfig+0x4f8>
 800523e:	bf00      	nop
 8005240:	40021000 	.word	0x40021000
 8005244:	42420000 	.word	0x42420000
 8005248:	42420480 	.word	0x42420480
      while (__HAL_RCC_GET_FLAG(RCC_FLAG_LSIRDY) != RESET)
 800524c:	4b92      	ldr	r3, [pc, #584]	@ (8005498 <HAL_RCC_OscConfig+0x4c4>)
 800524e:	6a5b      	ldr	r3, [r3, #36]	@ 0x24
 8005250:	f003 0302 	and.w	r3, r3, #2
 8005254:	2b00      	cmp	r3, #0
 8005256:	d1e9      	bne.n	800522c <HAL_RCC_OscConfig+0x258>
        }
      }
    }
  }
  /*------------------------------ LSE Configuration -------------------------*/
  if (((RCC_OscInitStruct->OscillatorType) & RCC_OSCILLATORTYPE_LSE) == RCC_OSCILLATORTYPE_LSE)
 8005258:	687b      	ldr	r3, [r7, #4]
 800525a:	681b      	ldr	r3, [r3, #0]
 800525c:	f003 0304 	and.w	r3, r3, #4
 8005260:	2b00      	cmp	r3, #0
 8005262:	f000 80a6 	beq.w	80053b2 <HAL_RCC_OscConfig+0x3de>
  {
    FlagStatus       pwrclkchanged = RESET;
 8005266:	2300      	movs	r3, #0
 8005268:	75fb      	strb	r3, [r7, #23]
    /* Check the parameters */
    assert_param(IS_RCC_LSE(RCC_OscInitStruct->LSEState));

    /* Update LSE configuration in Backup Domain control register    */
    /* Requires to enable write access to Backup Domain of necessary */
    if (__HAL_RCC_PWR_IS_CLK_DISABLED())
 800526a:	4b8b      	ldr	r3, [pc, #556]	@ (8005498 <HAL_RCC_OscConfig+0x4c4>)
 800526c:	69db      	ldr	r3, [r3, #28]
 800526e:	f003 5380 	and.w	r3, r3, #268435456	@ 0x10000000
 8005272:	2b00      	cmp	r3, #0
 8005274:	d10d      	bne.n	8005292 <HAL_RCC_OscConfig+0x2be>
    {
      __HAL_RCC_PWR_CLK_ENABLE();
 8005276:	4b88      	ldr	r3, [pc, #544]	@ (8005498 <HAL_RCC_OscConfig+0x4c4>)
 8005278:	69db      	ldr	r3, [r3, #28]
 800527a:	4a87      	ldr	r2, [pc, #540]	@ (8005498 <HAL_RCC_OscConfig+0x4c4>)
 800527c:	f043 5380 	orr.w	r3, r3, #268435456	@ 0x10000000
 8005280:	61d3      	str	r3, [r2, #28]
 8005282:	4b85      	ldr	r3, [pc, #532]	@ (8005498 <HAL_RCC_OscConfig+0x4c4>)
 8005284:	69db      	ldr	r3, [r3, #28]
 8005286:	f003 5380 	and.w	r3, r3, #268435456	@ 0x10000000
 800528a:	60bb      	str	r3, [r7, #8]
 800528c:	68bb      	ldr	r3, [r7, #8]
      pwrclkchanged = SET;
 800528e:	2301      	movs	r3, #1
 8005290:	75fb      	strb	r3, [r7, #23]
    }

    if (HAL_IS_BIT_CLR(PWR->CR, PWR_CR_DBP))
 8005292:	4b82      	ldr	r3, [pc, #520]	@ (800549c <HAL_RCC_OscConfig+0x4c8>)
 8005294:	681b      	ldr	r3, [r3, #0]
 8005296:	f403 7380 	and.w	r3, r3, #256	@ 0x100
 800529a:	2b00      	cmp	r3, #0
 800529c:	d118      	bne.n	80052d0 <HAL_RCC_OscConfig+0x2fc>
    {
      /* Enable write access to Backup domain */
      SET_BIT(PWR->CR, PWR_CR_DBP);
 800529e:	4b7f      	ldr	r3, [pc, #508]	@ (800549c <HAL_RCC_OscConfig+0x4c8>)
 80052a0:	681b      	ldr	r3, [r3, #0]
 80052a2:	4a7e      	ldr	r2, [pc, #504]	@ (800549c <HAL_RCC_OscConfig+0x4c8>)
 80052a4:	f443 7380 	orr.w	r3, r3, #256	@ 0x100
 80052a8:	6013      	str	r3, [r2, #0]

      /* Wait for Backup domain Write protection disable */
      tickstart = HAL_GetTick();
 80052aa:	f7ff fbe5 	bl	8004a78 <HAL_GetTick>
 80052ae:	6138      	str	r0, [r7, #16]

      while (HAL_IS_BIT_CLR(PWR->CR, PWR_CR_DBP))
 80052b0:	e008      	b.n	80052c4 <HAL_RCC_OscConfig+0x2f0>
      {
        if ((HAL_GetTick() - tickstart) > RCC_DBP_TIMEOUT_VALUE)
 80052b2:	f7ff fbe1 	bl	8004a78 <HAL_GetTick>
 80052b6:	4602      	mov	r2, r0
 80052b8:	693b      	ldr	r3, [r7, #16]
 80052ba:	1ad3      	subs	r3, r2, r3
 80052bc:	2b64      	cmp	r3, #100	@ 0x64
 80052be:	d901      	bls.n	80052c4 <HAL_RCC_OscConfig+0x2f0>
        {
          return HAL_TIMEOUT;
 80052c0:	2303      	movs	r3, #3
 80052c2:	e103      	b.n	80054cc <HAL_RCC_OscConfig+0x4f8>
      while (HAL_IS_BIT_CLR(PWR->CR, PWR_CR_DBP))
 80052c4:	4b75      	ldr	r3, [pc, #468]	@ (800549c <HAL_RCC_OscConfig+0x4c8>)
 80052c6:	681b      	ldr	r3, [r3, #0]
 80052c8:	f403 7380 	and.w	r3, r3, #256	@ 0x100
 80052cc:	2b00      	cmp	r3, #0
 80052ce:	d0f0      	beq.n	80052b2 <HAL_RCC_OscConfig+0x2de>
        }
      }
    }

    /* Set the new LSE configuration -----------------------------------------*/
    __HAL_RCC_LSE_CONFIG(RCC_OscInitStruct->LSEState);
 80052d0:	687b      	ldr	r3, [r7, #4]
 80052d2:	68db      	ldr	r3, [r3, #12]
 80052d4:	2b01      	cmp	r3, #1
 80052d6:	d106      	bne.n	80052e6 <HAL_RCC_OscConfig+0x312>
 80052d8:	4b6f      	ldr	r3, [pc, #444]	@ (8005498 <HAL_RCC_OscConfig+0x4c4>)
 80052da:	6a1b      	ldr	r3, [r3, #32]
 80052dc:	4a6e      	ldr	r2, [pc, #440]	@ (8005498 <HAL_RCC_OscConfig+0x4c4>)
 80052de:	f043 0301 	orr.w	r3, r3, #1
 80052e2:	6213      	str	r3, [r2, #32]
 80052e4:	e02d      	b.n	8005342 <HAL_RCC_OscConfig+0x36e>
 80052e6:	687b      	ldr	r3, [r7, #4]
 80052e8:	68db      	ldr	r3, [r3, #12]
 80052ea:	2b00      	cmp	r3, #0
 80052ec:	d10c      	bne.n	8005308 <HAL_RCC_OscConfig+0x334>
 80052ee:	4b6a      	ldr	r3, [pc, #424]	@ (8005498 <HAL_RCC_OscConfig+0x4c4>)
 80052f0:	6a1b      	ldr	r3, [r3, #32]
 80052f2:	4a69      	ldr	r2, [pc, #420]	@ (8005498 <HAL_RCC_OscConfig+0x4c4>)
 80052f4:	f023 0301 	bic.w	r3, r3, #1
 80052f8:	6213      	str	r3, [r2, #32]
 80052fa:	4b67      	ldr	r3, [pc, #412]	@ (8005498 <HAL_RCC_OscConfig+0x4c4>)
 80052fc:	6a1b      	ldr	r3, [r3, #32]
 80052fe:	4a66      	ldr	r2, [pc, #408]	@ (8005498 <HAL_RCC_OscConfig+0x4c4>)
 8005300:	f023 0304 	bic.w	r3, r3, #4
 8005304:	6213      	str	r3, [r2, #32]
 8005306:	e01c      	b.n	8005342 <HAL_RCC_OscConfig+0x36e>
 8005308:	687b      	ldr	r3, [r7, #4]
 800530a:	68db      	ldr	r3, [r3, #12]
 800530c:	2b05      	cmp	r3, #5
 800530e:	d10c      	bne.n	800532a <HAL_RCC_OscConfig+0x356>
 8005310:	4b61      	ldr	r3, [pc, #388]	@ (8005498 <HAL_RCC_OscConfig+0x4c4>)
 8005312:	6a1b      	ldr	r3, [r3, #32]
 8005314:	4a60      	ldr	r2, [pc, #384]	@ (8005498 <HAL_RCC_OscConfig+0x4c4>)
 8005316:	f043 0304 	orr.w	r3, r3, #4
 800531a:	6213      	str	r3, [r2, #32]
 800531c:	4b5e      	ldr	r3, [pc, #376]	@ (8005498 <HAL_RCC_OscConfig+0x4c4>)
 800531e:	6a1b      	ldr	r3, [r3, #32]
 8005320:	4a5d      	ldr	r2, [pc, #372]	@ (8005498 <HAL_RCC_OscConfig+0x4c4>)
 8005322:	f043 0301 	orr.w	r3, r3, #1
 8005326:	6213      	str	r3, [r2, #32]
 8005328:	e00b      	b.n	8005342 <HAL_RCC_OscConfig+0x36e>
 800532a:	4b5b      	ldr	r3, [pc, #364]	@ (8005498 <HAL_RCC_OscConfig+0x4c4>)
 800532c:	6a1b      	ldr	r3, [r3, #32]
 800532e:	4a5a      	ldr	r2, [pc, #360]	@ (8005498 <HAL_RCC_OscConfig+0x4c4>)
 8005330:	f023 0301 	bic.w	r3, r3, #1
 8005334:	6213      	str	r3, [r2, #32]
 8005336:	4b58      	ldr	r3, [pc, #352]	@ (8005498 <HAL_RCC_OscConfig+0x4c4>)
 8005338:	6a1b      	ldr	r3, [r3, #32]
 800533a:	4a57      	ldr	r2, [pc, #348]	@ (8005498 <HAL_RCC_OscConfig+0x4c4>)
 800533c:	f023 0304 	bic.w	r3, r3, #4
 8005340:	6213      	str	r3, [r2, #32]
    /* Check the LSE State */
    if (RCC_OscInitStruct->LSEState != RCC_LSE_OFF)
 8005342:	687b      	ldr	r3, [r7, #4]
 8005344:	68db      	ldr	r3, [r3, #12]
 8005346:	2b00      	cmp	r3, #0
 8005348:	d015      	beq.n	8005376 <HAL_RCC_OscConfig+0x3a2>
    {
      /* Get Start Tick */
      tickstart = HAL_GetTick();
 800534a:	f7ff fb95 	bl	8004a78 <HAL_GetTick>
 800534e:	6138      	str	r0, [r7, #16]

      /* Wait till LSE is ready */
      while (__HAL_RCC_GET_FLAG(RCC_FLAG_LSERDY) == RESET)
 8005350:	e00a      	b.n	8005368 <HAL_RCC_OscConfig+0x394>
      {
        if ((HAL_GetTick() - tickstart) > RCC_LSE_TIMEOUT_VALUE)
 8005352:	f7ff fb91 	bl	8004a78 <HAL_GetTick>
 8005356:	4602      	mov	r2, r0
 8005358:	693b      	ldr	r3, [r7, #16]
 800535a:	1ad3      	subs	r3, r2, r3
 800535c:	f241 3288 	movw	r2, #5000	@ 0x1388
 8005360:	4293      	cmp	r3, r2
 8005362:	d901      	bls.n	8005368 <HAL_RCC_OscConfig+0x394>
        {
          return HAL_TIMEOUT;
 8005364:	2303      	movs	r3, #3
 8005366:	e0b1      	b.n	80054cc <HAL_RCC_OscConfig+0x4f8>
      while (__HAL_RCC_GET_FLAG(RCC_FLAG_LSERDY) == RESET)
 8005368:	4b4b      	ldr	r3, [pc, #300]	@ (8005498 <HAL_RCC_OscConfig+0x4c4>)
 800536a:	6a1b      	ldr	r3, [r3, #32]
 800536c:	f003 0302 	and.w	r3, r3, #2
 8005370:	2b00      	cmp	r3, #0
 8005372:	d0ee      	beq.n	8005352 <HAL_RCC_OscConfig+0x37e>
 8005374:	e014      	b.n	80053a0 <HAL_RCC_OscConfig+0x3cc>
      }
    }
    else
    {
      /* Get Start Tick */
      tickstart = HAL_GetTick();
 8005376:	f7ff fb7f 	bl	8004a78 <HAL_GetTick>
 800537a:	6138      	str	r0, [r7, #16]

      /* Wait till LSE is disabled */
      while (__HAL_RCC_GET_FLAG(RCC_FLAG_LSERDY) != RESET)
 800537c:	e00a      	b.n	8005394 <HAL_RCC_OscConfig+0x3c0>
      {
        if ((HAL_GetTick() - tickstart) > RCC_LSE_TIMEOUT_VALUE)
 800537e:	f7ff fb7b 	bl	8004a78 <HAL_GetTick>
 8005382:	4602      	mov	r2, r0
 8005384:	693b      	ldr	r3, [r7, #16]
 8005386:	1ad3      	subs	r3, r2, r3
 8005388:	f241 3288 	movw	r2, #5000	@ 0x1388
 800538c:	4293      	cmp	r3, r2
 800538e:	d901      	bls.n	8005394 <HAL_RCC_OscConfig+0x3c0>
        {
          return HAL_TIMEOUT;
 8005390:	2303      	movs	r3, #3
 8005392:	e09b      	b.n	80054cc <HAL_RCC_OscConfig+0x4f8>
      while (__HAL_RCC_GET_FLAG(RCC_FLAG_LSERDY) != RESET)
 8005394:	4b40      	ldr	r3, [pc, #256]	@ (8005498 <HAL_RCC_OscConfig+0x4c4>)
 8005396:	6a1b      	ldr	r3, [r3, #32]
 8005398:	f003 0302 	and.w	r3, r3, #2
 800539c:	2b00      	cmp	r3, #0
 800539e:	d1ee      	bne.n	800537e <HAL_RCC_OscConfig+0x3aa>
        }
      }
    }

    /* Require to disable power clock if necessary */
    if (pwrclkchanged == SET)
 80053a0:	7dfb      	ldrb	r3, [r7, #23]
 80053a2:	2b01      	cmp	r3, #1
 80053a4:	d105      	bne.n	80053b2 <HAL_RCC_OscConfig+0x3de>
    {
      __HAL_RCC_PWR_CLK_DISABLE();
 80053a6:	4b3c      	ldr	r3, [pc, #240]	@ (8005498 <HAL_RCC_OscConfig+0x4c4>)
 80053a8:	69db      	ldr	r3, [r3, #28]
 80053aa:	4a3b      	ldr	r2, [pc, #236]	@ (8005498 <HAL_RCC_OscConfig+0x4c4>)
 80053ac:	f023 5380 	bic.w	r3, r3, #268435456	@ 0x10000000
 80053b0:	61d3      	str	r3, [r2, #28]

#endif /* RCC_CR_PLL2ON */
  /*-------------------------------- PLL Configuration -----------------------*/
  /* Check the parameters */
  assert_param(IS_RCC_PLL(RCC_OscInitStruct->PLL.PLLState));
  if ((RCC_OscInitStruct->PLL.PLLState) != RCC_PLL_NONE)
 80053b2:	687b      	ldr	r3, [r7, #4]
 80053b4:	69db      	ldr	r3, [r3, #28]
 80053b6:	2b00      	cmp	r3, #0
 80053b8:	f000 8087 	beq.w	80054ca <HAL_RCC_OscConfig+0x4f6>
  {
    /* Check if the PLL is used as system clock or not */
    if (__HAL_RCC_GET_SYSCLK_SOURCE() != RCC_SYSCLKSOURCE_STATUS_PLLCLK)
 80053bc:	4b36      	ldr	r3, [pc, #216]	@ (8005498 <HAL_RCC_OscConfig+0x4c4>)
 80053be:	685b      	ldr	r3, [r3, #4]
 80053c0:	f003 030c 	and.w	r3, r3, #12
 80053c4:	2b08      	cmp	r3, #8
 80053c6:	d061      	beq.n	800548c <HAL_RCC_OscConfig+0x4b8>
    {
      if ((RCC_OscInitStruct->PLL.PLLState) == RCC_PLL_ON)
 80053c8:	687b      	ldr	r3, [r7, #4]
 80053ca:	69db      	ldr	r3, [r3, #28]
 80053cc:	2b02      	cmp	r3, #2
 80053ce:	d146      	bne.n	800545e <HAL_RCC_OscConfig+0x48a>
        /* Check the parameters */
        assert_param(IS_RCC_PLLSOURCE(RCC_OscInitStruct->PLL.PLLSource));
        assert_param(IS_RCC_PLL_MUL(RCC_OscInitStruct->PLL.PLLMUL));

        /* Disable the main PLL. */
        __HAL_RCC_PLL_DISABLE();
 80053d0:	4b33      	ldr	r3, [pc, #204]	@ (80054a0 <HAL_RCC_OscConfig+0x4cc>)
 80053d2:	2200      	movs	r2, #0
 80053d4:	601a      	str	r2, [r3, #0]

        /* Get Start Tick */
        tickstart = HAL_GetTick();
 80053d6:	f7ff fb4f 	bl	8004a78 <HAL_GetTick>
 80053da:	6138      	str	r0, [r7, #16]

        /* Wait till PLL is disabled */
        while (__HAL_RCC_GET_FLAG(RCC_FLAG_PLLRDY)  != RESET)
 80053dc:	e008      	b.n	80053f0 <HAL_RCC_OscConfig+0x41c>
        {
          if ((HAL_GetTick() - tickstart) > PLL_TIMEOUT_VALUE)
 80053de:	f7ff fb4b 	bl	8004a78 <HAL_GetTick>
 80053e2:	4602      	mov	r2, r0
 80053e4:	693b      	ldr	r3, [r7, #16]
 80053e6:	1ad3      	subs	r3, r2, r3
 80053e8:	2b02      	cmp	r3, #2
 80053ea:	d901      	bls.n	80053f0 <HAL_RCC_OscConfig+0x41c>
          {
            return HAL_TIMEOUT;
 80053ec:	2303      	movs	r3, #3
 80053ee:	e06d      	b.n	80054cc <HAL_RCC_OscConfig+0x4f8>
        while (__HAL_RCC_GET_FLAG(RCC_FLAG_PLLRDY)  != RESET)
 80053f0:	4b29      	ldr	r3, [pc, #164]	@ (8005498 <HAL_RCC_OscConfig+0x4c4>)
 80053f2:	681b      	ldr	r3, [r3, #0]
 80053f4:	f003 7300 	and.w	r3, r3, #33554432	@ 0x2000000
 80053f8:	2b00      	cmp	r3, #0
 80053fa:	d1f0      	bne.n	80053de <HAL_RCC_OscConfig+0x40a>
          }
        }

        /* Configure the HSE prediv factor --------------------------------*/
        /* It can be written only when the PLL is disabled. Not used in PLL source is different than HSE */
        if (RCC_OscInitStruct->PLL.PLLSource == RCC_PLLSOURCE_HSE)
 80053fc:	687b      	ldr	r3, [r7, #4]
 80053fe:	6a1b      	ldr	r3, [r3, #32]
 8005400:	f5b3 3f80 	cmp.w	r3, #65536	@ 0x10000
 8005404:	d108      	bne.n	8005418 <HAL_RCC_OscConfig+0x444>
          /* Set PREDIV1 source */
          SET_BIT(RCC->CFGR2, RCC_OscInitStruct->Prediv1Source);
#endif /* RCC_CFGR2_PREDIV1SRC */

          /* Set PREDIV1 Value */
          __HAL_RCC_HSE_PREDIV_CONFIG(RCC_OscInitStruct->HSEPredivValue);
 8005406:	4b24      	ldr	r3, [pc, #144]	@ (8005498 <HAL_RCC_OscConfig+0x4c4>)
 8005408:	685b      	ldr	r3, [r3, #4]
 800540a:	f423 3200 	bic.w	r2, r3, #131072	@ 0x20000
 800540e:	687b      	ldr	r3, [r7, #4]
 8005410:	689b      	ldr	r3, [r3, #8]
 8005412:	4921      	ldr	r1, [pc, #132]	@ (8005498 <HAL_RCC_OscConfig+0x4c4>)
 8005414:	4313      	orrs	r3, r2
 8005416:	604b      	str	r3, [r1, #4]
        }

        /* Configure the main PLL clock source and multiplication factors. */
        __HAL_RCC_PLL_CONFIG(RCC_OscInitStruct->PLL.PLLSource,
 8005418:	4b1f      	ldr	r3, [pc, #124]	@ (8005498 <HAL_RCC_OscConfig+0x4c4>)
 800541a:	685b      	ldr	r3, [r3, #4]
 800541c:	f423 1274 	bic.w	r2, r3, #3997696	@ 0x3d0000
 8005420:	687b      	ldr	r3, [r7, #4]
 8005422:	6a19      	ldr	r1, [r3, #32]
 8005424:	687b      	ldr	r3, [r7, #4]
 8005426:	6a5b      	ldr	r3, [r3, #36]	@ 0x24
 8005428:	430b      	orrs	r3, r1
 800542a:	491b      	ldr	r1, [pc, #108]	@ (8005498 <HAL_RCC_OscConfig+0x4c4>)
 800542c:	4313      	orrs	r3, r2
 800542e:	604b      	str	r3, [r1, #4]
                             RCC_OscInitStruct->PLL.PLLMUL);
        /* Enable the main PLL. */
        __HAL_RCC_PLL_ENABLE();
 8005430:	4b1b      	ldr	r3, [pc, #108]	@ (80054a0 <HAL_RCC_OscConfig+0x4cc>)
 8005432:	2201      	movs	r2, #1
 8005434:	601a      	str	r2, [r3, #0]

        /* Get Start Tick */
        tickstart = HAL_GetTick();
 8005436:	f7ff fb1f 	bl	8004a78 <HAL_GetTick>
 800543a:	6138      	str	r0, [r7, #16]

        /* Wait till PLL is ready */
        while (__HAL_RCC_GET_FLAG(RCC_FLAG_PLLRDY)  == RESET)
 800543c:	e008      	b.n	8005450 <HAL_RCC_OscConfig+0x47c>
        {
          if ((HAL_GetTick() - tickstart) > PLL_TIMEOUT_VALUE)
 800543e:	f7ff fb1b 	bl	8004a78 <HAL_GetTick>
 8005442:	4602      	mov	r2, r0
 8005444:	693b      	ldr	r3, [r7, #16]
 8005446:	1ad3      	subs	r3, r2, r3
 8005448:	2b02      	cmp	r3, #2
 800544a:	d901      	bls.n	8005450 <HAL_RCC_OscConfig+0x47c>
          {
            return HAL_TIMEOUT;
 800544c:	2303      	movs	r3, #3
 800544e:	e03d      	b.n	80054cc <HAL_RCC_OscConfig+0x4f8>
        while (__HAL_RCC_GET_FLAG(RCC_FLAG_PLLRDY)  == RESET)
 8005450:	4b11      	ldr	r3, [pc, #68]	@ (8005498 <HAL_RCC_OscConfig+0x4c4>)
 8005452:	681b      	ldr	r3, [r3, #0]
 8005454:	f003 7300 	and.w	r3, r3, #33554432	@ 0x2000000
 8005458:	2b00      	cmp	r3, #0
 800545a:	d0f0      	beq.n	800543e <HAL_RCC_OscConfig+0x46a>
 800545c:	e035      	b.n	80054ca <HAL_RCC_OscConfig+0x4f6>
        }
      }
      else
      {
        /* Disable the main PLL. */
        __HAL_RCC_PLL_DISABLE();
 800545e:	4b10      	ldr	r3, [pc, #64]	@ (80054a0 <HAL_RCC_OscConfig+0x4cc>)
 8005460:	2200      	movs	r2, #0
 8005462:	601a      	str	r2, [r3, #0]

        /* Get Start Tick */
        tickstart = HAL_GetTick();
 8005464:	f7ff fb08 	bl	8004a78 <HAL_GetTick>
 8005468:	6138      	str	r0, [r7, #16]

        /* Wait till PLL is disabled */
        while (__HAL_RCC_GET_FLAG(RCC_FLAG_PLLRDY)  != RESET)
 800546a:	e008      	b.n	800547e <HAL_RCC_OscConfig+0x4aa>
        {
          if ((HAL_GetTick() - tickstart) > PLL_TIMEOUT_VALUE)
 800546c:	f7ff fb04 	bl	8004a78 <HAL_GetTick>
 8005470:	4602      	mov	r2, r0
 8005472:	693b      	ldr	r3, [r7, #16]
 8005474:	1ad3      	subs	r3, r2, r3
 8005476:	2b02      	cmp	r3, #2
 8005478:	d901      	bls.n	800547e <HAL_RCC_OscConfig+0x4aa>
          {
            return HAL_TIMEOUT;
 800547a:	2303      	movs	r3, #3
 800547c:	e026      	b.n	80054cc <HAL_RCC_OscConfig+0x4f8>
        while (__HAL_RCC_GET_FLAG(RCC_FLAG_PLLRDY)  != RESET)
 800547e:	4b06      	ldr	r3, [pc, #24]	@ (8005498 <HAL_RCC_OscConfig+0x4c4>)
 8005480:	681b      	ldr	r3, [r3, #0]
 8005482:	f003 7300 	and.w	r3, r3, #33554432	@ 0x2000000
 8005486:	2b00      	cmp	r3, #0
 8005488:	d1f0      	bne.n	800546c <HAL_RCC_OscConfig+0x498>
 800548a:	e01e      	b.n	80054ca <HAL_RCC_OscConfig+0x4f6>
      }
    }
    else
    {
      /* Check if there is a request to disable the PLL used as System clock source */
      if ((RCC_OscInitStruct->PLL.PLLState) == RCC_PLL_OFF)
 800548c:	687b      	ldr	r3, [r7, #4]
 800548e:	69db      	ldr	r3, [r3, #28]
 8005490:	2b01      	cmp	r3, #1
 8005492:	d107      	bne.n	80054a4 <HAL_RCC_OscConfig+0x4d0>
      {
        return HAL_ERROR;
 8005494:	2301      	movs	r3, #1
 8005496:	e019      	b.n	80054cc <HAL_RCC_OscConfig+0x4f8>
 8005498:	40021000 	.word	0x40021000
 800549c:	40007000 	.word	0x40007000
 80054a0:	42420060 	.word	0x42420060
      }
      else
      {
        /* Do not return HAL_ERROR if request repeats the current configuration */
        pll_config = RCC->CFGR;
 80054a4:	4b0b      	ldr	r3, [pc, #44]	@ (80054d4 <HAL_RCC_OscConfig+0x500>)
 80054a6:	685b      	ldr	r3, [r3, #4]
 80054a8:	60fb      	str	r3, [r7, #12]
        if ((READ_BIT(pll_config, RCC_CFGR_PLLSRC) != RCC_OscInitStruct->PLL.PLLSource) ||
 80054aa:	68fb      	ldr	r3, [r7, #12]
 80054ac:	f403 3280 	and.w	r2, r3, #65536	@ 0x10000
 80054b0:	687b      	ldr	r3, [r7, #4]
 80054b2:	6a1b      	ldr	r3, [r3, #32]
 80054b4:	429a      	cmp	r2, r3
 80054b6:	d106      	bne.n	80054c6 <HAL_RCC_OscConfig+0x4f2>
            (READ_BIT(pll_config, RCC_CFGR_PLLMULL) != RCC_OscInitStruct->PLL.PLLMUL))
 80054b8:	68fb      	ldr	r3, [r7, #12]
 80054ba:	f403 1270 	and.w	r2, r3, #3932160	@ 0x3c0000
 80054be:	687b      	ldr	r3, [r7, #4]
 80054c0:	6a5b      	ldr	r3, [r3, #36]	@ 0x24
        if ((READ_BIT(pll_config, RCC_CFGR_PLLSRC) != RCC_OscInitStruct->PLL.PLLSource) ||
 80054c2:	429a      	cmp	r2, r3
 80054c4:	d001      	beq.n	80054ca <HAL_RCC_OscConfig+0x4f6>
        {
          return HAL_ERROR;
 80054c6:	2301      	movs	r3, #1
 80054c8:	e000      	b.n	80054cc <HAL_RCC_OscConfig+0x4f8>
        }
      }
    }
  }

  return HAL_OK;
 80054ca:	2300      	movs	r3, #0
}
 80054cc:	4618      	mov	r0, r3
 80054ce:	3718      	adds	r7, #24
 80054d0:	46bd      	mov	sp, r7
 80054d2:	bd80      	pop	{r7, pc}
 80054d4:	40021000 	.word	0x40021000

080054d8 <HAL_RCC_ClockConfig>:
  *         You can use @ref HAL_RCC_GetClockConfig() function to know which clock is
  *         currently used as system clock source.
  * @retval HAL status
  */
HAL_StatusTypeDef HAL_RCC_ClockConfig(RCC_ClkInitTypeDef  *RCC_ClkInitStruct, uint32_t FLatency)
{
 80054d8:	b580      	push	{r7, lr}
 80054da:	b084      	sub	sp, #16
 80054dc:	af00      	add	r7, sp, #0
 80054de:	6078      	str	r0, [r7, #4]
 80054e0:	6039      	str	r1, [r7, #0]
  uint32_t tickstart;

  /* Check Null pointer */
  if (RCC_ClkInitStruct == NULL)
 80054e2:	687b      	ldr	r3, [r7, #4]
 80054e4:	2b00      	cmp	r3, #0
 80054e6:	d101      	bne.n	80054ec <HAL_RCC_ClockConfig+0x14>
  {
    return HAL_ERROR;
 80054e8:	2301      	movs	r3, #1
 80054ea:	e0d0      	b.n	800568e <HAL_RCC_ClockConfig+0x1b6>
  must be correctly programmed according to the frequency of the CPU clock
    (HCLK) of the device. */

#if defined(FLASH_ACR_LATENCY)
  /* Increasing the number of wait states because of higher CPU frequency */
  if (FLatency > __HAL_FLASH_GET_LATENCY())
 80054ec:	4b6a      	ldr	r3, [pc, #424]	@ (8005698 <HAL_RCC_ClockConfig+0x1c0>)
 80054ee:	681b      	ldr	r3, [r3, #0]
 80054f0:	f003 0307 	and.w	r3, r3, #7
 80054f4:	683a      	ldr	r2, [r7, #0]
 80054f6:	429a      	cmp	r2, r3
 80054f8:	d910      	bls.n	800551c <HAL_RCC_ClockConfig+0x44>
  {
    /* Program the new number of wait states to the LATENCY bits in the FLASH_ACR register */
    __HAL_FLASH_SET_LATENCY(FLatency);
 80054fa:	4b67      	ldr	r3, [pc, #412]	@ (8005698 <HAL_RCC_ClockConfig+0x1c0>)
 80054fc:	681b      	ldr	r3, [r3, #0]
 80054fe:	f023 0207 	bic.w	r2, r3, #7
 8005502:	4965      	ldr	r1, [pc, #404]	@ (8005698 <HAL_RCC_ClockConfig+0x1c0>)
 8005504:	683b      	ldr	r3, [r7, #0]
 8005506:	4313      	orrs	r3, r2
 8005508:	600b      	str	r3, [r1, #0]

    /* Check that the new number of wait states is taken into account to access the Flash
    memory by reading the FLASH_ACR register */
    if (__HAL_FLASH_GET_LATENCY() != FLatency)
 800550a:	4b63      	ldr	r3, [pc, #396]	@ (8005698 <HAL_RCC_ClockConfig+0x1c0>)
 800550c:	681b      	ldr	r3, [r3, #0]
 800550e:	f003 0307 	and.w	r3, r3, #7
 8005512:	683a      	ldr	r2, [r7, #0]
 8005514:	429a      	cmp	r2, r3
 8005516:	d001      	beq.n	800551c <HAL_RCC_ClockConfig+0x44>
  {
    return HAL_ERROR;
 8005518:	2301      	movs	r3, #1
 800551a:	e0b8      	b.n	800568e <HAL_RCC_ClockConfig+0x1b6>
  }
}

#endif /* FLASH_ACR_LATENCY */
/*-------------------------- HCLK Configuration --------------------------*/
if (((RCC_ClkInitStruct->ClockType) & RCC_CLOCKTYPE_HCLK) == RCC_CLOCKTYPE_HCLK)
 800551c:	687b      	ldr	r3, [r7, #4]
 800551e:	681b      	ldr	r3, [r3, #0]
 8005520:	f003 0302 	and.w	r3, r3, #2
 8005524:	2b00      	cmp	r3, #0
 8005526:	d020      	beq.n	800556a <HAL_RCC_ClockConfig+0x92>
  {
    /* Set the highest APBx dividers in order to ensure that we do not go through
    a non-spec phase whatever we decrease or increase HCLK. */
    if (((RCC_ClkInitStruct->ClockType) & RCC_CLOCKTYPE_PCLK1) == RCC_CLOCKTYPE_PCLK1)
 8005528:	687b      	ldr	r3, [r7, #4]
 800552a:	681b      	ldr	r3, [r3, #0]
 800552c:	f003 0304 	and.w	r3, r3, #4
 8005530:	2b00      	cmp	r3, #0
 8005532:	d005      	beq.n	8005540 <HAL_RCC_ClockConfig+0x68>
    {
      MODIFY_REG(RCC->CFGR, RCC_CFGR_PPRE1, RCC_HCLK_DIV16);
 8005534:	4b59      	ldr	r3, [pc, #356]	@ (800569c <HAL_RCC_ClockConfig+0x1c4>)
 8005536:	685b      	ldr	r3, [r3, #4]
 8005538:	4a58      	ldr	r2, [pc, #352]	@ (800569c <HAL_RCC_ClockConfig+0x1c4>)
 800553a:	f443 63e0 	orr.w	r3, r3, #1792	@ 0x700
 800553e:	6053      	str	r3, [r2, #4]
    }

    if (((RCC_ClkInitStruct->ClockType) & RCC_CLOCKTYPE_PCLK2) == RCC_CLOCKTYPE_PCLK2)
 8005540:	687b      	ldr	r3, [r7, #4]
 8005542:	681b      	ldr	r3, [r3, #0]
 8005544:	f003 0308 	and.w	r3, r3, #8
 8005548:	2b00      	cmp	r3, #0
 800554a:	d005      	beq.n	8005558 <HAL_RCC_ClockConfig+0x80>
    {
      MODIFY_REG(RCC->CFGR, RCC_CFGR_PPRE2, (RCC_HCLK_DIV16 << 3));
 800554c:	4b53      	ldr	r3, [pc, #332]	@ (800569c <HAL_RCC_ClockConfig+0x1c4>)
 800554e:	685b      	ldr	r3, [r3, #4]
 8005550:	4a52      	ldr	r2, [pc, #328]	@ (800569c <HAL_RCC_ClockConfig+0x1c4>)
 8005552:	f443 5360 	orr.w	r3, r3, #14336	@ 0x3800
 8005556:	6053      	str	r3, [r2, #4]
    }

    /* Set the new HCLK clock divider */
    assert_param(IS_RCC_HCLK(RCC_ClkInitStruct->AHBCLKDivider));
    MODIFY_REG(RCC->CFGR, RCC_CFGR_HPRE, RCC_ClkInitStruct->AHBCLKDivider);
 8005558:	4b50      	ldr	r3, [pc, #320]	@ (800569c <HAL_RCC_ClockConfig+0x1c4>)
 800555a:	685b      	ldr	r3, [r3, #4]
 800555c:	f023 02f0 	bic.w	r2, r3, #240	@ 0xf0
 8005560:	687b      	ldr	r3, [r7, #4]
 8005562:	689b      	ldr	r3, [r3, #8]
 8005564:	494d      	ldr	r1, [pc, #308]	@ (800569c <HAL_RCC_ClockConfig+0x1c4>)
 8005566:	4313      	orrs	r3, r2
 8005568:	604b      	str	r3, [r1, #4]
  }

  /*------------------------- SYSCLK Configuration ---------------------------*/
  if (((RCC_ClkInitStruct->ClockType) & RCC_CLOCKTYPE_SYSCLK) == RCC_CLOCKTYPE_SYSCLK)
 800556a:	687b      	ldr	r3, [r7, #4]
 800556c:	681b      	ldr	r3, [r3, #0]
 800556e:	f003 0301 	and.w	r3, r3, #1
 8005572:	2b00      	cmp	r3, #0
 8005574:	d040      	beq.n	80055f8 <HAL_RCC_ClockConfig+0x120>
  {
    assert_param(IS_RCC_SYSCLKSOURCE(RCC_ClkInitStruct->SYSCLKSource));

    /* HSE is selected as System Clock Source */
    if (RCC_ClkInitStruct->SYSCLKSource == RCC_SYSCLKSOURCE_HSE)
 8005576:	687b      	ldr	r3, [r7, #4]
 8005578:	685b      	ldr	r3, [r3, #4]
 800557a:	2b01      	cmp	r3, #1
 800557c:	d107      	bne.n	800558e <HAL_RCC_ClockConfig+0xb6>
    {
      /* Check the HSE ready flag */
      if (__HAL_RCC_GET_FLAG(RCC_FLAG_HSERDY) == RESET)
 800557e:	4b47      	ldr	r3, [pc, #284]	@ (800569c <HAL_RCC_ClockConfig+0x1c4>)
 8005580:	681b      	ldr	r3, [r3, #0]
 8005582:	f403 3300 	and.w	r3, r3, #131072	@ 0x20000
 8005586:	2b00      	cmp	r3, #0
 8005588:	d115      	bne.n	80055b6 <HAL_RCC_ClockConfig+0xde>
      {
        return HAL_ERROR;
 800558a:	2301      	movs	r3, #1
 800558c:	e07f      	b.n	800568e <HAL_RCC_ClockConfig+0x1b6>
      }
    }
    /* PLL is selected as System Clock Source */
    else if (RCC_ClkInitStruct->SYSCLKSource == RCC_SYSCLKSOURCE_PLLCLK)
 800558e:	687b      	ldr	r3, [r7, #4]
 8005590:	685b      	ldr	r3, [r3, #4]
 8005592:	2b02      	cmp	r3, #2
 8005594:	d107      	bne.n	80055a6 <HAL_RCC_ClockConfig+0xce>
    {
      /* Check the PLL ready flag */
      if (__HAL_RCC_GET_FLAG(RCC_FLAG_PLLRDY) == RESET)
 8005596:	4b41      	ldr	r3, [pc, #260]	@ (800569c <HAL_RCC_ClockConfig+0x1c4>)
 8005598:	681b      	ldr	r3, [r3, #0]
 800559a:	f003 7300 	and.w	r3, r3, #33554432	@ 0x2000000
 800559e:	2b00      	cmp	r3, #0
 80055a0:	d109      	bne.n	80055b6 <HAL_RCC_ClockConfig+0xde>
      {
        return HAL_ERROR;
 80055a2:	2301      	movs	r3, #1
 80055a4:	e073      	b.n	800568e <HAL_RCC_ClockConfig+0x1b6>
    }
    /* HSI is selected as System Clock Source */
    else
    {
      /* Check the HSI ready flag */
      if (__HAL_RCC_GET_FLAG(RCC_FLAG_HSIRDY) == RESET)
 80055a6:	4b3d      	ldr	r3, [pc, #244]	@ (800569c <HAL_RCC_ClockConfig+0x1c4>)
 80055a8:	681b      	ldr	r3, [r3, #0]
 80055aa:	f003 0302 	and.w	r3, r3, #2
 80055ae:	2b00      	cmp	r3, #0
 80055b0:	d101      	bne.n	80055b6 <HAL_RCC_ClockConfig+0xde>
      {
        return HAL_ERROR;
 80055b2:	2301      	movs	r3, #1
 80055b4:	e06b      	b.n	800568e <HAL_RCC_ClockConfig+0x1b6>
      }
    }
    __HAL_RCC_SYSCLK_CONFIG(RCC_ClkInitStruct->SYSCLKSource);
 80055b6:	4b39      	ldr	r3, [pc, #228]	@ (800569c <HAL_RCC_ClockConfig+0x1c4>)
 80055b8:	685b      	ldr	r3, [r3, #4]
 80055ba:	f023 0203 	bic.w	r2, r3, #3
 80055be:	687b      	ldr	r3, [r7, #4]
 80055c0:	685b      	ldr	r3, [r3, #4]
 80055c2:	4936      	ldr	r1, [pc, #216]	@ (800569c <HAL_RCC_ClockConfig+0x1c4>)
 80055c4:	4313      	orrs	r3, r2
 80055c6:	604b      	str	r3, [r1, #4]

    /* Get Start Tick */
    tickstart = HAL_GetTick();
 80055c8:	f7ff fa56 	bl	8004a78 <HAL_GetTick>
 80055cc:	60f8      	str	r0, [r7, #12]

    while (__HAL_RCC_GET_SYSCLK_SOURCE() != (RCC_ClkInitStruct->SYSCLKSource << RCC_CFGR_SWS_Pos))
 80055ce:	e00a      	b.n	80055e6 <HAL_RCC_ClockConfig+0x10e>
    {
      if ((HAL_GetTick() - tickstart) > CLOCKSWITCH_TIMEOUT_VALUE)
 80055d0:	f7ff fa52 	bl	8004a78 <HAL_GetTick>
 80055d4:	4602      	mov	r2, r0
 80055d6:	68fb      	ldr	r3, [r7, #12]
 80055d8:	1ad3      	subs	r3, r2, r3
 80055da:	f241 3288 	movw	r2, #5000	@ 0x1388
 80055de:	4293      	cmp	r3, r2
 80055e0:	d901      	bls.n	80055e6 <HAL_RCC_ClockConfig+0x10e>
      {
        return HAL_TIMEOUT;
 80055e2:	2303      	movs	r3, #3
 80055e4:	e053      	b.n	800568e <HAL_RCC_ClockConfig+0x1b6>
    while (__HAL_RCC_GET_SYSCLK_SOURCE() != (RCC_ClkInitStruct->SYSCLKSource << RCC_CFGR_SWS_Pos))
 80055e6:	4b2d      	ldr	r3, [pc, #180]	@ (800569c <HAL_RCC_ClockConfig+0x1c4>)
 80055e8:	685b      	ldr	r3, [r3, #4]
 80055ea:	f003 020c 	and.w	r2, r3, #12
 80055ee:	687b      	ldr	r3, [r7, #4]
 80055f0:	685b      	ldr	r3, [r3, #4]
 80055f2:	009b      	lsls	r3, r3, #2
 80055f4:	429a      	cmp	r2, r3
 80055f6:	d1eb      	bne.n	80055d0 <HAL_RCC_ClockConfig+0xf8>
    }
  }

#if defined(FLASH_ACR_LATENCY)
  /* Decreasing the number of wait states because of lower CPU frequency */
  if (FLatency < __HAL_FLASH_GET_LATENCY())
 80055f8:	4b27      	ldr	r3, [pc, #156]	@ (8005698 <HAL_RCC_ClockConfig+0x1c0>)
 80055fa:	681b      	ldr	r3, [r3, #0]
 80055fc:	f003 0307 	and.w	r3, r3, #7
 8005600:	683a      	ldr	r2, [r7, #0]
 8005602:	429a      	cmp	r2, r3
 8005604:	d210      	bcs.n	8005628 <HAL_RCC_ClockConfig+0x150>
  {
    /* Program the new number of wait states to the LATENCY bits in the FLASH_ACR register */
    __HAL_FLASH_SET_LATENCY(FLatency);
 8005606:	4b24      	ldr	r3, [pc, #144]	@ (8005698 <HAL_RCC_ClockConfig+0x1c0>)
 8005608:	681b      	ldr	r3, [r3, #0]
 800560a:	f023 0207 	bic.w	r2, r3, #7
 800560e:	4922      	ldr	r1, [pc, #136]	@ (8005698 <HAL_RCC_ClockConfig+0x1c0>)
 8005610:	683b      	ldr	r3, [r7, #0]
 8005612:	4313      	orrs	r3, r2
 8005614:	600b      	str	r3, [r1, #0]

    /* Check that the new number of wait states is taken into account to access the Flash
    memory by reading the FLASH_ACR register */
    if (__HAL_FLASH_GET_LATENCY() != FLatency)
 8005616:	4b20      	ldr	r3, [pc, #128]	@ (8005698 <HAL_RCC_ClockConfig+0x1c0>)
 8005618:	681b      	ldr	r3, [r3, #0]
 800561a:	f003 0307 	and.w	r3, r3, #7
 800561e:	683a      	ldr	r2, [r7, #0]
 8005620:	429a      	cmp	r2, r3
 8005622:	d001      	beq.n	8005628 <HAL_RCC_ClockConfig+0x150>
  {
    return HAL_ERROR;
 8005624:	2301      	movs	r3, #1
 8005626:	e032      	b.n	800568e <HAL_RCC_ClockConfig+0x1b6>
  }
}
#endif /* FLASH_ACR_LATENCY */

/*-------------------------- PCLK1 Configuration ---------------------------*/
if (((RCC_ClkInitStruct->ClockType) & RCC_CLOCKTYPE_PCLK1) == RCC_CLOCKTYPE_PCLK1)
 8005628:	687b      	ldr	r3, [r7, #4]
 800562a:	681b      	ldr	r3, [r3, #0]
 800562c:	f003 0304 	and.w	r3, r3, #4
 8005630:	2b00      	cmp	r3, #0
 8005632:	d008      	beq.n	8005646 <HAL_RCC_ClockConfig+0x16e>
  {
    assert_param(IS_RCC_PCLK(RCC_ClkInitStruct->APB1CLKDivider));
    MODIFY_REG(RCC->CFGR, RCC_CFGR_PPRE1, RCC_ClkInitStruct->APB1CLKDivider);
 8005634:	4b19      	ldr	r3, [pc, #100]	@ (800569c <HAL_RCC_ClockConfig+0x1c4>)
 8005636:	685b      	ldr	r3, [r3, #4]
 8005638:	f423 62e0 	bic.w	r2, r3, #1792	@ 0x700
 800563c:	687b      	ldr	r3, [r7, #4]
 800563e:	68db      	ldr	r3, [r3, #12]
 8005640:	4916      	ldr	r1, [pc, #88]	@ (800569c <HAL_RCC_ClockConfig+0x1c4>)
 8005642:	4313      	orrs	r3, r2
 8005644:	604b      	str	r3, [r1, #4]
  }

  /*-------------------------- PCLK2 Configuration ---------------------------*/
  if (((RCC_ClkInitStruct->ClockType) & RCC_CLOCKTYPE_PCLK2) == RCC_CLOCKTYPE_PCLK2)
 8005646:	687b      	ldr	r3, [r7, #4]
 8005648:	681b      	ldr	r3, [r3, #0]
 800564a:	f003 0308 	and.w	r3, r3, #8
 800564e:	2b00      	cmp	r3, #0
 8005650:	d009      	beq.n	8005666 <HAL_RCC_ClockConfig+0x18e>
  {
    assert_param(IS_RCC_PCLK(RCC_ClkInitStruct->APB2CLKDivider));
    MODIFY_REG(RCC->CFGR, RCC_CFGR_PPRE2, ((RCC_ClkInitStruct->APB2CLKDivider) << 3));
 8005652:	4b12      	ldr	r3, [pc, #72]	@ (800569c <HAL_RCC_ClockConfig+0x1c4>)
 8005654:	685b      	ldr	r3, [r3, #4]
 8005656:	f423 5260 	bic.w	r2, r3, #14336	@ 0x3800
 800565a:	687b      	ldr	r3, [r7, #4]
 800565c:	691b      	ldr	r3, [r3, #16]
 800565e:	00db      	lsls	r3, r3, #3
 8005660:	490e      	ldr	r1, [pc, #56]	@ (800569c <HAL_RCC_ClockConfig+0x1c4>)
 8005662:	4313      	orrs	r3, r2
 8005664:	604b      	str	r3, [r1, #4]
  }

  /* Update the SystemCoreClock global variable */
  SystemCoreClock = HAL_RCC_GetSysClockFreq() >> AHBPrescTable[(RCC->CFGR & RCC_CFGR_HPRE) >> RCC_CFGR_HPRE_Pos];
 8005666:	f000 f821 	bl	80056ac <HAL_RCC_GetSysClockFreq>
 800566a:	4602      	mov	r2, r0
 800566c:	4b0b      	ldr	r3, [pc, #44]	@ (800569c <HAL_RCC_ClockConfig+0x1c4>)
 800566e:	685b      	ldr	r3, [r3, #4]
 8005670:	091b      	lsrs	r3, r3, #4
 8005672:	f003 030f 	and.w	r3, r3, #15
 8005676:	490a      	ldr	r1, [pc, #40]	@ (80056a0 <HAL_RCC_ClockConfig+0x1c8>)
 8005678:	5ccb      	ldrb	r3, [r1, r3]
 800567a:	fa22 f303 	lsr.w	r3, r2, r3
 800567e:	4a09      	ldr	r2, [pc, #36]	@ (80056a4 <HAL_RCC_ClockConfig+0x1cc>)
 8005680:	6013      	str	r3, [r2, #0]

  /* Configure the source of time base considering new system clocks settings*/
  HAL_InitTick(uwTickPrio);
 8005682:	4b09      	ldr	r3, [pc, #36]	@ (80056a8 <HAL_RCC_ClockConfig+0x1d0>)
 8005684:	681b      	ldr	r3, [r3, #0]
 8005686:	4618      	mov	r0, r3
 8005688:	f7ff f9b4 	bl	80049f4 <HAL_InitTick>

  return HAL_OK;
 800568c:	2300      	movs	r3, #0
}
 800568e:	4618      	mov	r0, r3
 8005690:	3710      	adds	r7, #16
 8005692:	46bd      	mov	sp, r7
 8005694:	bd80      	pop	{r7, pc}
 8005696:	bf00      	nop
 8005698:	40022000 	.word	0x40022000
 800569c:	40021000 	.word	0x40021000
 80056a0:	08007078 	.word	0x08007078
 80056a4:	20000000 	.word	0x20000000
 80056a8:	20000004 	.word	0x20000004

080056ac <HAL_RCC_GetSysClockFreq>:
  *         right SYSCLK value. Otherwise, any configuration based on this function will be incorrect.
  *
  * @retval SYSCLK frequency
  */
uint32_t HAL_RCC_GetSysClockFreq(void)
{
 80056ac:	b480      	push	{r7}
 80056ae:	b087      	sub	sp, #28
 80056b0:	af00      	add	r7, sp, #0
#else
  static const uint8_t aPredivFactorTable[2U] = {1, 2};
#endif /*RCC_CFGR2_PREDIV1*/

#endif
  uint32_t tmpreg = 0U, prediv = 0U, pllclk = 0U, pllmul = 0U;
 80056b2:	2300      	movs	r3, #0
 80056b4:	60fb      	str	r3, [r7, #12]
 80056b6:	2300      	movs	r3, #0
 80056b8:	60bb      	str	r3, [r7, #8]
 80056ba:	2300      	movs	r3, #0
 80056bc:	617b      	str	r3, [r7, #20]
 80056be:	2300      	movs	r3, #0
 80056c0:	607b      	str	r3, [r7, #4]
  uint32_t sysclockfreq = 0U;
 80056c2:	2300      	movs	r3, #0
 80056c4:	613b      	str	r3, [r7, #16]
#if defined(RCC_CFGR2_PREDIV1SRC)
  uint32_t prediv2 = 0U, pll2mul = 0U;
#endif /*RCC_CFGR2_PREDIV1SRC*/

  tmpreg = RCC->CFGR;
 80056c6:	4b1e      	ldr	r3, [pc, #120]	@ (8005740 <HAL_RCC_GetSysClockFreq+0x94>)
 80056c8:	685b      	ldr	r3, [r3, #4]
 80056ca:	60fb      	str	r3, [r7, #12]

  /* Get SYSCLK source -------------------------------------------------------*/
  switch (tmpreg & RCC_CFGR_SWS)
 80056cc:	68fb      	ldr	r3, [r7, #12]
 80056ce:	f003 030c 	and.w	r3, r3, #12
 80056d2:	2b04      	cmp	r3, #4
 80056d4:	d002      	beq.n	80056dc <HAL_RCC_GetSysClockFreq+0x30>
 80056d6:	2b08      	cmp	r3, #8
 80056d8:	d003      	beq.n	80056e2 <HAL_RCC_GetSysClockFreq+0x36>
 80056da:	e027      	b.n	800572c <HAL_RCC_GetSysClockFreq+0x80>
  {
    case RCC_SYSCLKSOURCE_STATUS_HSE:  /* HSE used as system clock */
    {
      sysclockfreq = HSE_VALUE;
 80056dc:	4b19      	ldr	r3, [pc, #100]	@ (8005744 <HAL_RCC_GetSysClockFreq+0x98>)
 80056de:	613b      	str	r3, [r7, #16]
      break;
 80056e0:	e027      	b.n	8005732 <HAL_RCC_GetSysClockFreq+0x86>
    }
    case RCC_SYSCLKSOURCE_STATUS_PLLCLK:  /* PLL used as system clock */
    {
      pllmul = aPLLMULFactorTable[(uint32_t)(tmpreg & RCC_CFGR_PLLMULL) >> RCC_CFGR_PLLMULL_Pos];
 80056e2:	68fb      	ldr	r3, [r7, #12]
 80056e4:	0c9b      	lsrs	r3, r3, #18
 80056e6:	f003 030f 	and.w	r3, r3, #15
 80056ea:	4a17      	ldr	r2, [pc, #92]	@ (8005748 <HAL_RCC_GetSysClockFreq+0x9c>)
 80056ec:	5cd3      	ldrb	r3, [r2, r3]
 80056ee:	607b      	str	r3, [r7, #4]
      if ((tmpreg & RCC_CFGR_PLLSRC) != RCC_PLLSOURCE_HSI_DIV2)
 80056f0:	68fb      	ldr	r3, [r7, #12]
 80056f2:	f403 3380 	and.w	r3, r3, #65536	@ 0x10000
 80056f6:	2b00      	cmp	r3, #0
 80056f8:	d010      	beq.n	800571c <HAL_RCC_GetSysClockFreq+0x70>
      {
#if defined(RCC_CFGR2_PREDIV1)
        prediv = aPredivFactorTable[(uint32_t)(RCC->CFGR2 & RCC_CFGR2_PREDIV1) >> RCC_CFGR2_PREDIV1_Pos];
#else
        prediv = aPredivFactorTable[(uint32_t)(RCC->CFGR & RCC_CFGR_PLLXTPRE) >> RCC_CFGR_PLLXTPRE_Pos];
 80056fa:	4b11      	ldr	r3, [pc, #68]	@ (8005740 <HAL_RCC_GetSysClockFreq+0x94>)
 80056fc:	685b      	ldr	r3, [r3, #4]
 80056fe:	0c5b      	lsrs	r3, r3, #17
 8005700:	f003 0301 	and.w	r3, r3, #1
 8005704:	4a11      	ldr	r2, [pc, #68]	@ (800574c <HAL_RCC_GetSysClockFreq+0xa0>)
 8005706:	5cd3      	ldrb	r3, [r2, r3]
 8005708:	60bb      	str	r3, [r7, #8]
        {
          pllclk = pllclk / 2;
        }
#else
        /* HSE used as PLL clock source : PLLCLK = HSE/PREDIV1 * PLLMUL */
        pllclk = (uint32_t)((HSE_VALUE  * pllmul) / prediv);
 800570a:	687b      	ldr	r3, [r7, #4]
 800570c:	4a0d      	ldr	r2, [pc, #52]	@ (8005744 <HAL_RCC_GetSysClockFreq+0x98>)
 800570e:	fb03 f202 	mul.w	r2, r3, r2
 8005712:	68bb      	ldr	r3, [r7, #8]
 8005714:	fbb2 f3f3 	udiv	r3, r2, r3
 8005718:	617b      	str	r3, [r7, #20]
 800571a:	e004      	b.n	8005726 <HAL_RCC_GetSysClockFreq+0x7a>
#endif /*RCC_CFGR2_PREDIV1SRC*/
      }
      else
      {
        /* HSI used as PLL clock source : PLLCLK = HSI/2 * PLLMUL */
        pllclk = (uint32_t)((HSI_VALUE >> 1) * pllmul);
 800571c:	687b      	ldr	r3, [r7, #4]
 800571e:	4a0c      	ldr	r2, [pc, #48]	@ (8005750 <HAL_RCC_GetSysClockFreq+0xa4>)
 8005720:	fb02 f303 	mul.w	r3, r2, r3
 8005724:	617b      	str	r3, [r7, #20]
      }
      sysclockfreq = pllclk;
 8005726:	697b      	ldr	r3, [r7, #20]
 8005728:	613b      	str	r3, [r7, #16]
      break;
 800572a:	e002      	b.n	8005732 <HAL_RCC_GetSysClockFreq+0x86>
    }
    case RCC_SYSCLKSOURCE_STATUS_HSI:  /* HSI used as system clock source */
    default: /* HSI used as system clock */
    {
      sysclockfreq = HSI_VALUE;
 800572c:	4b05      	ldr	r3, [pc, #20]	@ (8005744 <HAL_RCC_GetSysClockFreq+0x98>)
 800572e:	613b      	str	r3, [r7, #16]
      break;
 8005730:	bf00      	nop
    }
  }
  return sysclockfreq;
 8005732:	693b      	ldr	r3, [r7, #16]
}
 8005734:	4618      	mov	r0, r3
 8005736:	371c      	adds	r7, #28
 8005738:	46bd      	mov	sp, r7
 800573a:	bc80      	pop	{r7}
 800573c:	4770      	bx	lr
 800573e:	bf00      	nop
 8005740:	40021000 	.word	0x40021000
 8005744:	007a1200 	.word	0x007a1200
 8005748:	08007090 	.word	0x08007090
 800574c:	080070a0 	.word	0x080070a0
 8005750:	003d0900 	.word	0x003d0900

08005754 <HAL_RCC_GetHCLKFreq>:
  * @note   The SystemCoreClock CMSIS variable is used to store System Clock Frequency
  *         and updated within this function
  * @retval HCLK frequency
  */
uint32_t HAL_RCC_GetHCLKFreq(void)
{
 8005754:	b480      	push	{r7}
 8005756:	af00      	add	r7, sp, #0
  return SystemCoreClock;
 8005758:	4b02      	ldr	r3, [pc, #8]	@ (8005764 <HAL_RCC_GetHCLKFreq+0x10>)
 800575a:	681b      	ldr	r3, [r3, #0]
}
 800575c:	4618      	mov	r0, r3
 800575e:	46bd      	mov	sp, r7
 8005760:	bc80      	pop	{r7}
 8005762:	4770      	bx	lr
 8005764:	20000000 	.word	0x20000000

08005768 <HAL_RCC_GetPCLK1Freq>:
  * @note   Each time PCLK1 changes, this function must be called to update the
  *         right PCLK1 value. Otherwise, any configuration based on this function will be incorrect.
  * @retval PCLK1 frequency
  */
uint32_t HAL_RCC_GetPCLK1Freq(void)
{
 8005768:	b580      	push	{r7, lr}
 800576a:	af00      	add	r7, sp, #0
  /* Get HCLK source and Compute PCLK1 frequency ---------------------------*/
  return (HAL_RCC_GetHCLKFreq() >> APBPrescTable[(RCC->CFGR & RCC_CFGR_PPRE1) >> RCC_CFGR_PPRE1_Pos]);
 800576c:	f7ff fff2 	bl	8005754 <HAL_RCC_GetHCLKFreq>
 8005770:	4602      	mov	r2, r0
 8005772:	4b05      	ldr	r3, [pc, #20]	@ (8005788 <HAL_RCC_GetPCLK1Freq+0x20>)
 8005774:	685b      	ldr	r3, [r3, #4]
 8005776:	0a1b      	lsrs	r3, r3, #8
 8005778:	f003 0307 	and.w	r3, r3, #7
 800577c:	4903      	ldr	r1, [pc, #12]	@ (800578c <HAL_RCC_GetPCLK1Freq+0x24>)
 800577e:	5ccb      	ldrb	r3, [r1, r3]
 8005780:	fa22 f303 	lsr.w	r3, r2, r3
}
 8005784:	4618      	mov	r0, r3
 8005786:	bd80      	pop	{r7, pc}
 8005788:	40021000 	.word	0x40021000
 800578c:	08007088 	.word	0x08007088

08005790 <HAL_RCC_GetPCLK2Freq>:
  * @note   Each time PCLK2 changes, this function must be called to update the
  *         right PCLK2 value. Otherwise, any configuration based on this function will be incorrect.
  * @retval PCLK2 frequency
  */
uint32_t HAL_RCC_GetPCLK2Freq(void)
{
 8005790:	b580      	push	{r7, lr}
 8005792:	af00      	add	r7, sp, #0
  /* Get HCLK source and Compute PCLK2 frequency ---------------------------*/
  return (HAL_RCC_GetHCLKFreq() >> APBPrescTable[(RCC->CFGR & RCC_CFGR_PPRE2) >> RCC_CFGR_PPRE2_Pos]);
 8005794:	f7ff ffde 	bl	8005754 <HAL_RCC_GetHCLKFreq>
 8005798:	4602      	mov	r2, r0
 800579a:	4b05      	ldr	r3, [pc, #20]	@ (80057b0 <HAL_RCC_GetPCLK2Freq+0x20>)
 800579c:	685b      	ldr	r3, [r3, #4]
 800579e:	0adb      	lsrs	r3, r3, #11
 80057a0:	f003 0307 	and.w	r3, r3, #7
 80057a4:	4903      	ldr	r1, [pc, #12]	@ (80057b4 <HAL_RCC_GetPCLK2Freq+0x24>)
 80057a6:	5ccb      	ldrb	r3, [r1, r3]
 80057a8:	fa22 f303 	lsr.w	r3, r2, r3
}
 80057ac:	4618      	mov	r0, r3
 80057ae:	bd80      	pop	{r7, pc}
 80057b0:	40021000 	.word	0x40021000
 80057b4:	08007088 	.word	0x08007088

080057b8 <RCC_Delay>:
  * @brief  This function provides delay (in milliseconds) based on CPU cycles method.
  * @param  mdelay: specifies the delay time length, in milliseconds.
  * @retval None
  */
static void RCC_Delay(uint32_t mdelay)
{
 80057b8:	b480      	push	{r7}
 80057ba:	b085      	sub	sp, #20
 80057bc:	af00      	add	r7, sp, #0
 80057be:	6078      	str	r0, [r7, #4]
  __IO uint32_t Delay = mdelay * (SystemCoreClock / 8U / 1000U);
 80057c0:	4b0a      	ldr	r3, [pc, #40]	@ (80057ec <RCC_Delay+0x34>)
 80057c2:	681b      	ldr	r3, [r3, #0]
 80057c4:	4a0a      	ldr	r2, [pc, #40]	@ (80057f0 <RCC_Delay+0x38>)
 80057c6:	fba2 2303 	umull	r2, r3, r2, r3
 80057ca:	0a5b      	lsrs	r3, r3, #9
 80057cc:	687a      	ldr	r2, [r7, #4]
 80057ce:	fb02 f303 	mul.w	r3, r2, r3
 80057d2:	60fb      	str	r3, [r7, #12]
  do
  {
    __NOP();
 80057d4:	bf00      	nop
  }
  while (Delay --);
 80057d6:	68fb      	ldr	r3, [r7, #12]
 80057d8:	1e5a      	subs	r2, r3, #1
 80057da:	60fa      	str	r2, [r7, #12]
 80057dc:	2b00      	cmp	r3, #0
 80057de:	d1f9      	bne.n	80057d4 <RCC_Delay+0x1c>
}
 80057e0:	bf00      	nop
 80057e2:	bf00      	nop
 80057e4:	3714      	adds	r7, #20
 80057e6:	46bd      	mov	sp, r7
 80057e8:	bc80      	pop	{r7}
 80057ea:	4770      	bx	lr
 80057ec:	20000000 	.word	0x20000000
 80057f0:	10624dd3 	.word	0x10624dd3

080057f4 <HAL_UART_Init>:
  * @param  huart  Pointer to a UART_HandleTypeDef structure that contains
  *                the configuration information for the specified UART module.
  * @retval HAL status
  */
HAL_StatusTypeDef HAL_UART_Init(UART_HandleTypeDef *huart)
{
 80057f4:	b580      	push	{r7, lr}
 80057f6:	b082      	sub	sp, #8
 80057f8:	af00      	add	r7, sp, #0
 80057fa:	6078      	str	r0, [r7, #4]
  /* Check the UART handle allocation */
  if (huart == NULL)
 80057fc:	687b      	ldr	r3, [r7, #4]
 80057fe:	2b00      	cmp	r3, #0
 8005800:	d101      	bne.n	8005806 <HAL_UART_Init+0x12>
  {
    return HAL_ERROR;
 8005802:	2301      	movs	r3, #1
 8005804:	e042      	b.n	800588c <HAL_UART_Init+0x98>
  assert_param(IS_UART_WORD_LENGTH(huart->Init.WordLength));
#if defined(USART_CR1_OVER8)
  assert_param(IS_UART_OVERSAMPLING(huart->Init.OverSampling));
#endif /* USART_CR1_OVER8 */

  if (huart->gState == HAL_UART_STATE_RESET)
 8005806:	687b      	ldr	r3, [r7, #4]
 8005808:	f893 3041 	ldrb.w	r3, [r3, #65]	@ 0x41
 800580c:	b2db      	uxtb	r3, r3
 800580e:	2b00      	cmp	r3, #0
 8005810:	d106      	bne.n	8005820 <HAL_UART_Init+0x2c>
  {
    /* Allocate lock resource and initialize it */
    huart->Lock = HAL_UNLOCKED;
 8005812:	687b      	ldr	r3, [r7, #4]
 8005814:	2200      	movs	r2, #0
 8005816:	f883 2040 	strb.w	r2, [r3, #64]	@ 0x40

    /* Init the low level hardware */
    huart->MspInitCallback(huart);
#else
    /* Init the low level hardware : GPIO, CLOCK */
    HAL_UART_MspInit(huart);
 800581a:	6878      	ldr	r0, [r7, #4]
 800581c:	f7fe fffc 	bl	8004818 <HAL_UART_MspInit>
#endif /* (USE_HAL_UART_REGISTER_CALLBACKS) */
  }

  huart->gState = HAL_UART_STATE_BUSY;
 8005820:	687b      	ldr	r3, [r7, #4]
 8005822:	2224      	movs	r2, #36	@ 0x24
 8005824:	f883 2041 	strb.w	r2, [r3, #65]	@ 0x41

  /* Disable the peripheral */
  __HAL_UART_DISABLE(huart);
 8005828:	687b      	ldr	r3, [r7, #4]
 800582a:	681b      	ldr	r3, [r3, #0]
 800582c:	68da      	ldr	r2, [r3, #12]
 800582e:	687b      	ldr	r3, [r7, #4]
 8005830:	681b      	ldr	r3, [r3, #0]
 8005832:	f422 5200 	bic.w	r2, r2, #8192	@ 0x2000
 8005836:	60da      	str	r2, [r3, #12]

  /* Set the UART Communication parameters */
  UART_SetConfig(huart);
 8005838:	6878      	ldr	r0, [r7, #4]
 800583a:	f000 fa09 	bl	8005c50 <UART_SetConfig>

  /* In asynchronous mode, the following bits must be kept cleared:
     - LINEN and CLKEN bits in the USART_CR2 register,
     - SCEN, HDSEL and IREN  bits in the USART_CR3 register.*/
  CLEAR_BIT(huart->Instance->CR2, (USART_CR2_LINEN | USART_CR2_CLKEN));
 800583e:	687b      	ldr	r3, [r7, #4]
 8005840:	681b      	ldr	r3, [r3, #0]
 8005842:	691a      	ldr	r2, [r3, #16]
 8005844:	687b      	ldr	r3, [r7, #4]
 8005846:	681b      	ldr	r3, [r3, #0]
 8005848:	f422 4290 	bic.w	r2, r2, #18432	@ 0x4800
 800584c:	611a      	str	r2, [r3, #16]
  CLEAR_BIT(huart->Instance->CR3, (USART_CR3_SCEN | USART_CR3_HDSEL | USART_CR3_IREN));
 800584e:	687b      	ldr	r3, [r7, #4]
 8005850:	681b      	ldr	r3, [r3, #0]
 8005852:	695a      	ldr	r2, [r3, #20]
 8005854:	687b      	ldr	r3, [r7, #4]
 8005856:	681b      	ldr	r3, [r3, #0]
 8005858:	f022 022a 	bic.w	r2, r2, #42	@ 0x2a
 800585c:	615a      	str	r2, [r3, #20]

  /* Enable the peripheral */
  __HAL_UART_ENABLE(huart);
 800585e:	687b      	ldr	r3, [r7, #4]
 8005860:	681b      	ldr	r3, [r3, #0]
 8005862:	68da      	ldr	r2, [r3, #12]
 8005864:	687b      	ldr	r3, [r7, #4]
 8005866:	681b      	ldr	r3, [r3, #0]
 8005868:	f442 5200 	orr.w	r2, r2, #8192	@ 0x2000
 800586c:	60da      	str	r2, [r3, #12]

  /* Initialize the UART state */
  huart->ErrorCode = HAL_UART_ERROR_NONE;
 800586e:	687b      	ldr	r3, [r7, #4]
 8005870:	2200      	movs	r2, #0
 8005872:	645a      	str	r2, [r3, #68]	@ 0x44
  huart->gState = HAL_UART_STATE_READY;
 8005874:	687b      	ldr	r3, [r7, #4]
 8005876:	2220      	movs	r2, #32
 8005878:	f883 2041 	strb.w	r2, [r3, #65]	@ 0x41
  huart->RxState = HAL_UART_STATE_READY;
 800587c:	687b      	ldr	r3, [r7, #4]
 800587e:	2220      	movs	r2, #32
 8005880:	f883 2042 	strb.w	r2, [r3, #66]	@ 0x42
  huart->RxEventType = HAL_UART_RXEVENT_TC;
 8005884:	687b      	ldr	r3, [r7, #4]
 8005886:	2200      	movs	r2, #0
 8005888:	635a      	str	r2, [r3, #52]	@ 0x34

  return HAL_OK;
 800588a:	2300      	movs	r3, #0
}
 800588c:	4618      	mov	r0, r3
 800588e:	3708      	adds	r7, #8
 8005890:	46bd      	mov	sp, r7
 8005892:	bd80      	pop	{r7, pc}

08005894 <HAL_UART_Transmit>:
  * @param  Size  Amount of data elements (u8 or u16) to be sent
  * @param  Timeout Timeout duration
  * @retval HAL status
  */
HAL_StatusTypeDef HAL_UART_Transmit(UART_HandleTypeDef *huart, const uint8_t *pData, uint16_t Size, uint32_t Timeout)
{
 8005894:	b580      	push	{r7, lr}
 8005896:	b08a      	sub	sp, #40	@ 0x28
 8005898:	af02      	add	r7, sp, #8
 800589a:	60f8      	str	r0, [r7, #12]
 800589c:	60b9      	str	r1, [r7, #8]
 800589e:	603b      	str	r3, [r7, #0]
 80058a0:	4613      	mov	r3, r2
 80058a2:	80fb      	strh	r3, [r7, #6]
  const uint8_t  *pdata8bits;
  const uint16_t *pdata16bits;
  uint32_t tickstart = 0U;
 80058a4:	2300      	movs	r3, #0
 80058a6:	617b      	str	r3, [r7, #20]

  /* Check that a Tx process is not already ongoing */
  if (huart->gState == HAL_UART_STATE_READY)
 80058a8:	68fb      	ldr	r3, [r7, #12]
 80058aa:	f893 3041 	ldrb.w	r3, [r3, #65]	@ 0x41
 80058ae:	b2db      	uxtb	r3, r3
 80058b0:	2b20      	cmp	r3, #32
 80058b2:	d175      	bne.n	80059a0 <HAL_UART_Transmit+0x10c>
  {
    if ((pData == NULL) || (Size == 0U))
 80058b4:	68bb      	ldr	r3, [r7, #8]
 80058b6:	2b00      	cmp	r3, #0
 80058b8:	d002      	beq.n	80058c0 <HAL_UART_Transmit+0x2c>
 80058ba:	88fb      	ldrh	r3, [r7, #6]
 80058bc:	2b00      	cmp	r3, #0
 80058be:	d101      	bne.n	80058c4 <HAL_UART_Transmit+0x30>
    {
      return  HAL_ERROR;
 80058c0:	2301      	movs	r3, #1
 80058c2:	e06e      	b.n	80059a2 <HAL_UART_Transmit+0x10e>
    }

    huart->ErrorCode = HAL_UART_ERROR_NONE;
 80058c4:	68fb      	ldr	r3, [r7, #12]
 80058c6:	2200      	movs	r2, #0
 80058c8:	645a      	str	r2, [r3, #68]	@ 0x44
    huart->gState = HAL_UART_STATE_BUSY_TX;
 80058ca:	68fb      	ldr	r3, [r7, #12]
 80058cc:	2221      	movs	r2, #33	@ 0x21
 80058ce:	f883 2041 	strb.w	r2, [r3, #65]	@ 0x41

    /* Init tickstart for timeout management */
    tickstart = HAL_GetTick();
 80058d2:	f7ff f8d1 	bl	8004a78 <HAL_GetTick>
 80058d6:	6178      	str	r0, [r7, #20]

    huart->TxXferSize = Size;
 80058d8:	68fb      	ldr	r3, [r7, #12]
 80058da:	88fa      	ldrh	r2, [r7, #6]
 80058dc:	849a      	strh	r2, [r3, #36]	@ 0x24
    huart->TxXferCount = Size;
 80058de:	68fb      	ldr	r3, [r7, #12]
 80058e0:	88fa      	ldrh	r2, [r7, #6]
 80058e2:	84da      	strh	r2, [r3, #38]	@ 0x26

    /* In case of 9bits/No Parity transfer, pData needs to be handled as a uint16_t pointer */
    if ((huart->Init.WordLength == UART_WORDLENGTH_9B) && (huart->Init.Parity == UART_PARITY_NONE))
 80058e4:	68fb      	ldr	r3, [r7, #12]
 80058e6:	689b      	ldr	r3, [r3, #8]
 80058e8:	f5b3 5f80 	cmp.w	r3, #4096	@ 0x1000
 80058ec:	d108      	bne.n	8005900 <HAL_UART_Transmit+0x6c>
 80058ee:	68fb      	ldr	r3, [r7, #12]
 80058f0:	691b      	ldr	r3, [r3, #16]
 80058f2:	2b00      	cmp	r3, #0
 80058f4:	d104      	bne.n	8005900 <HAL_UART_Transmit+0x6c>
    {
      pdata8bits  = NULL;
 80058f6:	2300      	movs	r3, #0
 80058f8:	61fb      	str	r3, [r7, #28]
      pdata16bits = (const uint16_t *) pData;
 80058fa:	68bb      	ldr	r3, [r7, #8]
 80058fc:	61bb      	str	r3, [r7, #24]
 80058fe:	e003      	b.n	8005908 <HAL_UART_Transmit+0x74>
    }
    else
    {
      pdata8bits  = pData;
 8005900:	68bb      	ldr	r3, [r7, #8]
 8005902:	61fb      	str	r3, [r7, #28]
      pdata16bits = NULL;
 8005904:	2300      	movs	r3, #0
 8005906:	61bb      	str	r3, [r7, #24]
    }

    while (huart->TxXferCount > 0U)
 8005908:	e02e      	b.n	8005968 <HAL_UART_Transmit+0xd4>
    {
      if (UART_WaitOnFlagUntilTimeout(huart, UART_FLAG_TXE, RESET, tickstart, Timeout) != HAL_OK)
 800590a:	683b      	ldr	r3, [r7, #0]
 800590c:	9300      	str	r3, [sp, #0]
 800590e:	697b      	ldr	r3, [r7, #20]
 8005910:	2200      	movs	r2, #0
 8005912:	2180      	movs	r1, #128	@ 0x80
 8005914:	68f8      	ldr	r0, [r7, #12]
 8005916:	f000 f8df 	bl	8005ad8 <UART_WaitOnFlagUntilTimeout>
 800591a:	4603      	mov	r3, r0
 800591c:	2b00      	cmp	r3, #0
 800591e:	d005      	beq.n	800592c <HAL_UART_Transmit+0x98>
      {
        huart->gState = HAL_UART_STATE_READY;
 8005920:	68fb      	ldr	r3, [r7, #12]
 8005922:	2220      	movs	r2, #32
 8005924:	f883 2041 	strb.w	r2, [r3, #65]	@ 0x41

        return HAL_TIMEOUT;
 8005928:	2303      	movs	r3, #3
 800592a:	e03a      	b.n	80059a2 <HAL_UART_Transmit+0x10e>
      }
      if (pdata8bits == NULL)
 800592c:	69fb      	ldr	r3, [r7, #28]
 800592e:	2b00      	cmp	r3, #0
 8005930:	d10b      	bne.n	800594a <HAL_UART_Transmit+0xb6>
      {
        huart->Instance->DR = (uint16_t)(*pdata16bits & 0x01FFU);
 8005932:	69bb      	ldr	r3, [r7, #24]
 8005934:	881b      	ldrh	r3, [r3, #0]
 8005936:	461a      	mov	r2, r3
 8005938:	68fb      	ldr	r3, [r7, #12]
 800593a:	681b      	ldr	r3, [r3, #0]
 800593c:	f3c2 0208 	ubfx	r2, r2, #0, #9
 8005940:	605a      	str	r2, [r3, #4]
        pdata16bits++;
 8005942:	69bb      	ldr	r3, [r7, #24]
 8005944:	3302      	adds	r3, #2
 8005946:	61bb      	str	r3, [r7, #24]
 8005948:	e007      	b.n	800595a <HAL_UART_Transmit+0xc6>
      }
      else
      {
        huart->Instance->DR = (uint8_t)(*pdata8bits & 0xFFU);
 800594a:	69fb      	ldr	r3, [r7, #28]
 800594c:	781a      	ldrb	r2, [r3, #0]
 800594e:	68fb      	ldr	r3, [r7, #12]
 8005950:	681b      	ldr	r3, [r3, #0]
 8005952:	605a      	str	r2, [r3, #4]
        pdata8bits++;
 8005954:	69fb      	ldr	r3, [r7, #28]
 8005956:	3301      	adds	r3, #1
 8005958:	61fb      	str	r3, [r7, #28]
      }
      huart->TxXferCount--;
 800595a:	68fb      	ldr	r3, [r7, #12]
 800595c:	8cdb      	ldrh	r3, [r3, #38]	@ 0x26
 800595e:	b29b      	uxth	r3, r3
 8005960:	3b01      	subs	r3, #1
 8005962:	b29a      	uxth	r2, r3
 8005964:	68fb      	ldr	r3, [r7, #12]
 8005966:	84da      	strh	r2, [r3, #38]	@ 0x26
    while (huart->TxXferCount > 0U)
 8005968:	68fb      	ldr	r3, [r7, #12]
 800596a:	8cdb      	ldrh	r3, [r3, #38]	@ 0x26
 800596c:	b29b      	uxth	r3, r3
 800596e:	2b00      	cmp	r3, #0
 8005970:	d1cb      	bne.n	800590a <HAL_UART_Transmit+0x76>
    }

    if (UART_WaitOnFlagUntilTimeout(huart, UART_FLAG_TC, RESET, tickstart, Timeout) != HAL_OK)
 8005972:	683b      	ldr	r3, [r7, #0]
 8005974:	9300      	str	r3, [sp, #0]
 8005976:	697b      	ldr	r3, [r7, #20]
 8005978:	2200      	movs	r2, #0
 800597a:	2140      	movs	r1, #64	@ 0x40
 800597c:	68f8      	ldr	r0, [r7, #12]
 800597e:	f000 f8ab 	bl	8005ad8 <UART_WaitOnFlagUntilTimeout>
 8005982:	4603      	mov	r3, r0
 8005984:	2b00      	cmp	r3, #0
 8005986:	d005      	beq.n	8005994 <HAL_UART_Transmit+0x100>
    {
      huart->gState = HAL_UART_STATE_READY;
 8005988:	68fb      	ldr	r3, [r7, #12]
 800598a:	2220      	movs	r2, #32
 800598c:	f883 2041 	strb.w	r2, [r3, #65]	@ 0x41

      return HAL_TIMEOUT;
 8005990:	2303      	movs	r3, #3
 8005992:	e006      	b.n	80059a2 <HAL_UART_Transmit+0x10e>
    }

    /* At end of Tx process, restore huart->gState to Ready */
    huart->gState = HAL_UART_STATE_READY;
 8005994:	68fb      	ldr	r3, [r7, #12]
 8005996:	2220      	movs	r2, #32
 8005998:	f883 2041 	strb.w	r2, [r3, #65]	@ 0x41

    return HAL_OK;
 800599c:	2300      	movs	r3, #0
 800599e:	e000      	b.n	80059a2 <HAL_UART_Transmit+0x10e>
  }
  else
  {
    return HAL_BUSY;
 80059a0:	2302      	movs	r3, #2
  }
}
 80059a2:	4618      	mov	r0, r3
 80059a4:	3720      	adds	r7, #32
 80059a6:	46bd      	mov	sp, r7
 80059a8:	bd80      	pop	{r7, pc}

080059aa <HAL_UART_Receive>:
  * @param  Size  Amount of data elements (u8 or u16) to be received.
  * @param  Timeout Timeout duration
  * @retval HAL status
  */
HAL_StatusTypeDef HAL_UART_Receive(UART_HandleTypeDef *huart, uint8_t *pData, uint16_t Size, uint32_t Timeout)
{
 80059aa:	b580      	push	{r7, lr}
 80059ac:	b08a      	sub	sp, #40	@ 0x28
 80059ae:	af02      	add	r7, sp, #8
 80059b0:	60f8      	str	r0, [r7, #12]
 80059b2:	60b9      	str	r1, [r7, #8]
 80059b4:	603b      	str	r3, [r7, #0]
 80059b6:	4613      	mov	r3, r2
 80059b8:	80fb      	strh	r3, [r7, #6]
  uint8_t  *pdata8bits;
  uint16_t *pdata16bits;
  uint32_t tickstart = 0U;
 80059ba:	2300      	movs	r3, #0
 80059bc:	617b      	str	r3, [r7, #20]

  /* Check that a Rx process is not already ongoing */
  if (huart->RxState == HAL_UART_STATE_READY)
 80059be:	68fb      	ldr	r3, [r7, #12]
 80059c0:	f893 3042 	ldrb.w	r3, [r3, #66]	@ 0x42
 80059c4:	b2db      	uxtb	r3, r3
 80059c6:	2b20      	cmp	r3, #32
 80059c8:	f040 8081 	bne.w	8005ace <HAL_UART_Receive+0x124>
  {
    if ((pData == NULL) || (Size == 0U))
 80059cc:	68bb      	ldr	r3, [r7, #8]
 80059ce:	2b00      	cmp	r3, #0
 80059d0:	d002      	beq.n	80059d8 <HAL_UART_Receive+0x2e>
 80059d2:	88fb      	ldrh	r3, [r7, #6]
 80059d4:	2b00      	cmp	r3, #0
 80059d6:	d101      	bne.n	80059dc <HAL_UART_Receive+0x32>
    {
      return  HAL_ERROR;
 80059d8:	2301      	movs	r3, #1
 80059da:	e079      	b.n	8005ad0 <HAL_UART_Receive+0x126>
    }

    huart->ErrorCode = HAL_UART_ERROR_NONE;
 80059dc:	68fb      	ldr	r3, [r7, #12]
 80059de:	2200      	movs	r2, #0
 80059e0:	645a      	str	r2, [r3, #68]	@ 0x44
    huart->RxState = HAL_UART_STATE_BUSY_RX;
 80059e2:	68fb      	ldr	r3, [r7, #12]
 80059e4:	2222      	movs	r2, #34	@ 0x22
 80059e6:	f883 2042 	strb.w	r2, [r3, #66]	@ 0x42
    huart->ReceptionType = HAL_UART_RECEPTION_STANDARD;
 80059ea:	68fb      	ldr	r3, [r7, #12]
 80059ec:	2200      	movs	r2, #0
 80059ee:	631a      	str	r2, [r3, #48]	@ 0x30

    /* Init tickstart for timeout management */
    tickstart = HAL_GetTick();
 80059f0:	f7ff f842 	bl	8004a78 <HAL_GetTick>
 80059f4:	6178      	str	r0, [r7, #20]

    huart->RxXferSize = Size;
 80059f6:	68fb      	ldr	r3, [r7, #12]
 80059f8:	88fa      	ldrh	r2, [r7, #6]
 80059fa:	859a      	strh	r2, [r3, #44]	@ 0x2c
    huart->RxXferCount = Size;
 80059fc:	68fb      	ldr	r3, [r7, #12]
 80059fe:	88fa      	ldrh	r2, [r7, #6]
 8005a00:	85da      	strh	r2, [r3, #46]	@ 0x2e

    /* In case of 9bits/No Parity transfer, pRxData needs to be handled as a uint16_t pointer */
    if ((huart->Init.WordLength == UART_WORDLENGTH_9B) && (huart->Init.Parity == UART_PARITY_NONE))
 8005a02:	68fb      	ldr	r3, [r7, #12]
 8005a04:	689b      	ldr	r3, [r3, #8]
 8005a06:	f5b3 5f80 	cmp.w	r3, #4096	@ 0x1000
 8005a0a:	d108      	bne.n	8005a1e <HAL_UART_Receive+0x74>
 8005a0c:	68fb      	ldr	r3, [r7, #12]
 8005a0e:	691b      	ldr	r3, [r3, #16]
 8005a10:	2b00      	cmp	r3, #0
 8005a12:	d104      	bne.n	8005a1e <HAL_UART_Receive+0x74>
    {
      pdata8bits  = NULL;
 8005a14:	2300      	movs	r3, #0
 8005a16:	61fb      	str	r3, [r7, #28]
      pdata16bits = (uint16_t *) pData;
 8005a18:	68bb      	ldr	r3, [r7, #8]
 8005a1a:	61bb      	str	r3, [r7, #24]
 8005a1c:	e003      	b.n	8005a26 <HAL_UART_Receive+0x7c>
    }
    else
    {
      pdata8bits  = pData;
 8005a1e:	68bb      	ldr	r3, [r7, #8]
 8005a20:	61fb      	str	r3, [r7, #28]
      pdata16bits = NULL;
 8005a22:	2300      	movs	r3, #0
 8005a24:	61bb      	str	r3, [r7, #24]
    }

    /* Check the remain data to be received */
    while (huart->RxXferCount > 0U)
 8005a26:	e047      	b.n	8005ab8 <HAL_UART_Receive+0x10e>
    {
      if (UART_WaitOnFlagUntilTimeout(huart, UART_FLAG_RXNE, RESET, tickstart, Timeout) != HAL_OK)
 8005a28:	683b      	ldr	r3, [r7, #0]
 8005a2a:	9300      	str	r3, [sp, #0]
 8005a2c:	697b      	ldr	r3, [r7, #20]
 8005a2e:	2200      	movs	r2, #0
 8005a30:	2120      	movs	r1, #32
 8005a32:	68f8      	ldr	r0, [r7, #12]
 8005a34:	f000 f850 	bl	8005ad8 <UART_WaitOnFlagUntilTimeout>
 8005a38:	4603      	mov	r3, r0
 8005a3a:	2b00      	cmp	r3, #0
 8005a3c:	d005      	beq.n	8005a4a <HAL_UART_Receive+0xa0>
      {
        huart->RxState = HAL_UART_STATE_READY;
 8005a3e:	68fb      	ldr	r3, [r7, #12]
 8005a40:	2220      	movs	r2, #32
 8005a42:	f883 2042 	strb.w	r2, [r3, #66]	@ 0x42

        return HAL_TIMEOUT;
 8005a46:	2303      	movs	r3, #3
 8005a48:	e042      	b.n	8005ad0 <HAL_UART_Receive+0x126>
      }
      if (pdata8bits == NULL)
 8005a4a:	69fb      	ldr	r3, [r7, #28]
 8005a4c:	2b00      	cmp	r3, #0
 8005a4e:	d10c      	bne.n	8005a6a <HAL_UART_Receive+0xc0>
      {
        *pdata16bits = (uint16_t)(huart->Instance->DR & 0x01FF);
 8005a50:	68fb      	ldr	r3, [r7, #12]
 8005a52:	681b      	ldr	r3, [r3, #0]
 8005a54:	685b      	ldr	r3, [r3, #4]
 8005a56:	b29b      	uxth	r3, r3
 8005a58:	f3c3 0308 	ubfx	r3, r3, #0, #9
 8005a5c:	b29a      	uxth	r2, r3
 8005a5e:	69bb      	ldr	r3, [r7, #24]
 8005a60:	801a      	strh	r2, [r3, #0]
        pdata16bits++;
 8005a62:	69bb      	ldr	r3, [r7, #24]
 8005a64:	3302      	adds	r3, #2
 8005a66:	61bb      	str	r3, [r7, #24]
 8005a68:	e01f      	b.n	8005aaa <HAL_UART_Receive+0x100>
      }
      else
      {
        if ((huart->Init.WordLength == UART_WORDLENGTH_9B) || ((huart->Init.WordLength == UART_WORDLENGTH_8B) && (huart->Init.Parity == UART_PARITY_NONE)))
 8005a6a:	68fb      	ldr	r3, [r7, #12]
 8005a6c:	689b      	ldr	r3, [r3, #8]
 8005a6e:	f5b3 5f80 	cmp.w	r3, #4096	@ 0x1000
 8005a72:	d007      	beq.n	8005a84 <HAL_UART_Receive+0xda>
 8005a74:	68fb      	ldr	r3, [r7, #12]
 8005a76:	689b      	ldr	r3, [r3, #8]
 8005a78:	2b00      	cmp	r3, #0
 8005a7a:	d10a      	bne.n	8005a92 <HAL_UART_Receive+0xe8>
 8005a7c:	68fb      	ldr	r3, [r7, #12]
 8005a7e:	691b      	ldr	r3, [r3, #16]
 8005a80:	2b00      	cmp	r3, #0
 8005a82:	d106      	bne.n	8005a92 <HAL_UART_Receive+0xe8>
        {
          *pdata8bits = (uint8_t)(huart->Instance->DR & (uint8_t)0x00FF);
 8005a84:	68fb      	ldr	r3, [r7, #12]
 8005a86:	681b      	ldr	r3, [r3, #0]
 8005a88:	685b      	ldr	r3, [r3, #4]
 8005a8a:	b2da      	uxtb	r2, r3
 8005a8c:	69fb      	ldr	r3, [r7, #28]
 8005a8e:	701a      	strb	r2, [r3, #0]
 8005a90:	e008      	b.n	8005aa4 <HAL_UART_Receive+0xfa>
        }
        else
        {
          *pdata8bits = (uint8_t)(huart->Instance->DR & (uint8_t)0x007F);
 8005a92:	68fb      	ldr	r3, [r7, #12]
 8005a94:	681b      	ldr	r3, [r3, #0]
 8005a96:	685b      	ldr	r3, [r3, #4]
 8005a98:	b2db      	uxtb	r3, r3
 8005a9a:	f003 037f 	and.w	r3, r3, #127	@ 0x7f
 8005a9e:	b2da      	uxtb	r2, r3
 8005aa0:	69fb      	ldr	r3, [r7, #28]
 8005aa2:	701a      	strb	r2, [r3, #0]
        }
        pdata8bits++;
 8005aa4:	69fb      	ldr	r3, [r7, #28]
 8005aa6:	3301      	adds	r3, #1
 8005aa8:	61fb      	str	r3, [r7, #28]
      }
      huart->RxXferCount--;
 8005aaa:	68fb      	ldr	r3, [r7, #12]
 8005aac:	8ddb      	ldrh	r3, [r3, #46]	@ 0x2e
 8005aae:	b29b      	uxth	r3, r3
 8005ab0:	3b01      	subs	r3, #1
 8005ab2:	b29a      	uxth	r2, r3
 8005ab4:	68fb      	ldr	r3, [r7, #12]
 8005ab6:	85da      	strh	r2, [r3, #46]	@ 0x2e
    while (huart->RxXferCount > 0U)
 8005ab8:	68fb      	ldr	r3, [r7, #12]
 8005aba:	8ddb      	ldrh	r3, [r3, #46]	@ 0x2e
 8005abc:	b29b      	uxth	r3, r3
 8005abe:	2b00      	cmp	r3, #0
 8005ac0:	d1b2      	bne.n	8005a28 <HAL_UART_Receive+0x7e>
    }

    /* At end of Rx process, restore huart->RxState to Ready */
    huart->RxState = HAL_UART_STATE_READY;
 8005ac2:	68fb      	ldr	r3, [r7, #12]
 8005ac4:	2220      	movs	r2, #32
 8005ac6:	f883 2042 	strb.w	r2, [r3, #66]	@ 0x42

    return HAL_OK;
 8005aca:	2300      	movs	r3, #0
 8005acc:	e000      	b.n	8005ad0 <HAL_UART_Receive+0x126>
  }
  else
  {
    return HAL_BUSY;
 8005ace:	2302      	movs	r3, #2
  }
}
 8005ad0:	4618      	mov	r0, r3
 8005ad2:	3720      	adds	r7, #32
 8005ad4:	46bd      	mov	sp, r7
 8005ad6:	bd80      	pop	{r7, pc}

08005ad8 <UART_WaitOnFlagUntilTimeout>:
  * @param  Timeout Timeout duration
  * @retval HAL status
  */
static HAL_StatusTypeDef UART_WaitOnFlagUntilTimeout(UART_HandleTypeDef *huart, uint32_t Flag, FlagStatus Status,
                                                     uint32_t Tickstart, uint32_t Timeout)
{
 8005ad8:	b580      	push	{r7, lr}
 8005ada:	b086      	sub	sp, #24
 8005adc:	af00      	add	r7, sp, #0
 8005ade:	60f8      	str	r0, [r7, #12]
 8005ae0:	60b9      	str	r1, [r7, #8]
 8005ae2:	603b      	str	r3, [r7, #0]
 8005ae4:	4613      	mov	r3, r2
 8005ae6:	71fb      	strb	r3, [r7, #7]
  /* Wait until flag is set */
  while ((__HAL_UART_GET_FLAG(huart, Flag) ? SET : RESET) == Status)
 8005ae8:	e03b      	b.n	8005b62 <UART_WaitOnFlagUntilTimeout+0x8a>
  {
    /* Check for the Timeout */
    if (Timeout != HAL_MAX_DELAY)
 8005aea:	6a3b      	ldr	r3, [r7, #32]
 8005aec:	f1b3 3fff 	cmp.w	r3, #4294967295
 8005af0:	d037      	beq.n	8005b62 <UART_WaitOnFlagUntilTimeout+0x8a>
    {
      if (((HAL_GetTick() - Tickstart) > Timeout) || (Timeout == 0U))
 8005af2:	f7fe ffc1 	bl	8004a78 <HAL_GetTick>
 8005af6:	4602      	mov	r2, r0
 8005af8:	683b      	ldr	r3, [r7, #0]
 8005afa:	1ad3      	subs	r3, r2, r3
 8005afc:	6a3a      	ldr	r2, [r7, #32]
 8005afe:	429a      	cmp	r2, r3
 8005b00:	d302      	bcc.n	8005b08 <UART_WaitOnFlagUntilTimeout+0x30>
 8005b02:	6a3b      	ldr	r3, [r7, #32]
 8005b04:	2b00      	cmp	r3, #0
 8005b06:	d101      	bne.n	8005b0c <UART_WaitOnFlagUntilTimeout+0x34>
      {

        return HAL_TIMEOUT;
 8005b08:	2303      	movs	r3, #3
 8005b0a:	e03a      	b.n	8005b82 <UART_WaitOnFlagUntilTimeout+0xaa>
      }

      if ((READ_BIT(huart->Instance->CR1, USART_CR1_RE) != 0U) && (Flag != UART_FLAG_TXE) && (Flag != UART_FLAG_TC))
 8005b0c:	68fb      	ldr	r3, [r7, #12]
 8005b0e:	681b      	ldr	r3, [r3, #0]
 8005b10:	68db      	ldr	r3, [r3, #12]
 8005b12:	f003 0304 	and.w	r3, r3, #4
 8005b16:	2b00      	cmp	r3, #0
 8005b18:	d023      	beq.n	8005b62 <UART_WaitOnFlagUntilTimeout+0x8a>
 8005b1a:	68bb      	ldr	r3, [r7, #8]
 8005b1c:	2b80      	cmp	r3, #128	@ 0x80
 8005b1e:	d020      	beq.n	8005b62 <UART_WaitOnFlagUntilTimeout+0x8a>
 8005b20:	68bb      	ldr	r3, [r7, #8]
 8005b22:	2b40      	cmp	r3, #64	@ 0x40
 8005b24:	d01d      	beq.n	8005b62 <UART_WaitOnFlagUntilTimeout+0x8a>
      {
        if (__HAL_UART_GET_FLAG(huart, UART_FLAG_ORE) == SET)
 8005b26:	68fb      	ldr	r3, [r7, #12]
 8005b28:	681b      	ldr	r3, [r3, #0]
 8005b2a:	681b      	ldr	r3, [r3, #0]
 8005b2c:	f003 0308 	and.w	r3, r3, #8
 8005b30:	2b08      	cmp	r3, #8
 8005b32:	d116      	bne.n	8005b62 <UART_WaitOnFlagUntilTimeout+0x8a>
        {
          /* Clear Overrun Error flag*/
          __HAL_UART_CLEAR_OREFLAG(huart);
 8005b34:	2300      	movs	r3, #0
 8005b36:	617b      	str	r3, [r7, #20]
 8005b38:	68fb      	ldr	r3, [r7, #12]
 8005b3a:	681b      	ldr	r3, [r3, #0]
 8005b3c:	681b      	ldr	r3, [r3, #0]
 8005b3e:	617b      	str	r3, [r7, #20]
 8005b40:	68fb      	ldr	r3, [r7, #12]
 8005b42:	681b      	ldr	r3, [r3, #0]
 8005b44:	685b      	ldr	r3, [r3, #4]
 8005b46:	617b      	str	r3, [r7, #20]
 8005b48:	697b      	ldr	r3, [r7, #20]

          /* Blocking error : transfer is aborted
          Set the UART state ready to be able to start again the process,
          Disable Rx Interrupts if ongoing */
          UART_EndRxTransfer(huart);
 8005b4a:	68f8      	ldr	r0, [r7, #12]
 8005b4c:	f000 f81d 	bl	8005b8a <UART_EndRxTransfer>

          huart->ErrorCode = HAL_UART_ERROR_ORE;
 8005b50:	68fb      	ldr	r3, [r7, #12]
 8005b52:	2208      	movs	r2, #8
 8005b54:	645a      	str	r2, [r3, #68]	@ 0x44

          /* Process Unlocked */
          __HAL_UNLOCK(huart);
 8005b56:	68fb      	ldr	r3, [r7, #12]
 8005b58:	2200      	movs	r2, #0
 8005b5a:	f883 2040 	strb.w	r2, [r3, #64]	@ 0x40

          return HAL_ERROR;
 8005b5e:	2301      	movs	r3, #1
 8005b60:	e00f      	b.n	8005b82 <UART_WaitOnFlagUntilTimeout+0xaa>
  while ((__HAL_UART_GET_FLAG(huart, Flag) ? SET : RESET) == Status)
 8005b62:	68fb      	ldr	r3, [r7, #12]
 8005b64:	681b      	ldr	r3, [r3, #0]
 8005b66:	681a      	ldr	r2, [r3, #0]
 8005b68:	68bb      	ldr	r3, [r7, #8]
 8005b6a:	4013      	ands	r3, r2
 8005b6c:	68ba      	ldr	r2, [r7, #8]
 8005b6e:	429a      	cmp	r2, r3
 8005b70:	bf0c      	ite	eq
 8005b72:	2301      	moveq	r3, #1
 8005b74:	2300      	movne	r3, #0
 8005b76:	b2db      	uxtb	r3, r3
 8005b78:	461a      	mov	r2, r3
 8005b7a:	79fb      	ldrb	r3, [r7, #7]
 8005b7c:	429a      	cmp	r2, r3
 8005b7e:	d0b4      	beq.n	8005aea <UART_WaitOnFlagUntilTimeout+0x12>
        }
      }
    }
  }
  return HAL_OK;
 8005b80:	2300      	movs	r3, #0
}
 8005b82:	4618      	mov	r0, r3
 8005b84:	3718      	adds	r7, #24
 8005b86:	46bd      	mov	sp, r7
 8005b88:	bd80      	pop	{r7, pc}

08005b8a <UART_EndRxTransfer>:
  * @brief  End ongoing Rx transfer on UART peripheral (following error detection or Reception completion).
  * @param  huart UART handle.
  * @retval None
  */
static void UART_EndRxTransfer(UART_HandleTypeDef *huart)
{
 8005b8a:	b480      	push	{r7}
 8005b8c:	b095      	sub	sp, #84	@ 0x54
 8005b8e:	af00      	add	r7, sp, #0
 8005b90:	6078      	str	r0, [r7, #4]
  /* Disable RXNE, PE and ERR (Frame error, noise error, overrun error) interrupts */
  ATOMIC_CLEAR_BIT(huart->Instance->CR1, (USART_CR1_RXNEIE | USART_CR1_PEIE));
 8005b92:	687b      	ldr	r3, [r7, #4]
 8005b94:	681b      	ldr	r3, [r3, #0]
 8005b96:	330c      	adds	r3, #12
 8005b98:	637b      	str	r3, [r7, #52]	@ 0x34
 */
__STATIC_FORCEINLINE uint32_t __LDREXW(volatile uint32_t *addr)
{
    uint32_t result;

   __ASM volatile ("ldrex %0, %1" : "=r" (result) : "Q" (*addr) );
 8005b9a:	6b7b      	ldr	r3, [r7, #52]	@ 0x34
 8005b9c:	e853 3f00 	ldrex	r3, [r3]
 8005ba0:	633b      	str	r3, [r7, #48]	@ 0x30
   return(result);
 8005ba2:	6b3b      	ldr	r3, [r7, #48]	@ 0x30
 8005ba4:	f423 7390 	bic.w	r3, r3, #288	@ 0x120
 8005ba8:	64fb      	str	r3, [r7, #76]	@ 0x4c
 8005baa:	687b      	ldr	r3, [r7, #4]
 8005bac:	681b      	ldr	r3, [r3, #0]
 8005bae:	330c      	adds	r3, #12
 8005bb0:	6cfa      	ldr	r2, [r7, #76]	@ 0x4c
 8005bb2:	643a      	str	r2, [r7, #64]	@ 0x40
 8005bb4:	63fb      	str	r3, [r7, #60]	@ 0x3c
 */
__STATIC_FORCEINLINE uint32_t __STREXW(uint32_t value, volatile uint32_t *addr)
{
   uint32_t result;

   __ASM volatile ("strex %0, %2, %1" : "=&r" (result), "=Q" (*addr) : "r" (value) );
 8005bb6:	6bf9      	ldr	r1, [r7, #60]	@ 0x3c
 8005bb8:	6c3a      	ldr	r2, [r7, #64]	@ 0x40
 8005bba:	e841 2300 	strex	r3, r2, [r1]
 8005bbe:	63bb      	str	r3, [r7, #56]	@ 0x38
   return(result);
 8005bc0:	6bbb      	ldr	r3, [r7, #56]	@ 0x38
 8005bc2:	2b00      	cmp	r3, #0
 8005bc4:	d1e5      	bne.n	8005b92 <UART_EndRxTransfer+0x8>
  ATOMIC_CLEAR_BIT(huart->Instance->CR3, USART_CR3_EIE);
 8005bc6:	687b      	ldr	r3, [r7, #4]
 8005bc8:	681b      	ldr	r3, [r3, #0]
 8005bca:	3314      	adds	r3, #20
 8005bcc:	623b      	str	r3, [r7, #32]
   __ASM volatile ("ldrex %0, %1" : "=r" (result) : "Q" (*addr) );
 8005bce:	6a3b      	ldr	r3, [r7, #32]
 8005bd0:	e853 3f00 	ldrex	r3, [r3]
 8005bd4:	61fb      	str	r3, [r7, #28]
   return(result);
 8005bd6:	69fb      	ldr	r3, [r7, #28]
 8005bd8:	f023 0301 	bic.w	r3, r3, #1
 8005bdc:	64bb      	str	r3, [r7, #72]	@ 0x48
 8005bde:	687b      	ldr	r3, [r7, #4]
 8005be0:	681b      	ldr	r3, [r3, #0]
 8005be2:	3314      	adds	r3, #20
 8005be4:	6cba      	ldr	r2, [r7, #72]	@ 0x48
 8005be6:	62fa      	str	r2, [r7, #44]	@ 0x2c
 8005be8:	62bb      	str	r3, [r7, #40]	@ 0x28
   __ASM volatile ("strex %0, %2, %1" : "=&r" (result), "=Q" (*addr) : "r" (value) );
 8005bea:	6ab9      	ldr	r1, [r7, #40]	@ 0x28
 8005bec:	6afa      	ldr	r2, [r7, #44]	@ 0x2c
 8005bee:	e841 2300 	strex	r3, r2, [r1]
 8005bf2:	627b      	str	r3, [r7, #36]	@ 0x24
   return(result);
 8005bf4:	6a7b      	ldr	r3, [r7, #36]	@ 0x24
 8005bf6:	2b00      	cmp	r3, #0
 8005bf8:	d1e5      	bne.n	8005bc6 <UART_EndRxTransfer+0x3c>

  /* In case of reception waiting for IDLE event, disable also the IDLE IE interrupt source */
  if (huart->ReceptionType == HAL_UART_RECEPTION_TOIDLE)
 8005bfa:	687b      	ldr	r3, [r7, #4]
 8005bfc:	6b1b      	ldr	r3, [r3, #48]	@ 0x30
 8005bfe:	2b01      	cmp	r3, #1
 8005c00:	d119      	bne.n	8005c36 <UART_EndRxTransfer+0xac>
  {
    ATOMIC_CLEAR_BIT(huart->Instance->CR1, USART_CR1_IDLEIE);
 8005c02:	687b      	ldr	r3, [r7, #4]
 8005c04:	681b      	ldr	r3, [r3, #0]
 8005c06:	330c      	adds	r3, #12
 8005c08:	60fb      	str	r3, [r7, #12]
   __ASM volatile ("ldrex %0, %1" : "=r" (result) : "Q" (*addr) );
 8005c0a:	68fb      	ldr	r3, [r7, #12]
 8005c0c:	e853 3f00 	ldrex	r3, [r3]
 8005c10:	60bb      	str	r3, [r7, #8]
   return(result);
 8005c12:	68bb      	ldr	r3, [r7, #8]
 8005c14:	f023 0310 	bic.w	r3, r3, #16
 8005c18:	647b      	str	r3, [r7, #68]	@ 0x44
 8005c1a:	687b      	ldr	r3, [r7, #4]
 8005c1c:	681b      	ldr	r3, [r3, #0]
 8005c1e:	330c      	adds	r3, #12
 8005c20:	6c7a      	ldr	r2, [r7, #68]	@ 0x44
 8005c22:	61ba      	str	r2, [r7, #24]
 8005c24:	617b      	str	r3, [r7, #20]
   __ASM volatile ("strex %0, %2, %1" : "=&r" (result), "=Q" (*addr) : "r" (value) );
 8005c26:	6979      	ldr	r1, [r7, #20]
 8005c28:	69ba      	ldr	r2, [r7, #24]
 8005c2a:	e841 2300 	strex	r3, r2, [r1]
 8005c2e:	613b      	str	r3, [r7, #16]
   return(result);
 8005c30:	693b      	ldr	r3, [r7, #16]
 8005c32:	2b00      	cmp	r3, #0
 8005c34:	d1e5      	bne.n	8005c02 <UART_EndRxTransfer+0x78>
  }

  /* At end of Rx process, restore huart->RxState to Ready */
  huart->RxState = HAL_UART_STATE_READY;
 8005c36:	687b      	ldr	r3, [r7, #4]
 8005c38:	2220      	movs	r2, #32
 8005c3a:	f883 2042 	strb.w	r2, [r3, #66]	@ 0x42
  huart->ReceptionType = HAL_UART_RECEPTION_STANDARD;
 8005c3e:	687b      	ldr	r3, [r7, #4]
 8005c40:	2200      	movs	r2, #0
 8005c42:	631a      	str	r2, [r3, #48]	@ 0x30
}
 8005c44:	bf00      	nop
 8005c46:	3754      	adds	r7, #84	@ 0x54
 8005c48:	46bd      	mov	sp, r7
 8005c4a:	bc80      	pop	{r7}
 8005c4c:	4770      	bx	lr
	...

08005c50 <UART_SetConfig>:
  * @param  huart  Pointer to a UART_HandleTypeDef structure that contains
  *                the configuration information for the specified UART module.
  * @retval None
  */
static void UART_SetConfig(UART_HandleTypeDef *huart)
{
 8005c50:	b580      	push	{r7, lr}
 8005c52:	b084      	sub	sp, #16
 8005c54:	af00      	add	r7, sp, #0
 8005c56:	6078      	str	r0, [r7, #4]
  assert_param(IS_UART_MODE(huart->Init.Mode));

  /*-------------------------- USART CR2 Configuration -----------------------*/
  /* Configure the UART Stop Bits: Set STOP[13:12] bits
     according to huart->Init.StopBits value */
  MODIFY_REG(huart->Instance->CR2, USART_CR2_STOP, huart->Init.StopBits);
 8005c58:	687b      	ldr	r3, [r7, #4]
 8005c5a:	681b      	ldr	r3, [r3, #0]
 8005c5c:	691b      	ldr	r3, [r3, #16]
 8005c5e:	f423 5140 	bic.w	r1, r3, #12288	@ 0x3000
 8005c62:	687b      	ldr	r3, [r7, #4]
 8005c64:	68da      	ldr	r2, [r3, #12]
 8005c66:	687b      	ldr	r3, [r7, #4]
 8005c68:	681b      	ldr	r3, [r3, #0]
 8005c6a:	430a      	orrs	r2, r1
 8005c6c:	611a      	str	r2, [r3, #16]
  tmpreg = (uint32_t)huart->Init.WordLength | huart->Init.Parity | huart->Init.Mode | huart->Init.OverSampling;
  MODIFY_REG(huart->Instance->CR1,
             (uint32_t)(USART_CR1_M | USART_CR1_PCE | USART_CR1_PS | USART_CR1_TE | USART_CR1_RE | USART_CR1_OVER8),
             tmpreg);
#else
  tmpreg = (uint32_t)huart->Init.WordLength | huart->Init.Parity | huart->Init.Mode;
 8005c6e:	687b      	ldr	r3, [r7, #4]
 8005c70:	689a      	ldr	r2, [r3, #8]
 8005c72:	687b      	ldr	r3, [r7, #4]
 8005c74:	691b      	ldr	r3, [r3, #16]
 8005c76:	431a      	orrs	r2, r3
 8005c78:	687b      	ldr	r3, [r7, #4]
 8005c7a:	695b      	ldr	r3, [r3, #20]
 8005c7c:	4313      	orrs	r3, r2
 8005c7e:	60bb      	str	r3, [r7, #8]
  MODIFY_REG(huart->Instance->CR1,
 8005c80:	687b      	ldr	r3, [r7, #4]
 8005c82:	681b      	ldr	r3, [r3, #0]
 8005c84:	68db      	ldr	r3, [r3, #12]
 8005c86:	f423 53b0 	bic.w	r3, r3, #5632	@ 0x1600
 8005c8a:	f023 030c 	bic.w	r3, r3, #12
 8005c8e:	687a      	ldr	r2, [r7, #4]
 8005c90:	6812      	ldr	r2, [r2, #0]
 8005c92:	68b9      	ldr	r1, [r7, #8]
 8005c94:	430b      	orrs	r3, r1
 8005c96:	60d3      	str	r3, [r2, #12]
             tmpreg);
#endif /* USART_CR1_OVER8 */

  /*-------------------------- USART CR3 Configuration -----------------------*/
  /* Configure the UART HFC: Set CTSE and RTSE bits according to huart->Init.HwFlowCtl value */
  MODIFY_REG(huart->Instance->CR3, (USART_CR3_RTSE | USART_CR3_CTSE), huart->Init.HwFlowCtl);
 8005c98:	687b      	ldr	r3, [r7, #4]
 8005c9a:	681b      	ldr	r3, [r3, #0]
 8005c9c:	695b      	ldr	r3, [r3, #20]
 8005c9e:	f423 7140 	bic.w	r1, r3, #768	@ 0x300
 8005ca2:	687b      	ldr	r3, [r7, #4]
 8005ca4:	699a      	ldr	r2, [r3, #24]
 8005ca6:	687b      	ldr	r3, [r7, #4]
 8005ca8:	681b      	ldr	r3, [r3, #0]
 8005caa:	430a      	orrs	r2, r1
 8005cac:	615a      	str	r2, [r3, #20]


  if(huart->Instance == USART1)
 8005cae:	687b      	ldr	r3, [r7, #4]
 8005cb0:	681b      	ldr	r3, [r3, #0]
 8005cb2:	4a2c      	ldr	r2, [pc, #176]	@ (8005d64 <UART_SetConfig+0x114>)
 8005cb4:	4293      	cmp	r3, r2
 8005cb6:	d103      	bne.n	8005cc0 <UART_SetConfig+0x70>
  {
    pclk = HAL_RCC_GetPCLK2Freq();
 8005cb8:	f7ff fd6a 	bl	8005790 <HAL_RCC_GetPCLK2Freq>
 8005cbc:	60f8      	str	r0, [r7, #12]
 8005cbe:	e002      	b.n	8005cc6 <UART_SetConfig+0x76>
  }
  else
  {
    pclk = HAL_RCC_GetPCLK1Freq();
 8005cc0:	f7ff fd52 	bl	8005768 <HAL_RCC_GetPCLK1Freq>
 8005cc4:	60f8      	str	r0, [r7, #12]
  else
  {
    huart->Instance->BRR = UART_BRR_SAMPLING16(pclk, huart->Init.BaudRate);
  }
#else
  huart->Instance->BRR = UART_BRR_SAMPLING16(pclk, huart->Init.BaudRate);
 8005cc6:	68fa      	ldr	r2, [r7, #12]
 8005cc8:	4613      	mov	r3, r2
 8005cca:	009b      	lsls	r3, r3, #2
 8005ccc:	4413      	add	r3, r2
 8005cce:	009a      	lsls	r2, r3, #2
 8005cd0:	441a      	add	r2, r3
 8005cd2:	687b      	ldr	r3, [r7, #4]
 8005cd4:	685b      	ldr	r3, [r3, #4]
 8005cd6:	009b      	lsls	r3, r3, #2
 8005cd8:	fbb2 f3f3 	udiv	r3, r2, r3
 8005cdc:	4a22      	ldr	r2, [pc, #136]	@ (8005d68 <UART_SetConfig+0x118>)
 8005cde:	fba2 2303 	umull	r2, r3, r2, r3
 8005ce2:	095b      	lsrs	r3, r3, #5
 8005ce4:	0119      	lsls	r1, r3, #4
 8005ce6:	68fa      	ldr	r2, [r7, #12]
 8005ce8:	4613      	mov	r3, r2
 8005cea:	009b      	lsls	r3, r3, #2
 8005cec:	4413      	add	r3, r2
 8005cee:	009a      	lsls	r2, r3, #2
 8005cf0:	441a      	add	r2, r3
 8005cf2:	687b      	ldr	r3, [r7, #4]
 8005cf4:	685b      	ldr	r3, [r3, #4]
 8005cf6:	009b      	lsls	r3, r3, #2
 8005cf8:	fbb2 f2f3 	udiv	r2, r2, r3
 8005cfc:	4b1a      	ldr	r3, [pc, #104]	@ (8005d68 <UART_SetConfig+0x118>)
 8005cfe:	fba3 0302 	umull	r0, r3, r3, r2
 8005d02:	095b      	lsrs	r3, r3, #5
 8005d04:	2064      	movs	r0, #100	@ 0x64
 8005d06:	fb00 f303 	mul.w	r3, r0, r3
 8005d0a:	1ad3      	subs	r3, r2, r3
 8005d0c:	011b      	lsls	r3, r3, #4
 8005d0e:	3332      	adds	r3, #50	@ 0x32
 8005d10:	4a15      	ldr	r2, [pc, #84]	@ (8005d68 <UART_SetConfig+0x118>)
 8005d12:	fba2 2303 	umull	r2, r3, r2, r3
 8005d16:	095b      	lsrs	r3, r3, #5
 8005d18:	f003 03f0 	and.w	r3, r3, #240	@ 0xf0
 8005d1c:	4419      	add	r1, r3
 8005d1e:	68fa      	ldr	r2, [r7, #12]
 8005d20:	4613      	mov	r3, r2
 8005d22:	009b      	lsls	r3, r3, #2
 8005d24:	4413      	add	r3, r2
 8005d26:	009a      	lsls	r2, r3, #2
 8005d28:	441a      	add	r2, r3
 8005d2a:	687b      	ldr	r3, [r7, #4]
 8005d2c:	685b      	ldr	r3, [r3, #4]
 8005d2e:	009b      	lsls	r3, r3, #2
 8005d30:	fbb2 f2f3 	udiv	r2, r2, r3
 8005d34:	4b0c      	ldr	r3, [pc, #48]	@ (8005d68 <UART_SetConfig+0x118>)
 8005d36:	fba3 0302 	umull	r0, r3, r3, r2
 8005d3a:	095b      	lsrs	r3, r3, #5
 8005d3c:	2064      	movs	r0, #100	@ 0x64
 8005d3e:	fb00 f303 	mul.w	r3, r0, r3
 8005d42:	1ad3      	subs	r3, r2, r3
 8005d44:	011b      	lsls	r3, r3, #4
 8005d46:	3332      	adds	r3, #50	@ 0x32
 8005d48:	4a07      	ldr	r2, [pc, #28]	@ (8005d68 <UART_SetConfig+0x118>)
 8005d4a:	fba2 2303 	umull	r2, r3, r2, r3
 8005d4e:	095b      	lsrs	r3, r3, #5
 8005d50:	f003 020f 	and.w	r2, r3, #15
 8005d54:	687b      	ldr	r3, [r7, #4]
 8005d56:	681b      	ldr	r3, [r3, #0]
 8005d58:	440a      	add	r2, r1
 8005d5a:	609a      	str	r2, [r3, #8]
#endif /* USART_CR1_OVER8 */
}
 8005d5c:	bf00      	nop
 8005d5e:	3710      	adds	r7, #16
 8005d60:	46bd      	mov	sp, r7
 8005d62:	bd80      	pop	{r7, pc}
 8005d64:	40013800 	.word	0x40013800
 8005d68:	51eb851f 	.word	0x51eb851f

08005d6c <_vsniprintf_r>:
 8005d6c:	b530      	push	{r4, r5, lr}
 8005d6e:	4614      	mov	r4, r2
 8005d70:	2c00      	cmp	r4, #0
 8005d72:	4605      	mov	r5, r0
 8005d74:	461a      	mov	r2, r3
 8005d76:	b09b      	sub	sp, #108	@ 0x6c
 8005d78:	da05      	bge.n	8005d86 <_vsniprintf_r+0x1a>
 8005d7a:	238b      	movs	r3, #139	@ 0x8b
 8005d7c:	6003      	str	r3, [r0, #0]
 8005d7e:	f04f 30ff 	mov.w	r0, #4294967295
 8005d82:	b01b      	add	sp, #108	@ 0x6c
 8005d84:	bd30      	pop	{r4, r5, pc}
 8005d86:	f44f 7302 	mov.w	r3, #520	@ 0x208
 8005d8a:	f8ad 300c 	strh.w	r3, [sp, #12]
 8005d8e:	f04f 0300 	mov.w	r3, #0
 8005d92:	9319      	str	r3, [sp, #100]	@ 0x64
 8005d94:	bf0c      	ite	eq
 8005d96:	4623      	moveq	r3, r4
 8005d98:	f104 33ff 	addne.w	r3, r4, #4294967295
 8005d9c:	9302      	str	r3, [sp, #8]
 8005d9e:	9305      	str	r3, [sp, #20]
 8005da0:	f64f 73ff 	movw	r3, #65535	@ 0xffff
 8005da4:	9100      	str	r1, [sp, #0]
 8005da6:	9104      	str	r1, [sp, #16]
 8005da8:	f8ad 300e 	strh.w	r3, [sp, #14]
 8005dac:	4669      	mov	r1, sp
 8005dae:	9b1e      	ldr	r3, [sp, #120]	@ 0x78
 8005db0:	f000 f9ca 	bl	8006148 <_svfiprintf_r>
 8005db4:	1c43      	adds	r3, r0, #1
 8005db6:	bfbc      	itt	lt
 8005db8:	238b      	movlt	r3, #139	@ 0x8b
 8005dba:	602b      	strlt	r3, [r5, #0]
 8005dbc:	2c00      	cmp	r4, #0
 8005dbe:	d0e0      	beq.n	8005d82 <_vsniprintf_r+0x16>
 8005dc0:	2200      	movs	r2, #0
 8005dc2:	9b00      	ldr	r3, [sp, #0]
 8005dc4:	701a      	strb	r2, [r3, #0]
 8005dc6:	e7dc      	b.n	8005d82 <_vsniprintf_r+0x16>

08005dc8 <vsniprintf>:
 8005dc8:	b507      	push	{r0, r1, r2, lr}
 8005dca:	9300      	str	r3, [sp, #0]
 8005dcc:	4613      	mov	r3, r2
 8005dce:	460a      	mov	r2, r1
 8005dd0:	4601      	mov	r1, r0
 8005dd2:	4803      	ldr	r0, [pc, #12]	@ (8005de0 <vsniprintf+0x18>)
 8005dd4:	6800      	ldr	r0, [r0, #0]
 8005dd6:	f7ff ffc9 	bl	8005d6c <_vsniprintf_r>
 8005dda:	b003      	add	sp, #12
 8005ddc:	bd00      	pop	{pc}
 8005dde:	bf00      	nop
 8005de0:	2000000c 	.word	0x2000000c

08005de4 <memmove>:
 8005de4:	4288      	cmp	r0, r1
 8005de6:	b510      	push	{r4, lr}
 8005de8:	eb01 0402 	add.w	r4, r1, r2
 8005dec:	d902      	bls.n	8005df4 <memmove+0x10>
 8005dee:	4284      	cmp	r4, r0
 8005df0:	4623      	mov	r3, r4
 8005df2:	d807      	bhi.n	8005e04 <memmove+0x20>
 8005df4:	1e43      	subs	r3, r0, #1
 8005df6:	42a1      	cmp	r1, r4
 8005df8:	d007      	beq.n	8005e0a <memmove+0x26>
 8005dfa:	f811 2b01 	ldrb.w	r2, [r1], #1
 8005dfe:	f803 2f01 	strb.w	r2, [r3, #1]!
 8005e02:	e7f8      	b.n	8005df6 <memmove+0x12>
 8005e04:	4402      	add	r2, r0
 8005e06:	4282      	cmp	r2, r0
 8005e08:	d100      	bne.n	8005e0c <memmove+0x28>
 8005e0a:	bd10      	pop	{r4, pc}
 8005e0c:	f813 1d01 	ldrb.w	r1, [r3, #-1]!
 8005e10:	f802 1d01 	strb.w	r1, [r2, #-1]!
 8005e14:	e7f7      	b.n	8005e06 <memmove+0x22>

08005e16 <memset>:
 8005e16:	4603      	mov	r3, r0
 8005e18:	4402      	add	r2, r0
 8005e1a:	4293      	cmp	r3, r2
 8005e1c:	d100      	bne.n	8005e20 <memset+0xa>
 8005e1e:	4770      	bx	lr
 8005e20:	f803 1b01 	strb.w	r1, [r3], #1
 8005e24:	e7f9      	b.n	8005e1a <memset+0x4>
	...

08005e28 <__errno>:
 8005e28:	4b01      	ldr	r3, [pc, #4]	@ (8005e30 <__errno+0x8>)
 8005e2a:	6818      	ldr	r0, [r3, #0]
 8005e2c:	4770      	bx	lr
 8005e2e:	bf00      	nop
 8005e30:	2000000c 	.word	0x2000000c

08005e34 <__libc_init_array>:
 8005e34:	b570      	push	{r4, r5, r6, lr}
 8005e36:	2600      	movs	r6, #0
 8005e38:	4d0c      	ldr	r5, [pc, #48]	@ (8005e6c <__libc_init_array+0x38>)
 8005e3a:	4b0d      	ldr	r3, [pc, #52]	@ (8005e70 <__libc_init_array+0x3c>)
 8005e3c:	1b5b      	subs	r3, r3, r5
 8005e3e:	109c      	asrs	r4, r3, #2
 8005e40:	42a6      	cmp	r6, r4
 8005e42:	d109      	bne.n	8005e58 <__libc_init_array+0x24>
 8005e44:	2600      	movs	r6, #0
 8005e46:	f000 fc63 	bl	8006710 <_init>
 8005e4a:	4d0a      	ldr	r5, [pc, #40]	@ (8005e74 <__libc_init_array+0x40>)
 8005e4c:	4b0a      	ldr	r3, [pc, #40]	@ (8005e78 <__libc_init_array+0x44>)
 8005e4e:	1b5b      	subs	r3, r3, r5
 8005e50:	109c      	asrs	r4, r3, #2
 8005e52:	42a6      	cmp	r6, r4
 8005e54:	d105      	bne.n	8005e62 <__libc_init_array+0x2e>
 8005e56:	bd70      	pop	{r4, r5, r6, pc}
 8005e58:	f855 3b04 	ldr.w	r3, [r5], #4
 8005e5c:	4798      	blx	r3
 8005e5e:	3601      	adds	r6, #1
 8005e60:	e7ee      	b.n	8005e40 <__libc_init_array+0xc>
 8005e62:	f855 3b04 	ldr.w	r3, [r5], #4
 8005e66:	4798      	blx	r3
 8005e68:	3601      	adds	r6, #1
 8005e6a:	e7f2      	b.n	8005e52 <__libc_init_array+0x1e>
 8005e6c:	080071e0 	.word	0x080071e0
 8005e70:	080071e0 	.word	0x080071e0
 8005e74:	080071e0 	.word	0x080071e0
 8005e78:	080071e4 	.word	0x080071e4

08005e7c <__retarget_lock_acquire_recursive>:
 8005e7c:	4770      	bx	lr

08005e7e <__retarget_lock_release_recursive>:
 8005e7e:	4770      	bx	lr

08005e80 <memcpy>:
 8005e80:	440a      	add	r2, r1
 8005e82:	4291      	cmp	r1, r2
 8005e84:	f100 33ff 	add.w	r3, r0, #4294967295
 8005e88:	d100      	bne.n	8005e8c <memcpy+0xc>
 8005e8a:	4770      	bx	lr
 8005e8c:	b510      	push	{r4, lr}
 8005e8e:	f811 4b01 	ldrb.w	r4, [r1], #1
 8005e92:	4291      	cmp	r1, r2
 8005e94:	f803 4f01 	strb.w	r4, [r3, #1]!
 8005e98:	d1f9      	bne.n	8005e8e <memcpy+0xe>
 8005e9a:	bd10      	pop	{r4, pc}

08005e9c <_free_r>:
 8005e9c:	b538      	push	{r3, r4, r5, lr}
 8005e9e:	4605      	mov	r5, r0
 8005ea0:	2900      	cmp	r1, #0
 8005ea2:	d040      	beq.n	8005f26 <_free_r+0x8a>
 8005ea4:	f851 3c04 	ldr.w	r3, [r1, #-4]
 8005ea8:	1f0c      	subs	r4, r1, #4
 8005eaa:	2b00      	cmp	r3, #0
 8005eac:	bfb8      	it	lt
 8005eae:	18e4      	addlt	r4, r4, r3
 8005eb0:	f000 f8de 	bl	8006070 <__malloc_lock>
 8005eb4:	4a1c      	ldr	r2, [pc, #112]	@ (8005f28 <_free_r+0x8c>)
 8005eb6:	6813      	ldr	r3, [r2, #0]
 8005eb8:	b933      	cbnz	r3, 8005ec8 <_free_r+0x2c>
 8005eba:	6063      	str	r3, [r4, #4]
 8005ebc:	6014      	str	r4, [r2, #0]
 8005ebe:	4628      	mov	r0, r5
 8005ec0:	e8bd 4038 	ldmia.w	sp!, {r3, r4, r5, lr}
 8005ec4:	f000 b8da 	b.w	800607c <__malloc_unlock>
 8005ec8:	42a3      	cmp	r3, r4
 8005eca:	d908      	bls.n	8005ede <_free_r+0x42>
 8005ecc:	6820      	ldr	r0, [r4, #0]
 8005ece:	1821      	adds	r1, r4, r0
 8005ed0:	428b      	cmp	r3, r1
 8005ed2:	bf01      	itttt	eq
 8005ed4:	6819      	ldreq	r1, [r3, #0]
 8005ed6:	685b      	ldreq	r3, [r3, #4]
 8005ed8:	1809      	addeq	r1, r1, r0
 8005eda:	6021      	streq	r1, [r4, #0]
 8005edc:	e7ed      	b.n	8005eba <_free_r+0x1e>
 8005ede:	461a      	mov	r2, r3
 8005ee0:	685b      	ldr	r3, [r3, #4]
 8005ee2:	b10b      	cbz	r3, 8005ee8 <_free_r+0x4c>
 8005ee4:	42a3      	cmp	r3, r4
 8005ee6:	d9fa      	bls.n	8005ede <_free_r+0x42>
 8005ee8:	6811      	ldr	r1, [r2, #0]
 8005eea:	1850      	adds	r0, r2, r1
 8005eec:	42a0      	cmp	r0, r4
 8005eee:	d10b      	bne.n	8005f08 <_free_r+0x6c>
 8005ef0:	6820      	ldr	r0, [r4, #0]
 8005ef2:	4401      	add	r1, r0
 8005ef4:	1850      	adds	r0, r2, r1
 8005ef6:	4283      	cmp	r3, r0
 8005ef8:	6011      	str	r1, [r2, #0]
 8005efa:	d1e0      	bne.n	8005ebe <_free_r+0x22>
 8005efc:	6818      	ldr	r0, [r3, #0]
 8005efe:	685b      	ldr	r3, [r3, #4]
 8005f00:	4408      	add	r0, r1
 8005f02:	6010      	str	r0, [r2, #0]
 8005f04:	6053      	str	r3, [r2, #4]
 8005f06:	e7da      	b.n	8005ebe <_free_r+0x22>
 8005f08:	d902      	bls.n	8005f10 <_free_r+0x74>
 8005f0a:	230c      	movs	r3, #12
 8005f0c:	602b      	str	r3, [r5, #0]
 8005f0e:	e7d6      	b.n	8005ebe <_free_r+0x22>
 8005f10:	6820      	ldr	r0, [r4, #0]
 8005f12:	1821      	adds	r1, r4, r0
 8005f14:	428b      	cmp	r3, r1
 8005f16:	bf01      	itttt	eq
 8005f18:	6819      	ldreq	r1, [r3, #0]
 8005f1a:	685b      	ldreq	r3, [r3, #4]
 8005f1c:	1809      	addeq	r1, r1, r0
 8005f1e:	6021      	streq	r1, [r4, #0]
 8005f20:	6063      	str	r3, [r4, #4]
 8005f22:	6054      	str	r4, [r2, #4]
 8005f24:	e7cb      	b.n	8005ebe <_free_r+0x22>
 8005f26:	bd38      	pop	{r3, r4, r5, pc}
 8005f28:	20000e2c 	.word	0x20000e2c

08005f2c <sbrk_aligned>:
 8005f2c:	b570      	push	{r4, r5, r6, lr}
 8005f2e:	4e0f      	ldr	r6, [pc, #60]	@ (8005f6c <sbrk_aligned+0x40>)
 8005f30:	460c      	mov	r4, r1
 8005f32:	6831      	ldr	r1, [r6, #0]
 8005f34:	4605      	mov	r5, r0
 8005f36:	b911      	cbnz	r1, 8005f3e <sbrk_aligned+0x12>
 8005f38:	f000 fb96 	bl	8006668 <_sbrk_r>
 8005f3c:	6030      	str	r0, [r6, #0]
 8005f3e:	4621      	mov	r1, r4
 8005f40:	4628      	mov	r0, r5
 8005f42:	f000 fb91 	bl	8006668 <_sbrk_r>
 8005f46:	1c43      	adds	r3, r0, #1
 8005f48:	d103      	bne.n	8005f52 <sbrk_aligned+0x26>
 8005f4a:	f04f 34ff 	mov.w	r4, #4294967295
 8005f4e:	4620      	mov	r0, r4
 8005f50:	bd70      	pop	{r4, r5, r6, pc}
 8005f52:	1cc4      	adds	r4, r0, #3
 8005f54:	f024 0403 	bic.w	r4, r4, #3
 8005f58:	42a0      	cmp	r0, r4
 8005f5a:	d0f8      	beq.n	8005f4e <sbrk_aligned+0x22>
 8005f5c:	1a21      	subs	r1, r4, r0
 8005f5e:	4628      	mov	r0, r5
 8005f60:	f000 fb82 	bl	8006668 <_sbrk_r>
 8005f64:	3001      	adds	r0, #1
 8005f66:	d1f2      	bne.n	8005f4e <sbrk_aligned+0x22>
 8005f68:	e7ef      	b.n	8005f4a <sbrk_aligned+0x1e>
 8005f6a:	bf00      	nop
 8005f6c:	20000e28 	.word	0x20000e28

08005f70 <_malloc_r>:
 8005f70:	e92d 43f8 	stmdb	sp!, {r3, r4, r5, r6, r7, r8, r9, lr}
 8005f74:	1ccd      	adds	r5, r1, #3
 8005f76:	f025 0503 	bic.w	r5, r5, #3
 8005f7a:	3508      	adds	r5, #8
 8005f7c:	2d0c      	cmp	r5, #12
 8005f7e:	bf38      	it	cc
 8005f80:	250c      	movcc	r5, #12
 8005f82:	2d00      	cmp	r5, #0
 8005f84:	4606      	mov	r6, r0
 8005f86:	db01      	blt.n	8005f8c <_malloc_r+0x1c>
 8005f88:	42a9      	cmp	r1, r5
 8005f8a:	d904      	bls.n	8005f96 <_malloc_r+0x26>
 8005f8c:	230c      	movs	r3, #12
 8005f8e:	6033      	str	r3, [r6, #0]
 8005f90:	2000      	movs	r0, #0
 8005f92:	e8bd 83f8 	ldmia.w	sp!, {r3, r4, r5, r6, r7, r8, r9, pc}
 8005f96:	f8df 80d4 	ldr.w	r8, [pc, #212]	@ 800606c <_malloc_r+0xfc>
 8005f9a:	f000 f869 	bl	8006070 <__malloc_lock>
 8005f9e:	f8d8 3000 	ldr.w	r3, [r8]
 8005fa2:	461c      	mov	r4, r3
 8005fa4:	bb44      	cbnz	r4, 8005ff8 <_malloc_r+0x88>
 8005fa6:	4629      	mov	r1, r5
 8005fa8:	4630      	mov	r0, r6
 8005faa:	f7ff ffbf 	bl	8005f2c <sbrk_aligned>
 8005fae:	1c43      	adds	r3, r0, #1
 8005fb0:	4604      	mov	r4, r0
 8005fb2:	d158      	bne.n	8006066 <_malloc_r+0xf6>
 8005fb4:	f8d8 4000 	ldr.w	r4, [r8]
 8005fb8:	4627      	mov	r7, r4
 8005fba:	2f00      	cmp	r7, #0
 8005fbc:	d143      	bne.n	8006046 <_malloc_r+0xd6>
 8005fbe:	2c00      	cmp	r4, #0
 8005fc0:	d04b      	beq.n	800605a <_malloc_r+0xea>
 8005fc2:	6823      	ldr	r3, [r4, #0]
 8005fc4:	4639      	mov	r1, r7
 8005fc6:	4630      	mov	r0, r6
 8005fc8:	eb04 0903 	add.w	r9, r4, r3
 8005fcc:	f000 fb4c 	bl	8006668 <_sbrk_r>
 8005fd0:	4581      	cmp	r9, r0
 8005fd2:	d142      	bne.n	800605a <_malloc_r+0xea>
 8005fd4:	6821      	ldr	r1, [r4, #0]
 8005fd6:	4630      	mov	r0, r6
 8005fd8:	1a6d      	subs	r5, r5, r1
 8005fda:	4629      	mov	r1, r5
 8005fdc:	f7ff ffa6 	bl	8005f2c <sbrk_aligned>
 8005fe0:	3001      	adds	r0, #1
 8005fe2:	d03a      	beq.n	800605a <_malloc_r+0xea>
 8005fe4:	6823      	ldr	r3, [r4, #0]
 8005fe6:	442b      	add	r3, r5
 8005fe8:	6023      	str	r3, [r4, #0]
 8005fea:	f8d8 3000 	ldr.w	r3, [r8]
 8005fee:	685a      	ldr	r2, [r3, #4]
 8005ff0:	bb62      	cbnz	r2, 800604c <_malloc_r+0xdc>
 8005ff2:	f8c8 7000 	str.w	r7, [r8]
 8005ff6:	e00f      	b.n	8006018 <_malloc_r+0xa8>
 8005ff8:	6822      	ldr	r2, [r4, #0]
 8005ffa:	1b52      	subs	r2, r2, r5
 8005ffc:	d420      	bmi.n	8006040 <_malloc_r+0xd0>
 8005ffe:	2a0b      	cmp	r2, #11
 8006000:	d917      	bls.n	8006032 <_malloc_r+0xc2>
 8006002:	1961      	adds	r1, r4, r5
 8006004:	42a3      	cmp	r3, r4
 8006006:	6025      	str	r5, [r4, #0]
 8006008:	bf18      	it	ne
 800600a:	6059      	strne	r1, [r3, #4]
 800600c:	6863      	ldr	r3, [r4, #4]
 800600e:	bf08      	it	eq
 8006010:	f8c8 1000 	streq.w	r1, [r8]
 8006014:	5162      	str	r2, [r4, r5]
 8006016:	604b      	str	r3, [r1, #4]
 8006018:	4630      	mov	r0, r6
 800601a:	f000 f82f 	bl	800607c <__malloc_unlock>
 800601e:	f104 000b 	add.w	r0, r4, #11
 8006022:	1d23      	adds	r3, r4, #4
 8006024:	f020 0007 	bic.w	r0, r0, #7
 8006028:	1ac2      	subs	r2, r0, r3
 800602a:	bf1c      	itt	ne
 800602c:	1a1b      	subne	r3, r3, r0
 800602e:	50a3      	strne	r3, [r4, r2]
 8006030:	e7af      	b.n	8005f92 <_malloc_r+0x22>
 8006032:	6862      	ldr	r2, [r4, #4]
 8006034:	42a3      	cmp	r3, r4
 8006036:	bf0c      	ite	eq
 8006038:	f8c8 2000 	streq.w	r2, [r8]
 800603c:	605a      	strne	r2, [r3, #4]
 800603e:	e7eb      	b.n	8006018 <_malloc_r+0xa8>
 8006040:	4623      	mov	r3, r4
 8006042:	6864      	ldr	r4, [r4, #4]
 8006044:	e7ae      	b.n	8005fa4 <_malloc_r+0x34>
 8006046:	463c      	mov	r4, r7
 8006048:	687f      	ldr	r7, [r7, #4]
 800604a:	e7b6      	b.n	8005fba <_malloc_r+0x4a>
 800604c:	461a      	mov	r2, r3
 800604e:	685b      	ldr	r3, [r3, #4]
 8006050:	42a3      	cmp	r3, r4
 8006052:	d1fb      	bne.n	800604c <_malloc_r+0xdc>
 8006054:	2300      	movs	r3, #0
 8006056:	6053      	str	r3, [r2, #4]
 8006058:	e7de      	b.n	8006018 <_malloc_r+0xa8>
 800605a:	230c      	movs	r3, #12
 800605c:	4630      	mov	r0, r6
 800605e:	6033      	str	r3, [r6, #0]
 8006060:	f000 f80c 	bl	800607c <__malloc_unlock>
 8006064:	e794      	b.n	8005f90 <_malloc_r+0x20>
 8006066:	6005      	str	r5, [r0, #0]
 8006068:	e7d6      	b.n	8006018 <_malloc_r+0xa8>
 800606a:	bf00      	nop
 800606c:	20000e2c 	.word	0x20000e2c

08006070 <__malloc_lock>:
 8006070:	4801      	ldr	r0, [pc, #4]	@ (8006078 <__malloc_lock+0x8>)
 8006072:	f7ff bf03 	b.w	8005e7c <__retarget_lock_acquire_recursive>
 8006076:	bf00      	nop
 8006078:	20000e24 	.word	0x20000e24

0800607c <__malloc_unlock>:
 800607c:	4801      	ldr	r0, [pc, #4]	@ (8006084 <__malloc_unlock+0x8>)
 800607e:	f7ff befe 	b.w	8005e7e <__retarget_lock_release_recursive>
 8006082:	bf00      	nop
 8006084:	20000e24 	.word	0x20000e24

08006088 <__ssputs_r>:
 8006088:	e92d 47f0 	stmdb	sp!, {r4, r5, r6, r7, r8, r9, sl, lr}
 800608c:	461f      	mov	r7, r3
 800608e:	688e      	ldr	r6, [r1, #8]
 8006090:	4682      	mov	sl, r0
 8006092:	42be      	cmp	r6, r7
 8006094:	460c      	mov	r4, r1
 8006096:	4690      	mov	r8, r2
 8006098:	4633      	mov	r3, r6
 800609a:	d853      	bhi.n	8006144 <__ssputs_r+0xbc>
 800609c:	f9b1 000c 	ldrsh.w	r0, [r1, #12]
 80060a0:	f410 6f90 	tst.w	r0, #1152	@ 0x480
 80060a4:	d02b      	beq.n	80060fe <__ssputs_r+0x76>
 80060a6:	6965      	ldr	r5, [r4, #20]
 80060a8:	6823      	ldr	r3, [r4, #0]
 80060aa:	6909      	ldr	r1, [r1, #16]
 80060ac:	eb05 0545 	add.w	r5, r5, r5, lsl #1
 80060b0:	eba3 0901 	sub.w	r9, r3, r1
 80060b4:	eb05 75d5 	add.w	r5, r5, r5, lsr #31
 80060b8:	1c7b      	adds	r3, r7, #1
 80060ba:	106d      	asrs	r5, r5, #1
 80060bc:	444b      	add	r3, r9
 80060be:	42ab      	cmp	r3, r5
 80060c0:	462a      	mov	r2, r5
 80060c2:	bf84      	itt	hi
 80060c4:	461d      	movhi	r5, r3
 80060c6:	462a      	movhi	r2, r5
 80060c8:	0543      	lsls	r3, r0, #21
 80060ca:	d527      	bpl.n	800611c <__ssputs_r+0x94>
 80060cc:	4611      	mov	r1, r2
 80060ce:	4650      	mov	r0, sl
 80060d0:	f7ff ff4e 	bl	8005f70 <_malloc_r>
 80060d4:	4606      	mov	r6, r0
 80060d6:	b358      	cbz	r0, 8006130 <__ssputs_r+0xa8>
 80060d8:	464a      	mov	r2, r9
 80060da:	6921      	ldr	r1, [r4, #16]
 80060dc:	f7ff fed0 	bl	8005e80 <memcpy>
 80060e0:	89a3      	ldrh	r3, [r4, #12]
 80060e2:	f423 6390 	bic.w	r3, r3, #1152	@ 0x480
 80060e6:	f043 0380 	orr.w	r3, r3, #128	@ 0x80
 80060ea:	81a3      	strh	r3, [r4, #12]
 80060ec:	6126      	str	r6, [r4, #16]
 80060ee:	444e      	add	r6, r9
 80060f0:	6026      	str	r6, [r4, #0]
 80060f2:	463b      	mov	r3, r7
 80060f4:	463e      	mov	r6, r7
 80060f6:	6165      	str	r5, [r4, #20]
 80060f8:	eba5 0509 	sub.w	r5, r5, r9
 80060fc:	60a5      	str	r5, [r4, #8]
 80060fe:	461f      	mov	r7, r3
 8006100:	463a      	mov	r2, r7
 8006102:	4641      	mov	r1, r8
 8006104:	6820      	ldr	r0, [r4, #0]
 8006106:	f7ff fe6d 	bl	8005de4 <memmove>
 800610a:	2000      	movs	r0, #0
 800610c:	68a3      	ldr	r3, [r4, #8]
 800610e:	1b9b      	subs	r3, r3, r6
 8006110:	60a3      	str	r3, [r4, #8]
 8006112:	6823      	ldr	r3, [r4, #0]
 8006114:	443b      	add	r3, r7
 8006116:	6023      	str	r3, [r4, #0]
 8006118:	e8bd 87f0 	ldmia.w	sp!, {r4, r5, r6, r7, r8, r9, sl, pc}
 800611c:	4650      	mov	r0, sl
 800611e:	f000 fac1 	bl	80066a4 <_realloc_r>
 8006122:	4606      	mov	r6, r0
 8006124:	2800      	cmp	r0, #0
 8006126:	d1e1      	bne.n	80060ec <__ssputs_r+0x64>
 8006128:	4650      	mov	r0, sl
 800612a:	6921      	ldr	r1, [r4, #16]
 800612c:	f7ff feb6 	bl	8005e9c <_free_r>
 8006130:	230c      	movs	r3, #12
 8006132:	f8ca 3000 	str.w	r3, [sl]
 8006136:	89a3      	ldrh	r3, [r4, #12]
 8006138:	f04f 30ff 	mov.w	r0, #4294967295
 800613c:	f043 0340 	orr.w	r3, r3, #64	@ 0x40
 8006140:	81a3      	strh	r3, [r4, #12]
 8006142:	e7e9      	b.n	8006118 <__ssputs_r+0x90>
 8006144:	463e      	mov	r6, r7
 8006146:	e7db      	b.n	8006100 <__ssputs_r+0x78>

08006148 <_svfiprintf_r>:
 8006148:	e92d 47f0 	stmdb	sp!, {r4, r5, r6, r7, r8, r9, sl, lr}
 800614c:	461f      	mov	r7, r3
 800614e:	898b      	ldrh	r3, [r1, #12]
 8006150:	4606      	mov	r6, r0
 8006152:	061b      	lsls	r3, r3, #24
 8006154:	460d      	mov	r5, r1
 8006156:	4614      	mov	r4, r2
 8006158:	b09c      	sub	sp, #112	@ 0x70
 800615a:	d510      	bpl.n	800617e <_svfiprintf_r+0x36>
 800615c:	690b      	ldr	r3, [r1, #16]
 800615e:	b973      	cbnz	r3, 800617e <_svfiprintf_r+0x36>
 8006160:	2140      	movs	r1, #64	@ 0x40
 8006162:	f7ff ff05 	bl	8005f70 <_malloc_r>
 8006166:	6028      	str	r0, [r5, #0]
 8006168:	6128      	str	r0, [r5, #16]
 800616a:	b930      	cbnz	r0, 800617a <_svfiprintf_r+0x32>
 800616c:	230c      	movs	r3, #12
 800616e:	6033      	str	r3, [r6, #0]
 8006170:	f04f 30ff 	mov.w	r0, #4294967295
 8006174:	b01c      	add	sp, #112	@ 0x70
 8006176:	e8bd 87f0 	ldmia.w	sp!, {r4, r5, r6, r7, r8, r9, sl, pc}
 800617a:	2340      	movs	r3, #64	@ 0x40
 800617c:	616b      	str	r3, [r5, #20]
 800617e:	2300      	movs	r3, #0
 8006180:	9309      	str	r3, [sp, #36]	@ 0x24
 8006182:	2320      	movs	r3, #32
 8006184:	f88d 3029 	strb.w	r3, [sp, #41]	@ 0x29
 8006188:	2330      	movs	r3, #48	@ 0x30
 800618a:	f04f 0801 	mov.w	r8, #1
 800618e:	9703      	str	r7, [sp, #12]
 8006190:	4f64      	ldr	r7, [pc, #400]	@ (8006324 <_svfiprintf_r+0x1dc>)
 8006192:	f88d 302a 	strb.w	r3, [sp, #42]	@ 0x2a
 8006196:	4623      	mov	r3, r4
 8006198:	4699      	mov	r9, r3
 800619a:	f813 2b01 	ldrb.w	r2, [r3], #1
 800619e:	b10a      	cbz	r2, 80061a4 <_svfiprintf_r+0x5c>
 80061a0:	2a25      	cmp	r2, #37	@ 0x25
 80061a2:	d1f9      	bne.n	8006198 <_svfiprintf_r+0x50>
 80061a4:	ebb9 0a04 	subs.w	sl, r9, r4
 80061a8:	d00b      	beq.n	80061c2 <_svfiprintf_r+0x7a>
 80061aa:	4653      	mov	r3, sl
 80061ac:	4622      	mov	r2, r4
 80061ae:	4629      	mov	r1, r5
 80061b0:	4630      	mov	r0, r6
 80061b2:	f7ff ff69 	bl	8006088 <__ssputs_r>
 80061b6:	3001      	adds	r0, #1
 80061b8:	f000 80a4 	beq.w	8006304 <_svfiprintf_r+0x1bc>
 80061bc:	9a09      	ldr	r2, [sp, #36]	@ 0x24
 80061be:	4452      	add	r2, sl
 80061c0:	9209      	str	r2, [sp, #36]	@ 0x24
 80061c2:	f899 3000 	ldrb.w	r3, [r9]
 80061c6:	2b00      	cmp	r3, #0
 80061c8:	f000 809c 	beq.w	8006304 <_svfiprintf_r+0x1bc>
 80061cc:	2300      	movs	r3, #0
 80061ce:	f04f 32ff 	mov.w	r2, #4294967295
 80061d2:	e9cd 2305 	strd	r2, r3, [sp, #20]
 80061d6:	f109 0901 	add.w	r9, r9, #1
 80061da:	9304      	str	r3, [sp, #16]
 80061dc:	9307      	str	r3, [sp, #28]
 80061de:	f88d 3053 	strb.w	r3, [sp, #83]	@ 0x53
 80061e2:	931a      	str	r3, [sp, #104]	@ 0x68
 80061e4:	464c      	mov	r4, r9
 80061e6:	2205      	movs	r2, #5
 80061e8:	f814 1b01 	ldrb.w	r1, [r4], #1
 80061ec:	484d      	ldr	r0, [pc, #308]	@ (8006324 <_svfiprintf_r+0x1dc>)
 80061ee:	f000 fa4b 	bl	8006688 <memchr>
 80061f2:	9b04      	ldr	r3, [sp, #16]
 80061f4:	b9d0      	cbnz	r0, 800622c <_svfiprintf_r+0xe4>
 80061f6:	06d8      	lsls	r0, r3, #27
 80061f8:	bf44      	itt	mi
 80061fa:	2220      	movmi	r2, #32
 80061fc:	f88d 2053 	strbmi.w	r2, [sp, #83]	@ 0x53
 8006200:	0719      	lsls	r1, r3, #28
 8006202:	bf44      	itt	mi
 8006204:	222b      	movmi	r2, #43	@ 0x2b
 8006206:	f88d 2053 	strbmi.w	r2, [sp, #83]	@ 0x53
 800620a:	f899 2000 	ldrb.w	r2, [r9]
 800620e:	2a2a      	cmp	r2, #42	@ 0x2a
 8006210:	d013      	beq.n	800623a <_svfiprintf_r+0xf2>
 8006212:	464c      	mov	r4, r9
 8006214:	2000      	movs	r0, #0
 8006216:	f04f 0c0a 	mov.w	ip, #10
 800621a:	9a07      	ldr	r2, [sp, #28]
 800621c:	4621      	mov	r1, r4
 800621e:	f811 3b01 	ldrb.w	r3, [r1], #1
 8006222:	3b30      	subs	r3, #48	@ 0x30
 8006224:	2b09      	cmp	r3, #9
 8006226:	d949      	bls.n	80062bc <_svfiprintf_r+0x174>
 8006228:	b968      	cbnz	r0, 8006246 <_svfiprintf_r+0xfe>
 800622a:	e013      	b.n	8006254 <_svfiprintf_r+0x10c>
 800622c:	1bc0      	subs	r0, r0, r7
 800622e:	fa08 f000 	lsl.w	r0, r8, r0
 8006232:	4318      	orrs	r0, r3
 8006234:	46a1      	mov	r9, r4
 8006236:	9004      	str	r0, [sp, #16]
 8006238:	e7d4      	b.n	80061e4 <_svfiprintf_r+0x9c>
 800623a:	9a03      	ldr	r2, [sp, #12]
 800623c:	1d11      	adds	r1, r2, #4
 800623e:	6812      	ldr	r2, [r2, #0]
 8006240:	9103      	str	r1, [sp, #12]
 8006242:	2a00      	cmp	r2, #0
 8006244:	db01      	blt.n	800624a <_svfiprintf_r+0x102>
 8006246:	9207      	str	r2, [sp, #28]
 8006248:	e004      	b.n	8006254 <_svfiprintf_r+0x10c>
 800624a:	4252      	negs	r2, r2
 800624c:	f043 0302 	orr.w	r3, r3, #2
 8006250:	9207      	str	r2, [sp, #28]
 8006252:	9304      	str	r3, [sp, #16]
 8006254:	7823      	ldrb	r3, [r4, #0]
 8006256:	2b2e      	cmp	r3, #46	@ 0x2e
 8006258:	d10a      	bne.n	8006270 <_svfiprintf_r+0x128>
 800625a:	7863      	ldrb	r3, [r4, #1]
 800625c:	2b2a      	cmp	r3, #42	@ 0x2a
 800625e:	d132      	bne.n	80062c6 <_svfiprintf_r+0x17e>
 8006260:	9b03      	ldr	r3, [sp, #12]
 8006262:	3402      	adds	r4, #2
 8006264:	1d1a      	adds	r2, r3, #4
 8006266:	681b      	ldr	r3, [r3, #0]
 8006268:	9203      	str	r2, [sp, #12]
 800626a:	ea43 73e3 	orr.w	r3, r3, r3, asr #31
 800626e:	9305      	str	r3, [sp, #20]
 8006270:	f8df 90b4 	ldr.w	r9, [pc, #180]	@ 8006328 <_svfiprintf_r+0x1e0>
 8006274:	2203      	movs	r2, #3
 8006276:	4648      	mov	r0, r9
 8006278:	7821      	ldrb	r1, [r4, #0]
 800627a:	f000 fa05 	bl	8006688 <memchr>
 800627e:	b138      	cbz	r0, 8006290 <_svfiprintf_r+0x148>
 8006280:	2240      	movs	r2, #64	@ 0x40
 8006282:	9b04      	ldr	r3, [sp, #16]
 8006284:	eba0 0009 	sub.w	r0, r0, r9
 8006288:	4082      	lsls	r2, r0
 800628a:	4313      	orrs	r3, r2
 800628c:	3401      	adds	r4, #1
 800628e:	9304      	str	r3, [sp, #16]
 8006290:	f814 1b01 	ldrb.w	r1, [r4], #1
 8006294:	2206      	movs	r2, #6
 8006296:	4825      	ldr	r0, [pc, #148]	@ (800632c <_svfiprintf_r+0x1e4>)
 8006298:	f88d 1028 	strb.w	r1, [sp, #40]	@ 0x28
 800629c:	f000 f9f4 	bl	8006688 <memchr>
 80062a0:	2800      	cmp	r0, #0
 80062a2:	d035      	beq.n	8006310 <_svfiprintf_r+0x1c8>
 80062a4:	4822      	ldr	r0, [pc, #136]	@ (8006330 <_svfiprintf_r+0x1e8>)
 80062a6:	bb18      	cbnz	r0, 80062f0 <_svfiprintf_r+0x1a8>
 80062a8:	9b03      	ldr	r3, [sp, #12]
 80062aa:	3307      	adds	r3, #7
 80062ac:	f023 0307 	bic.w	r3, r3, #7
 80062b0:	3308      	adds	r3, #8
 80062b2:	9303      	str	r3, [sp, #12]
 80062b4:	9b09      	ldr	r3, [sp, #36]	@ 0x24
 80062b6:	4403      	add	r3, r0
 80062b8:	9309      	str	r3, [sp, #36]	@ 0x24
 80062ba:	e76c      	b.n	8006196 <_svfiprintf_r+0x4e>
 80062bc:	460c      	mov	r4, r1
 80062be:	2001      	movs	r0, #1
 80062c0:	fb0c 3202 	mla	r2, ip, r2, r3
 80062c4:	e7aa      	b.n	800621c <_svfiprintf_r+0xd4>
 80062c6:	2300      	movs	r3, #0
 80062c8:	f04f 0c0a 	mov.w	ip, #10
 80062cc:	4619      	mov	r1, r3
 80062ce:	3401      	adds	r4, #1
 80062d0:	9305      	str	r3, [sp, #20]
 80062d2:	4620      	mov	r0, r4
 80062d4:	f810 2b01 	ldrb.w	r2, [r0], #1
 80062d8:	3a30      	subs	r2, #48	@ 0x30
 80062da:	2a09      	cmp	r2, #9
 80062dc:	d903      	bls.n	80062e6 <_svfiprintf_r+0x19e>
 80062de:	2b00      	cmp	r3, #0
 80062e0:	d0c6      	beq.n	8006270 <_svfiprintf_r+0x128>
 80062e2:	9105      	str	r1, [sp, #20]
 80062e4:	e7c4      	b.n	8006270 <_svfiprintf_r+0x128>
 80062e6:	4604      	mov	r4, r0
 80062e8:	2301      	movs	r3, #1
 80062ea:	fb0c 2101 	mla	r1, ip, r1, r2
 80062ee:	e7f0      	b.n	80062d2 <_svfiprintf_r+0x18a>
 80062f0:	ab03      	add	r3, sp, #12
 80062f2:	9300      	str	r3, [sp, #0]
 80062f4:	462a      	mov	r2, r5
 80062f6:	4630      	mov	r0, r6
 80062f8:	4b0e      	ldr	r3, [pc, #56]	@ (8006334 <_svfiprintf_r+0x1ec>)
 80062fa:	a904      	add	r1, sp, #16
 80062fc:	f3af 8000 	nop.w
 8006300:	1c42      	adds	r2, r0, #1
 8006302:	d1d7      	bne.n	80062b4 <_svfiprintf_r+0x16c>
 8006304:	89ab      	ldrh	r3, [r5, #12]
 8006306:	065b      	lsls	r3, r3, #25
 8006308:	f53f af32 	bmi.w	8006170 <_svfiprintf_r+0x28>
 800630c:	9809      	ldr	r0, [sp, #36]	@ 0x24
 800630e:	e731      	b.n	8006174 <_svfiprintf_r+0x2c>
 8006310:	ab03      	add	r3, sp, #12
 8006312:	9300      	str	r3, [sp, #0]
 8006314:	462a      	mov	r2, r5
 8006316:	4630      	mov	r0, r6
 8006318:	4b06      	ldr	r3, [pc, #24]	@ (8006334 <_svfiprintf_r+0x1ec>)
 800631a:	a904      	add	r1, sp, #16
 800631c:	f000 f87e 	bl	800641c <_printf_i>
 8006320:	e7ee      	b.n	8006300 <_svfiprintf_r+0x1b8>
 8006322:	bf00      	nop
 8006324:	080071a3 	.word	0x080071a3
 8006328:	080071a9 	.word	0x080071a9
 800632c:	080071ad 	.word	0x080071ad
 8006330:	00000000 	.word	0x00000000
 8006334:	08006089 	.word	0x08006089

08006338 <_printf_common>:
 8006338:	e92d 47f0 	stmdb	sp!, {r4, r5, r6, r7, r8, r9, sl, lr}
 800633c:	4616      	mov	r6, r2
 800633e:	4698      	mov	r8, r3
 8006340:	688a      	ldr	r2, [r1, #8]
 8006342:	690b      	ldr	r3, [r1, #16]
 8006344:	4607      	mov	r7, r0
 8006346:	4293      	cmp	r3, r2
 8006348:	bfb8      	it	lt
 800634a:	4613      	movlt	r3, r2
 800634c:	6033      	str	r3, [r6, #0]
 800634e:	f891 2043 	ldrb.w	r2, [r1, #67]	@ 0x43
 8006352:	460c      	mov	r4, r1
 8006354:	f8dd 9020 	ldr.w	r9, [sp, #32]
 8006358:	b10a      	cbz	r2, 800635e <_printf_common+0x26>
 800635a:	3301      	adds	r3, #1
 800635c:	6033      	str	r3, [r6, #0]
 800635e:	6823      	ldr	r3, [r4, #0]
 8006360:	0699      	lsls	r1, r3, #26
 8006362:	bf42      	ittt	mi
 8006364:	6833      	ldrmi	r3, [r6, #0]
 8006366:	3302      	addmi	r3, #2
 8006368:	6033      	strmi	r3, [r6, #0]
 800636a:	6825      	ldr	r5, [r4, #0]
 800636c:	f015 0506 	ands.w	r5, r5, #6
 8006370:	d106      	bne.n	8006380 <_printf_common+0x48>
 8006372:	f104 0a19 	add.w	sl, r4, #25
 8006376:	68e3      	ldr	r3, [r4, #12]
 8006378:	6832      	ldr	r2, [r6, #0]
 800637a:	1a9b      	subs	r3, r3, r2
 800637c:	42ab      	cmp	r3, r5
 800637e:	dc2b      	bgt.n	80063d8 <_printf_common+0xa0>
 8006380:	f894 3043 	ldrb.w	r3, [r4, #67]	@ 0x43
 8006384:	6822      	ldr	r2, [r4, #0]
 8006386:	3b00      	subs	r3, #0
 8006388:	bf18      	it	ne
 800638a:	2301      	movne	r3, #1
 800638c:	0692      	lsls	r2, r2, #26
 800638e:	d430      	bmi.n	80063f2 <_printf_common+0xba>
 8006390:	4641      	mov	r1, r8
 8006392:	4638      	mov	r0, r7
 8006394:	f104 0243 	add.w	r2, r4, #67	@ 0x43
 8006398:	47c8      	blx	r9
 800639a:	3001      	adds	r0, #1
 800639c:	d023      	beq.n	80063e6 <_printf_common+0xae>
 800639e:	6823      	ldr	r3, [r4, #0]
 80063a0:	6922      	ldr	r2, [r4, #16]
 80063a2:	f003 0306 	and.w	r3, r3, #6
 80063a6:	2b04      	cmp	r3, #4
 80063a8:	bf14      	ite	ne
 80063aa:	2500      	movne	r5, #0
 80063ac:	6833      	ldreq	r3, [r6, #0]
 80063ae:	f04f 0600 	mov.w	r6, #0
 80063b2:	bf08      	it	eq
 80063b4:	68e5      	ldreq	r5, [r4, #12]
 80063b6:	f104 041a 	add.w	r4, r4, #26
 80063ba:	bf08      	it	eq
 80063bc:	1aed      	subeq	r5, r5, r3
 80063be:	f854 3c12 	ldr.w	r3, [r4, #-18]
 80063c2:	bf08      	it	eq
 80063c4:	ea25 75e5 	biceq.w	r5, r5, r5, asr #31
 80063c8:	4293      	cmp	r3, r2
 80063ca:	bfc4      	itt	gt
 80063cc:	1a9b      	subgt	r3, r3, r2
 80063ce:	18ed      	addgt	r5, r5, r3
 80063d0:	42b5      	cmp	r5, r6
 80063d2:	d11a      	bne.n	800640a <_printf_common+0xd2>
 80063d4:	2000      	movs	r0, #0
 80063d6:	e008      	b.n	80063ea <_printf_common+0xb2>
 80063d8:	2301      	movs	r3, #1
 80063da:	4652      	mov	r2, sl
 80063dc:	4641      	mov	r1, r8
 80063de:	4638      	mov	r0, r7
 80063e0:	47c8      	blx	r9
 80063e2:	3001      	adds	r0, #1
 80063e4:	d103      	bne.n	80063ee <_printf_common+0xb6>
 80063e6:	f04f 30ff 	mov.w	r0, #4294967295
 80063ea:	e8bd 87f0 	ldmia.w	sp!, {r4, r5, r6, r7, r8, r9, sl, pc}
 80063ee:	3501      	adds	r5, #1
 80063f0:	e7c1      	b.n	8006376 <_printf_common+0x3e>
 80063f2:	2030      	movs	r0, #48	@ 0x30
 80063f4:	18e1      	adds	r1, r4, r3
 80063f6:	f881 0043 	strb.w	r0, [r1, #67]	@ 0x43
 80063fa:	1c5a      	adds	r2, r3, #1
 80063fc:	f894 1045 	ldrb.w	r1, [r4, #69]	@ 0x45
 8006400:	4422      	add	r2, r4
 8006402:	3302      	adds	r3, #2
 8006404:	f882 1043 	strb.w	r1, [r2, #67]	@ 0x43
 8006408:	e7c2      	b.n	8006390 <_printf_common+0x58>
 800640a:	2301      	movs	r3, #1
 800640c:	4622      	mov	r2, r4
 800640e:	4641      	mov	r1, r8
 8006410:	4638      	mov	r0, r7
 8006412:	47c8      	blx	r9
 8006414:	3001      	adds	r0, #1
 8006416:	d0e6      	beq.n	80063e6 <_printf_common+0xae>
 8006418:	3601      	adds	r6, #1
 800641a:	e7d9      	b.n	80063d0 <_printf_common+0x98>

0800641c <_printf_i>:
 800641c:	e92d 43f0 	stmdb	sp!, {r4, r5, r6, r7, r8, r9, lr}
 8006420:	7e0d      	ldrb	r5, [r1, #24]
 8006422:	b085      	sub	sp, #20
 8006424:	2d78      	cmp	r5, #120	@ 0x78
 8006426:	4690      	mov	r8, r2
 8006428:	4607      	mov	r7, r0
 800642a:	460c      	mov	r4, r1
 800642c:	4699      	mov	r9, r3
 800642e:	9e0c      	ldr	r6, [sp, #48]	@ 0x30
 8006430:	f101 0243 	add.w	r2, r1, #67	@ 0x43
 8006434:	d807      	bhi.n	8006446 <_printf_i+0x2a>
 8006436:	2d62      	cmp	r5, #98	@ 0x62
 8006438:	d80a      	bhi.n	8006450 <_printf_i+0x34>
 800643a:	2d00      	cmp	r5, #0
 800643c:	f000 80d7 	beq.w	80065ee <_printf_i+0x1d2>
 8006440:	2d58      	cmp	r5, #88	@ 0x58
 8006442:	f000 80bc 	beq.w	80065be <_printf_i+0x1a2>
 8006446:	f104 0642 	add.w	r6, r4, #66	@ 0x42
 800644a:	f884 5042 	strb.w	r5, [r4, #66]	@ 0x42
 800644e:	e03b      	b.n	80064c8 <_printf_i+0xac>
 8006450:	f1a5 0363 	sub.w	r3, r5, #99	@ 0x63
 8006454:	2b15      	cmp	r3, #21
 8006456:	d8f6      	bhi.n	8006446 <_printf_i+0x2a>
 8006458:	a101      	add	r1, pc, #4	@ (adr r1, 8006460 <_printf_i+0x44>)
 800645a:	f851 f023 	ldr.w	pc, [r1, r3, lsl #2]
 800645e:	bf00      	nop
 8006460:	080064b9 	.word	0x080064b9
 8006464:	080064cd 	.word	0x080064cd
 8006468:	08006447 	.word	0x08006447
 800646c:	08006447 	.word	0x08006447
 8006470:	08006447 	.word	0x08006447
 8006474:	08006447 	.word	0x08006447
 8006478:	080064cd 	.word	0x080064cd
 800647c:	08006447 	.word	0x08006447
 8006480:	08006447 	.word	0x08006447
 8006484:	08006447 	.word	0x08006447
 8006488:	08006447 	.word	0x08006447
 800648c:	080065d5 	.word	0x080065d5
 8006490:	080064f7 	.word	0x080064f7
 8006494:	08006587 	.word	0x08006587
 8006498:	08006447 	.word	0x08006447
 800649c:	08006447 	.word	0x08006447
 80064a0:	080065f7 	.word	0x080065f7
 80064a4:	08006447 	.word	0x08006447
 80064a8:	080064f7 	.word	0x080064f7
 80064ac:	08006447 	.word	0x08006447
 80064b0:	08006447 	.word	0x08006447
 80064b4:	0800658f 	.word	0x0800658f
 80064b8:	6833      	ldr	r3, [r6, #0]
 80064ba:	1d1a      	adds	r2, r3, #4
 80064bc:	681b      	ldr	r3, [r3, #0]
 80064be:	6032      	str	r2, [r6, #0]
 80064c0:	f104 0642 	add.w	r6, r4, #66	@ 0x42
 80064c4:	f884 3042 	strb.w	r3, [r4, #66]	@ 0x42
 80064c8:	2301      	movs	r3, #1
 80064ca:	e0a1      	b.n	8006610 <_printf_i+0x1f4>
 80064cc:	6833      	ldr	r3, [r6, #0]
 80064ce:	6820      	ldr	r0, [r4, #0]
 80064d0:	1d19      	adds	r1, r3, #4
 80064d2:	6031      	str	r1, [r6, #0]
 80064d4:	0606      	lsls	r6, r0, #24
 80064d6:	d501      	bpl.n	80064dc <_printf_i+0xc0>
 80064d8:	681d      	ldr	r5, [r3, #0]
 80064da:	e003      	b.n	80064e4 <_printf_i+0xc8>
 80064dc:	0645      	lsls	r5, r0, #25
 80064de:	d5fb      	bpl.n	80064d8 <_printf_i+0xbc>
 80064e0:	f9b3 5000 	ldrsh.w	r5, [r3]
 80064e4:	2d00      	cmp	r5, #0
 80064e6:	da03      	bge.n	80064f0 <_printf_i+0xd4>
 80064e8:	232d      	movs	r3, #45	@ 0x2d
 80064ea:	426d      	negs	r5, r5
 80064ec:	f884 3043 	strb.w	r3, [r4, #67]	@ 0x43
 80064f0:	230a      	movs	r3, #10
 80064f2:	485b      	ldr	r0, [pc, #364]	@ (8006660 <_printf_i+0x244>)
 80064f4:	e011      	b.n	800651a <_printf_i+0xfe>
 80064f6:	6821      	ldr	r1, [r4, #0]
 80064f8:	6833      	ldr	r3, [r6, #0]
 80064fa:	0608      	lsls	r0, r1, #24
 80064fc:	f853 5b04 	ldr.w	r5, [r3], #4
 8006500:	d402      	bmi.n	8006508 <_printf_i+0xec>
 8006502:	0649      	lsls	r1, r1, #25
 8006504:	bf48      	it	mi
 8006506:	b2ad      	uxthmi	r5, r5
 8006508:	6033      	str	r3, [r6, #0]
 800650a:	7e23      	ldrb	r3, [r4, #24]
 800650c:	4854      	ldr	r0, [pc, #336]	@ (8006660 <_printf_i+0x244>)
 800650e:	2b6f      	cmp	r3, #111	@ 0x6f
 8006510:	d15c      	bne.n	80065cc <_printf_i+0x1b0>
 8006512:	2308      	movs	r3, #8
 8006514:	2100      	movs	r1, #0
 8006516:	f884 1043 	strb.w	r1, [r4, #67]	@ 0x43
 800651a:	6866      	ldr	r6, [r4, #4]
 800651c:	2e00      	cmp	r6, #0
 800651e:	60a6      	str	r6, [r4, #8]
 8006520:	db05      	blt.n	800652e <_printf_i+0x112>
 8006522:	6821      	ldr	r1, [r4, #0]
 8006524:	432e      	orrs	r6, r5
 8006526:	f021 0104 	bic.w	r1, r1, #4
 800652a:	6021      	str	r1, [r4, #0]
 800652c:	d050      	beq.n	80065d0 <_printf_i+0x1b4>
 800652e:	4616      	mov	r6, r2
 8006530:	fbb5 f1f3 	udiv	r1, r5, r3
 8006534:	fb03 5c11 	mls	ip, r3, r1, r5
 8006538:	f810 c00c 	ldrb.w	ip, [r0, ip]
 800653c:	f806 cd01 	strb.w	ip, [r6, #-1]!
 8006540:	46ac      	mov	ip, r5
 8006542:	4563      	cmp	r3, ip
 8006544:	460d      	mov	r5, r1
 8006546:	d9f3      	bls.n	8006530 <_printf_i+0x114>
 8006548:	2b08      	cmp	r3, #8
 800654a:	d10b      	bne.n	8006564 <_printf_i+0x148>
 800654c:	6823      	ldr	r3, [r4, #0]
 800654e:	07db      	lsls	r3, r3, #31
 8006550:	d508      	bpl.n	8006564 <_printf_i+0x148>
 8006552:	6923      	ldr	r3, [r4, #16]
 8006554:	6861      	ldr	r1, [r4, #4]
 8006556:	4299      	cmp	r1, r3
 8006558:	bfde      	ittt	le
 800655a:	2330      	movle	r3, #48	@ 0x30
 800655c:	f806 3c01 	strble.w	r3, [r6, #-1]
 8006560:	f106 36ff 	addle.w	r6, r6, #4294967295
 8006564:	1b92      	subs	r2, r2, r6
 8006566:	6122      	str	r2, [r4, #16]
 8006568:	4643      	mov	r3, r8
 800656a:	4621      	mov	r1, r4
 800656c:	4638      	mov	r0, r7
 800656e:	f8cd 9000 	str.w	r9, [sp]
 8006572:	aa03      	add	r2, sp, #12
 8006574:	f7ff fee0 	bl	8006338 <_printf_common>
 8006578:	3001      	adds	r0, #1
 800657a:	d14e      	bne.n	800661a <_printf_i+0x1fe>
 800657c:	f04f 30ff 	mov.w	r0, #4294967295
 8006580:	b005      	add	sp, #20
 8006582:	e8bd 83f0 	ldmia.w	sp!, {r4, r5, r6, r7, r8, r9, pc}
 8006586:	6823      	ldr	r3, [r4, #0]
 8006588:	f043 0320 	orr.w	r3, r3, #32
 800658c:	6023      	str	r3, [r4, #0]
 800658e:	2578      	movs	r5, #120	@ 0x78
 8006590:	4834      	ldr	r0, [pc, #208]	@ (8006664 <_printf_i+0x248>)
 8006592:	f884 5045 	strb.w	r5, [r4, #69]	@ 0x45
 8006596:	6823      	ldr	r3, [r4, #0]
 8006598:	6831      	ldr	r1, [r6, #0]
 800659a:	f013 0f80 	tst.w	r3, #128	@ 0x80
 800659e:	f851 5b04 	ldr.w	r5, [r1], #4
 80065a2:	d103      	bne.n	80065ac <_printf_i+0x190>
 80065a4:	f013 0f40 	tst.w	r3, #64	@ 0x40
 80065a8:	bf18      	it	ne
 80065aa:	b2ad      	uxthne	r5, r5
 80065ac:	6031      	str	r1, [r6, #0]
 80065ae:	07d9      	lsls	r1, r3, #31
 80065b0:	bf44      	itt	mi
 80065b2:	f043 0320 	orrmi.w	r3, r3, #32
 80065b6:	6023      	strmi	r3, [r4, #0]
 80065b8:	b11d      	cbz	r5, 80065c2 <_printf_i+0x1a6>
 80065ba:	2310      	movs	r3, #16
 80065bc:	e7aa      	b.n	8006514 <_printf_i+0xf8>
 80065be:	4828      	ldr	r0, [pc, #160]	@ (8006660 <_printf_i+0x244>)
 80065c0:	e7e7      	b.n	8006592 <_printf_i+0x176>
 80065c2:	6823      	ldr	r3, [r4, #0]
 80065c4:	f023 0320 	bic.w	r3, r3, #32
 80065c8:	6023      	str	r3, [r4, #0]
 80065ca:	e7f6      	b.n	80065ba <_printf_i+0x19e>
 80065cc:	230a      	movs	r3, #10
 80065ce:	e7a1      	b.n	8006514 <_printf_i+0xf8>
 80065d0:	4616      	mov	r6, r2
 80065d2:	e7b9      	b.n	8006548 <_printf_i+0x12c>
 80065d4:	6833      	ldr	r3, [r6, #0]
 80065d6:	6825      	ldr	r5, [r4, #0]
 80065d8:	1d18      	adds	r0, r3, #4
 80065da:	6961      	ldr	r1, [r4, #20]
 80065dc:	6030      	str	r0, [r6, #0]
 80065de:	062e      	lsls	r6, r5, #24
 80065e0:	681b      	ldr	r3, [r3, #0]
 80065e2:	d501      	bpl.n	80065e8 <_printf_i+0x1cc>
 80065e4:	6019      	str	r1, [r3, #0]
 80065e6:	e002      	b.n	80065ee <_printf_i+0x1d2>
 80065e8:	0668      	lsls	r0, r5, #25
 80065ea:	d5fb      	bpl.n	80065e4 <_printf_i+0x1c8>
 80065ec:	8019      	strh	r1, [r3, #0]
 80065ee:	2300      	movs	r3, #0
 80065f0:	4616      	mov	r6, r2
 80065f2:	6123      	str	r3, [r4, #16]
 80065f4:	e7b8      	b.n	8006568 <_printf_i+0x14c>
 80065f6:	6833      	ldr	r3, [r6, #0]
 80065f8:	2100      	movs	r1, #0
 80065fa:	1d1a      	adds	r2, r3, #4
 80065fc:	6032      	str	r2, [r6, #0]
 80065fe:	681e      	ldr	r6, [r3, #0]
 8006600:	6862      	ldr	r2, [r4, #4]
 8006602:	4630      	mov	r0, r6
 8006604:	f000 f840 	bl	8006688 <memchr>
 8006608:	b108      	cbz	r0, 800660e <_printf_i+0x1f2>
 800660a:	1b80      	subs	r0, r0, r6
 800660c:	6060      	str	r0, [r4, #4]
 800660e:	6863      	ldr	r3, [r4, #4]
 8006610:	6123      	str	r3, [r4, #16]
 8006612:	2300      	movs	r3, #0
 8006614:	f884 3043 	strb.w	r3, [r4, #67]	@ 0x43
 8006618:	e7a6      	b.n	8006568 <_printf_i+0x14c>
 800661a:	4632      	mov	r2, r6
 800661c:	4641      	mov	r1, r8
 800661e:	4638      	mov	r0, r7
 8006620:	6923      	ldr	r3, [r4, #16]
 8006622:	47c8      	blx	r9
 8006624:	3001      	adds	r0, #1
 8006626:	d0a9      	beq.n	800657c <_printf_i+0x160>
 8006628:	6823      	ldr	r3, [r4, #0]
 800662a:	079b      	lsls	r3, r3, #30
 800662c:	d413      	bmi.n	8006656 <_printf_i+0x23a>
 800662e:	68e0      	ldr	r0, [r4, #12]
 8006630:	9b03      	ldr	r3, [sp, #12]
 8006632:	4298      	cmp	r0, r3
 8006634:	bfb8      	it	lt
 8006636:	4618      	movlt	r0, r3
 8006638:	e7a2      	b.n	8006580 <_printf_i+0x164>
 800663a:	2301      	movs	r3, #1
 800663c:	4632      	mov	r2, r6
 800663e:	4641      	mov	r1, r8
 8006640:	4638      	mov	r0, r7
 8006642:	47c8      	blx	r9
 8006644:	3001      	adds	r0, #1
 8006646:	d099      	beq.n	800657c <_printf_i+0x160>
 8006648:	3501      	adds	r5, #1
 800664a:	68e3      	ldr	r3, [r4, #12]
 800664c:	9903      	ldr	r1, [sp, #12]
 800664e:	1a5b      	subs	r3, r3, r1
 8006650:	42ab      	cmp	r3, r5
 8006652:	dcf2      	bgt.n	800663a <_printf_i+0x21e>
 8006654:	e7eb      	b.n	800662e <_printf_i+0x212>
 8006656:	2500      	movs	r5, #0
 8006658:	f104 0619 	add.w	r6, r4, #25
 800665c:	e7f5      	b.n	800664a <_printf_i+0x22e>
 800665e:	bf00      	nop
 8006660:	080071b4 	.word	0x080071b4
 8006664:	080071c5 	.word	0x080071c5

08006668 <_sbrk_r>:
 8006668:	b538      	push	{r3, r4, r5, lr}
 800666a:	2300      	movs	r3, #0
 800666c:	4d05      	ldr	r5, [pc, #20]	@ (8006684 <_sbrk_r+0x1c>)
 800666e:	4604      	mov	r4, r0
 8006670:	4608      	mov	r0, r1
 8006672:	602b      	str	r3, [r5, #0]
 8006674:	f7fe f946 	bl	8004904 <_sbrk>
 8006678:	1c43      	adds	r3, r0, #1
 800667a:	d102      	bne.n	8006682 <_sbrk_r+0x1a>
 800667c:	682b      	ldr	r3, [r5, #0]
 800667e:	b103      	cbz	r3, 8006682 <_sbrk_r+0x1a>
 8006680:	6023      	str	r3, [r4, #0]
 8006682:	bd38      	pop	{r3, r4, r5, pc}
 8006684:	20000e20 	.word	0x20000e20

08006688 <memchr>:
 8006688:	4603      	mov	r3, r0
 800668a:	b510      	push	{r4, lr}
 800668c:	b2c9      	uxtb	r1, r1
 800668e:	4402      	add	r2, r0
 8006690:	4293      	cmp	r3, r2
 8006692:	4618      	mov	r0, r3
 8006694:	d101      	bne.n	800669a <memchr+0x12>
 8006696:	2000      	movs	r0, #0
 8006698:	e003      	b.n	80066a2 <memchr+0x1a>
 800669a:	7804      	ldrb	r4, [r0, #0]
 800669c:	3301      	adds	r3, #1
 800669e:	428c      	cmp	r4, r1
 80066a0:	d1f6      	bne.n	8006690 <memchr+0x8>
 80066a2:	bd10      	pop	{r4, pc}

080066a4 <_realloc_r>:
 80066a4:	e92d 41f0 	stmdb	sp!, {r4, r5, r6, r7, r8, lr}
 80066a8:	4607      	mov	r7, r0
 80066aa:	4614      	mov	r4, r2
 80066ac:	460d      	mov	r5, r1
 80066ae:	b921      	cbnz	r1, 80066ba <_realloc_r+0x16>
 80066b0:	4611      	mov	r1, r2
 80066b2:	e8bd 41f0 	ldmia.w	sp!, {r4, r5, r6, r7, r8, lr}
 80066b6:	f7ff bc5b 	b.w	8005f70 <_malloc_r>
 80066ba:	b92a      	cbnz	r2, 80066c8 <_realloc_r+0x24>
 80066bc:	f7ff fbee 	bl	8005e9c <_free_r>
 80066c0:	4625      	mov	r5, r4
 80066c2:	4628      	mov	r0, r5
 80066c4:	e8bd 81f0 	ldmia.w	sp!, {r4, r5, r6, r7, r8, pc}
 80066c8:	f000 f81a 	bl	8006700 <_malloc_usable_size_r>
 80066cc:	4284      	cmp	r4, r0
 80066ce:	4606      	mov	r6, r0
 80066d0:	d802      	bhi.n	80066d8 <_realloc_r+0x34>
 80066d2:	ebb4 0f50 	cmp.w	r4, r0, lsr #1
 80066d6:	d8f4      	bhi.n	80066c2 <_realloc_r+0x1e>
 80066d8:	4621      	mov	r1, r4
 80066da:	4638      	mov	r0, r7
 80066dc:	f7ff fc48 	bl	8005f70 <_malloc_r>
 80066e0:	4680      	mov	r8, r0
 80066e2:	b908      	cbnz	r0, 80066e8 <_realloc_r+0x44>
 80066e4:	4645      	mov	r5, r8
 80066e6:	e7ec      	b.n	80066c2 <_realloc_r+0x1e>
 80066e8:	42b4      	cmp	r4, r6
 80066ea:	4622      	mov	r2, r4
 80066ec:	4629      	mov	r1, r5
 80066ee:	bf28      	it	cs
 80066f0:	4632      	movcs	r2, r6
 80066f2:	f7ff fbc5 	bl	8005e80 <memcpy>
 80066f6:	4629      	mov	r1, r5
 80066f8:	4638      	mov	r0, r7
 80066fa:	f7ff fbcf 	bl	8005e9c <_free_r>
 80066fe:	e7f1      	b.n	80066e4 <_realloc_r+0x40>

08006700 <_malloc_usable_size_r>:
 8006700:	f851 3c04 	ldr.w	r3, [r1, #-4]
 8006704:	1f18      	subs	r0, r3, #4
 8006706:	2b00      	cmp	r3, #0
 8006708:	bfbc      	itt	lt
 800670a:	580b      	ldrlt	r3, [r1, r0]
 800670c:	18c0      	addlt	r0, r0, r3
 800670e:	4770      	bx	lr

08006710 <_init>:
 8006710:	b5f8      	push	{r3, r4, r5, r6, r7, lr}
 8006712:	bf00      	nop
 8006714:	bcf8      	pop	{r3, r4, r5, r6, r7}
 8006716:	bc08      	pop	{r3}
 8006718:	469e      	mov	lr, r3
 800671a:	4770      	bx	lr

0800671c <_fini>:
 800671c:	b5f8      	push	{r3, r4, r5, r6, r7, lr}
 800671e:	bf00      	nop
 8006720:	bcf8      	pop	{r3, r4, r5, r6, r7}
 8006722:	bc08      	pop	{r3}
 8006724:	469e      	mov	lr, r3
 8006726:	4770      	bx	lr
